
./khttpd.ko：     檔案格式 elf64-x86-64


Disassembly of section .note.gnu.build-id:

0000000000000000 <.note.gnu.build-id>:
   0:	04 00                	add    al,0x0
   2:	00 00                	add    BYTE PTR [rax],al
   4:	14 00                	adc    al,0x0
   6:	00 00                	add    BYTE PTR [rax],al
   8:	03 00                	add    eax,DWORD PTR [rax]
   a:	00 00                	add    BYTE PTR [rax],al
   c:	47                   	rex.RXB
   d:	4e 55                	rex.WRX push rbp
   f:	00 45 d4             	add    BYTE PTR [rbp-0x2c],al
  12:	06                   	(bad)  
  13:	f4                   	hlt    
  14:	3c b6                	cmp    al,0xb6
  16:	b5 b6                	mov    ch,0xb6
  18:	ea                   	(bad)  
  19:	e9 13 1b 70 a3       	jmp    ffffffffa3701b31 <http_server_daemon+0xffffffffa36fa8b1>
  1e:	b5 3f                	mov    ch,0x3f
  20:	29 44 aa e4          	sub    DWORD PTR [rdx+rbp*4-0x1c],eax

Disassembly of section .text:

0000000000000000 <apm_inc.part.0>:
       0:	e8 00 00 00 00       	call   5 <apm_inc.part.0+0x5>
       5:	55                   	push   rbp
       6:	85 f6                	test   esi,esi
       8:	48 89 e5             	mov    rbp,rsp
       b:	74 28                	je     35 <apm_inc.part.0+0x35>
       d:	48 8b 07             	mov    rax,QWORD PTR [rdi]
      10:	8d 56 ff             	lea    edx,[rsi-0x1]
      13:	48 8d 54 d7 08       	lea    rdx,[rdi+rdx*8+0x8]
      18:	48 83 c0 01          	add    rax,0x1
      1c:	48 85 c0             	test   rax,rax
      1f:	48 89 07             	mov    QWORD PTR [rdi],rax
      22:	74 08                	je     2c <apm_inc.part.0+0x2c>
      24:	eb 16                	jmp    3c <apm_inc.part.0+0x3c>
      26:	48 83 07 01          	add    QWORD PTR [rdi],0x1
      2a:	75 10                	jne    3c <apm_inc.part.0+0x3c>
      2c:	48 83 c7 08          	add    rdi,0x8
      30:	48 39 d7             	cmp    rdi,rdx
      33:	75 f1                	jne    26 <apm_inc.part.0+0x26>
      35:	b8 01 00 00 00       	mov    eax,0x1
      3a:	5d                   	pop    rbp
      3b:	c3                   	ret    
      3c:	31 c0                	xor    eax,eax
      3e:	5d                   	pop    rbp
      3f:	c3                   	ret    

0000000000000040 <apm_daddi>:
      40:	e8 00 00 00 00       	call   45 <apm_daddi+0x5>
      45:	48 85 d2             	test   rdx,rdx
      48:	74 22                	je     6c <apm_daddi+0x2c>
      4a:	85 f6                	test   esi,esi
      4c:	74 1e                	je     6c <apm_daddi+0x2c>
      4e:	31 c9                	xor    ecx,ecx
      50:	48 03 17             	add    rdx,QWORD PTR [rdi]
      53:	0f 92 c1             	setb   cl
      56:	31 c0                	xor    eax,eax
      58:	48 89 17             	mov    QWORD PTR [rdi],rdx
      5b:	48 85 c9             	test   rcx,rcx
      5e:	74 0a                	je     6a <apm_daddi+0x2a>
      60:	83 ee 01             	sub    esi,0x1
      63:	b8 01 00 00 00       	mov    eax,0x1
      68:	75 06                	jne    70 <apm_daddi+0x30>
      6a:	f3 c3                	repz ret 
      6c:	48 89 d0             	mov    rax,rdx
      6f:	c3                   	ret    
      70:	55                   	push   rbp
      71:	48 83 c7 08          	add    rdi,0x8
      75:	48 89 e5             	mov    rbp,rsp
      78:	e8 83 ff ff ff       	call   0 <apm_inc.part.0>
      7d:	5d                   	pop    rbp
      7e:	c3                   	ret    
      7f:	90                   	nop

0000000000000080 <apm_add_n>:
      80:	e8 00 00 00 00       	call   85 <apm_add_n+0x5>
      85:	55                   	push   rbp
      86:	85 d2                	test   edx,edx
      88:	48 89 e5             	mov    rbp,rsp
      8b:	74 34                	je     c1 <apm_add_n+0x41>
      8d:	8d 42 ff             	lea    eax,[rdx-0x1]
      90:	31 d2                	xor    edx,edx
      92:	4c 8d 0c c5 08 00 00 	lea    r9,[rax*8+0x8]
      99:	00 
      9a:	31 c0                	xor    eax,eax
      9c:	45 31 c0             	xor    r8d,r8d
      9f:	48 03 04 17          	add    rax,QWORD PTR [rdi+rdx*1]
      a3:	41 0f 92 c0          	setb   r8b
      a7:	48 03 04 16          	add    rax,QWORD PTR [rsi+rdx*1]
      ab:	48 89 04 11          	mov    QWORD PTR [rcx+rdx*1],rax
      af:	4c 89 c0             	mov    rax,r8
      b2:	48 83 d0 00          	adc    rax,0x0
      b6:	48 83 c2 08          	add    rdx,0x8
      ba:	49 39 d1             	cmp    r9,rdx
      bd:	75 dd                	jne    9c <apm_add_n+0x1c>
      bf:	5d                   	pop    rbp
      c0:	c3                   	ret    
      c1:	31 c0                	xor    eax,eax
      c3:	5d                   	pop    rbp
      c4:	c3                   	ret    
      c5:	90                   	nop
      c6:	66 2e 0f 1f 84 00 00 	nop    WORD PTR cs:[rax+rax*1+0x0]
      cd:	00 00 00 

00000000000000d0 <apm_add>:
      d0:	e8 00 00 00 00       	call   d5 <apm_add+0x5>
      d5:	55                   	push   rbp
      d6:	48 89 e5             	mov    rbp,rsp
      d9:	41 56                	push   r14
      db:	41 89 ce             	mov    r14d,ecx
      de:	41 55                	push   r13
      e0:	41 89 f5             	mov    r13d,esi
      e3:	41 54                	push   r12
      e5:	45 39 f5             	cmp    r13d,r14d
      e8:	53                   	push   rbx
      e9:	4d 89 c4             	mov    r12,r8
      ec:	73 72                	jae    160 <apm_add+0x90>
      ee:	45 85 ed             	test   r13d,r13d
      f1:	41 8d 45 ff          	lea    eax,[r13-0x1]
      f5:	0f 84 35 01 00 00    	je     230 <apm_add+0x160>
      fb:	48 8d 34 c5 08 00 00 	lea    rsi,[rax*8+0x8]
     102:	00 
     103:	31 db                	xor    ebx,ebx
     105:	31 c0                	xor    eax,eax
     107:	31 c9                	xor    ecx,ecx
     109:	48 03 1c 07          	add    rbx,QWORD PTR [rdi+rax*1]
     10d:	0f 92 c1             	setb   cl
     110:	48 03 1c 02          	add    rbx,QWORD PTR [rdx+rax*1]
     114:	48 83 d1 00          	adc    rcx,0x0
     118:	49 89 1c 04          	mov    QWORD PTR [r12+rax*1],rbx
     11c:	48 83 c0 08          	add    rax,0x8
     120:	48 39 c6             	cmp    rsi,rax
     123:	48 89 cb             	mov    rbx,rcx
     126:	75 df                	jne    107 <apm_add+0x37>
     128:	4c 39 e2             	cmp    rdx,r12
     12b:	74 1f                	je     14c <apm_add+0x7c>
     12d:	44 89 ef             	mov    edi,r13d
     130:	44 89 f0             	mov    eax,r14d
     133:	48 c1 e7 03          	shl    rdi,0x3
     137:	44 29 e8             	sub    eax,r13d
     13a:	48 8d 34 3a          	lea    rsi,[rdx+rdi*1]
     13e:	c1 e0 03             	shl    eax,0x3
     141:	4c 01 e7             	add    rdi,r12
     144:	48 89 c2             	mov    rdx,rax
     147:	e8 00 00 00 00       	call   14c <apm_add+0x7c>
     14c:	48 85 db             	test   rbx,rbx
     14f:	0f 85 c3 00 00 00    	jne    218 <apm_add+0x148>
     155:	31 c0                	xor    eax,eax
     157:	5b                   	pop    rbx
     158:	41 5c                	pop    r12
     15a:	41 5d                	pop    r13
     15c:	41 5e                	pop    r14
     15e:	5d                   	pop    rbp
     15f:	c3                   	ret    
     160:	76 72                	jbe    1d4 <apm_add+0x104>
     162:	45 85 f6             	test   r14d,r14d
     165:	41 8d 46 ff          	lea    eax,[r14-0x1]
     169:	0f 84 d1 00 00 00    	je     240 <apm_add+0x170>
     16f:	48 8d 34 c5 08 00 00 	lea    rsi,[rax*8+0x8]
     176:	00 
     177:	31 db                	xor    ebx,ebx
     179:	31 c0                	xor    eax,eax
     17b:	31 c9                	xor    ecx,ecx
     17d:	48 03 1c 07          	add    rbx,QWORD PTR [rdi+rax*1]
     181:	0f 92 c1             	setb   cl
     184:	48 03 1c 02          	add    rbx,QWORD PTR [rdx+rax*1]
     188:	49 89 1c 04          	mov    QWORD PTR [r12+rax*1],rbx
     18c:	48 89 cb             	mov    rbx,rcx
     18f:	48 83 d3 00          	adc    rbx,0x0
     193:	48 83 c0 08          	add    rax,0x8
     197:	48 39 c6             	cmp    rsi,rax
     19a:	75 df                	jne    17b <apm_add+0xab>
     19c:	4c 39 e7             	cmp    rdi,r12
     19f:	74 1d                	je     1be <apm_add+0xee>
     1a1:	44 89 f0             	mov    eax,r14d
     1a4:	44 89 ea             	mov    edx,r13d
     1a7:	48 c1 e0 03          	shl    rax,0x3
     1ab:	44 29 f2             	sub    edx,r14d
     1ae:	48 8d 34 07          	lea    rsi,[rdi+rax*1]
     1b2:	49 8d 3c 04          	lea    rdi,[r12+rax*1]
     1b6:	c1 e2 03             	shl    edx,0x3
     1b9:	e8 00 00 00 00       	call   1be <apm_add+0xee>
     1be:	48 85 db             	test   rbx,rbx
     1c1:	74 92                	je     155 <apm_add+0x85>
     1c3:	44 89 ee             	mov    esi,r13d
     1c6:	4b 8d 3c f4          	lea    rdi,[r12+r14*8]
     1ca:	44 29 f6             	sub    esi,r14d
     1cd:	e8 2e fe ff ff       	call   0 <apm_inc.part.0>
     1d2:	eb 83                	jmp    157 <apm_add+0x87>
     1d4:	45 85 ed             	test   r13d,r13d
     1d7:	41 8d 45 ff          	lea    eax,[r13-0x1]
     1db:	0f 84 74 ff ff ff    	je     155 <apm_add+0x85>
     1e1:	4c 8d 04 c5 08 00 00 	lea    r8,[rax*8+0x8]
     1e8:	00 
     1e9:	31 c9                	xor    ecx,ecx
     1eb:	31 c0                	xor    eax,eax
     1ed:	31 f6                	xor    esi,esi
     1ef:	48 03 04 0f          	add    rax,QWORD PTR [rdi+rcx*1]
     1f3:	40 0f 92 c6          	setb   sil
     1f7:	48 03 04 0a          	add    rax,QWORD PTR [rdx+rcx*1]
     1fb:	49 89 04 0c          	mov    QWORD PTR [r12+rcx*1],rax
     1ff:	48 89 f0             	mov    rax,rsi
     202:	48 83 d0 00          	adc    rax,0x0
     206:	48 83 c1 08          	add    rcx,0x8
     20a:	49 39 c8             	cmp    r8,rcx
     20d:	75 de                	jne    1ed <apm_add+0x11d>
     20f:	5b                   	pop    rbx
     210:	41 5c                	pop    r12
     212:	41 5d                	pop    r13
     214:	41 5e                	pop    r14
     216:	5d                   	pop    rbp
     217:	c3                   	ret    
     218:	4b 8d 3c ec          	lea    rdi,[r12+r13*8]
     21c:	44 89 f6             	mov    esi,r14d
     21f:	44 29 ee             	sub    esi,r13d
     222:	e8 d9 fd ff ff       	call   0 <apm_inc.part.0>
     227:	5b                   	pop    rbx
     228:	41 5c                	pop    r12
     22a:	41 5d                	pop    r13
     22c:	41 5e                	pop    r14
     22e:	5d                   	pop    rbp
     22f:	c3                   	ret    
     230:	31 db                	xor    ebx,ebx
     232:	4c 39 c2             	cmp    rdx,r8
     235:	0f 85 f2 fe ff ff    	jne    12d <apm_add+0x5d>
     23b:	e9 15 ff ff ff       	jmp    155 <apm_add+0x85>
     240:	31 db                	xor    ebx,ebx
     242:	4c 39 c7             	cmp    rdi,r8
     245:	0f 85 56 ff ff ff    	jne    1a1 <apm_add+0xd1>
     24b:	e9 05 ff ff ff       	jmp    155 <apm_add+0x85>

0000000000000250 <apm_addi>:
     250:	e8 00 00 00 00       	call   255 <apm_addi+0x5>
     255:	85 c9                	test   ecx,ecx
     257:	74 43                	je     29c <apm_addi+0x4c>
     259:	8d 41 ff             	lea    eax,[rcx-0x1]
     25c:	45 31 c0             	xor    r8d,r8d
     25f:	4c 8d 14 c5 08 00 00 	lea    r10,[rax*8+0x8]
     266:	00 
     267:	31 c0                	xor    eax,eax
     269:	45 31 c9             	xor    r9d,r9d
     26c:	4a 03 04 07          	add    rax,QWORD PTR [rdi+r8*1]
     270:	41 0f 92 c1          	setb   r9b
     274:	4a 03 04 02          	add    rax,QWORD PTR [rdx+r8*1]
     278:	4a 89 04 07          	mov    QWORD PTR [rdi+r8*1],rax
     27c:	4c 89 c8             	mov    rax,r9
     27f:	48 83 d0 00          	adc    rax,0x0
     283:	49 83 c0 08          	add    r8,0x8
     287:	4d 39 c2             	cmp    r10,r8
     28a:	75 dd                	jne    269 <apm_addi+0x19>
     28c:	48 85 c0             	test   rax,rax
     28f:	74 0b                	je     29c <apm_addi+0x4c>
     291:	29 ce                	sub    esi,ecx
     293:	b8 01 00 00 00       	mov    eax,0x1
     298:	75 05                	jne    29f <apm_addi+0x4f>
     29a:	f3 c3                	repz ret 
     29c:	31 c0                	xor    eax,eax
     29e:	c3                   	ret    
     29f:	55                   	push   rbp
     2a0:	89 c9                	mov    ecx,ecx
     2a2:	48 8d 3c cf          	lea    rdi,[rdi+rcx*8]
     2a6:	48 89 e5             	mov    rbp,rsp
     2a9:	e8 52 fd ff ff       	call   0 <apm_inc.part.0>
     2ae:	5d                   	pop    rbp
     2af:	c3                   	ret    

00000000000002b0 <apm_sub_n>:
     2b0:	e8 00 00 00 00       	call   2b5 <apm_sub_n+0x5>
     2b5:	55                   	push   rbp
     2b6:	85 d2                	test   edx,edx
     2b8:	48 89 e5             	mov    rbp,rsp
     2bb:	74 3a                	je     2f7 <apm_sub_n+0x47>
     2bd:	8d 42 ff             	lea    eax,[rdx-0x1]
     2c0:	31 d2                	xor    edx,edx
     2c2:	4c 8d 1c c5 08 00 00 	lea    r11,[rax*8+0x8]
     2c9:	00 
     2ca:	31 c0                	xor    eax,eax
     2cc:	45 31 c9             	xor    r9d,r9d
     2cf:	48 03 04 16          	add    rax,QWORD PTR [rsi+rdx*1]
     2d3:	4c 8b 04 17          	mov    r8,QWORD PTR [rdi+rdx*1]
     2d7:	4d 89 c2             	mov    r10,r8
     2da:	41 0f 92 c1          	setb   r9b
     2de:	49 29 c2             	sub    r10,rax
     2e1:	4c 89 c8             	mov    rax,r9
     2e4:	4c 89 14 11          	mov    QWORD PTR [rcx+rdx*1],r10
     2e8:	48 83 d0 00          	adc    rax,0x0
     2ec:	48 83 c2 08          	add    rdx,0x8
     2f0:	49 39 d3             	cmp    r11,rdx
     2f3:	75 d7                	jne    2cc <apm_sub_n+0x1c>
     2f5:	5d                   	pop    rbp
     2f6:	c3                   	ret    
     2f7:	31 c0                	xor    eax,eax
     2f9:	5d                   	pop    rbp
     2fa:	c3                   	ret    
     2fb:	0f 1f 44 00 00       	nop    DWORD PTR [rax+rax*1+0x0]

0000000000000300 <apm_sub>:
     300:	e8 00 00 00 00       	call   305 <apm_sub+0x5>
     305:	39 ce                	cmp    esi,ecx
     307:	0f 84 c0 00 00 00    	je     3cd <apm_sub+0xcd>
     30d:	55                   	push   rbp
     30e:	49 89 d1             	mov    r9,rdx
     311:	8d 41 ff             	lea    eax,[rcx-0x1]
     314:	48 89 e5             	mov    rbp,rsp
     317:	41 56                	push   r14
     319:	41 55                	push   r13
     31b:	41 54                	push   r12
     31d:	41 89 cc             	mov    r12d,ecx
     320:	41 89 f5             	mov    r13d,esi
     323:	49 c1 e4 03          	shl    r12,0x3
     327:	41 29 cd             	sub    r13d,ecx
     32a:	53                   	push   rbx
     32b:	4a 8d 34 27          	lea    rsi,[rdi+r12*1]
     32f:	4d 01 c4             	add    r12,r8
     332:	85 c9                	test   ecx,ecx
     334:	42 8d 14 ed 00 00 00 	lea    edx,[r13*8+0x0]
     33b:	00 
     33c:	0f 84 da 00 00 00    	je     41c <apm_sub+0x11c>
     342:	4c 8d 34 c5 08 00 00 	lea    r14,[rax*8+0x8]
     349:	00 
     34a:	31 db                	xor    ebx,ebx
     34c:	31 c0                	xor    eax,eax
     34e:	45 31 d2             	xor    r10d,r10d
     351:	49 03 1c 01          	add    rbx,QWORD PTR [r9+rax*1]
     355:	48 8b 0c 07          	mov    rcx,QWORD PTR [rdi+rax*1]
     359:	49 89 cb             	mov    r11,rcx
     35c:	41 0f 92 c2          	setb   r10b
     360:	49 29 db             	sub    r11,rbx
     363:	4c 89 d3             	mov    rbx,r10
     366:	4d 89 1c 00          	mov    QWORD PTR [r8+rax*1],r11
     36a:	48 83 d3 00          	adc    rbx,0x0
     36e:	48 83 c0 08          	add    rax,0x8
     372:	49 39 c6             	cmp    r14,rax
     375:	75 d7                	jne    34e <apm_sub+0x4e>
     377:	4c 89 e7             	mov    rdi,r12
     37a:	e8 00 00 00 00       	call   37f <apm_sub+0x7f>
     37f:	48 85 db             	test   rbx,rbx
     382:	75 0b                	jne    38f <apm_sub+0x8f>
     384:	5b                   	pop    rbx
     385:	31 c0                	xor    eax,eax
     387:	41 5c                	pop    r12
     389:	41 5d                	pop    r13
     38b:	41 5e                	pop    r14
     38d:	5d                   	pop    rbp
     38e:	c3                   	ret    
     38f:	49 8b 04 24          	mov    rax,QWORD PTR [r12]
     393:	48 8d 50 ff          	lea    rdx,[rax-0x1]
     397:	48 85 c0             	test   rax,rax
     39a:	49 89 14 24          	mov    QWORD PTR [r12],rdx
     39e:	75 e4                	jne    384 <apm_sub+0x84>
     3a0:	41 83 fd 01          	cmp    r13d,0x1
     3a4:	74 68                	je     40e <apm_sub+0x10e>
     3a6:	41 8d 45 fe          	lea    eax,[r13-0x2]
     3aa:	49 8d 4c c4 08       	lea    rcx,[r12+rax*8+0x8]
     3af:	eb 05                	jmp    3b6 <apm_sub+0xb6>
     3b1:	4c 39 e1             	cmp    rcx,r12
     3b4:	74 58                	je     40e <apm_sub+0x10e>
     3b6:	49 83 c4 08          	add    r12,0x8
     3ba:	49 8b 04 24          	mov    rax,QWORD PTR [r12]
     3be:	48 8d 50 ff          	lea    rdx,[rax-0x1]
     3c2:	48 85 c0             	test   rax,rax
     3c5:	49 89 14 24          	mov    QWORD PTR [r12],rdx
     3c9:	74 e6                	je     3b1 <apm_sub+0xb1>
     3cb:	eb b7                	jmp    384 <apm_sub+0x84>
     3cd:	85 f6                	test   esi,esi
     3cf:	8d 46 ff             	lea    eax,[rsi-0x1]
     3d2:	74 37                	je     40b <apm_sub+0x10b>
     3d4:	4c 8d 1c c5 08 00 00 	lea    r11,[rax*8+0x8]
     3db:	00 
     3dc:	31 c9                	xor    ecx,ecx
     3de:	31 c0                	xor    eax,eax
     3e0:	45 31 d2             	xor    r10d,r10d
     3e3:	48 03 04 0a          	add    rax,QWORD PTR [rdx+rcx*1]
     3e7:	48 8b 34 0f          	mov    rsi,QWORD PTR [rdi+rcx*1]
     3eb:	49 89 f1             	mov    r9,rsi
     3ee:	41 0f 92 c2          	setb   r10b
     3f2:	49 29 c1             	sub    r9,rax
     3f5:	4c 89 d0             	mov    rax,r10
     3f8:	4d 89 0c 08          	mov    QWORD PTR [r8+rcx*1],r9
     3fc:	48 83 d0 00          	adc    rax,0x0
     400:	48 83 c1 08          	add    rcx,0x8
     404:	49 39 cb             	cmp    r11,rcx
     407:	75 d7                	jne    3e0 <apm_sub+0xe0>
     409:	f3 c3                	repz ret 
     40b:	31 c0                	xor    eax,eax
     40d:	c3                   	ret    
     40e:	5b                   	pop    rbx
     40f:	b8 01 00 00 00       	mov    eax,0x1
     414:	41 5c                	pop    r12
     416:	41 5d                	pop    r13
     418:	41 5e                	pop    r14
     41a:	5d                   	pop    rbp
     41b:	c3                   	ret    
     41c:	4c 89 e7             	mov    rdi,r12
     41f:	e8 00 00 00 00       	call   424 <apm_sub+0x124>
     424:	e9 5b ff ff ff       	jmp    384 <apm_sub+0x84>
     429:	0f 1f 80 00 00 00 00 	nop    DWORD PTR [rax+0x0]

0000000000000430 <apm_subi_n>:
     430:	e8 00 00 00 00       	call   435 <apm_subi_n+0x5>
     435:	55                   	push   rbp
     436:	85 d2                	test   edx,edx
     438:	48 89 e5             	mov    rbp,rsp
     43b:	74 3a                	je     477 <apm_subi_n+0x47>
     43d:	8d 42 ff             	lea    eax,[rdx-0x1]
     440:	31 d2                	xor    edx,edx
     442:	4c 8d 14 c5 08 00 00 	lea    r10,[rax*8+0x8]
     449:	00 
     44a:	31 c0                	xor    eax,eax
     44c:	45 31 c0             	xor    r8d,r8d
     44f:	48 03 04 16          	add    rax,QWORD PTR [rsi+rdx*1]
     453:	48 8b 0c 17          	mov    rcx,QWORD PTR [rdi+rdx*1]
     457:	49 89 c9             	mov    r9,rcx
     45a:	41 0f 92 c0          	setb   r8b
     45e:	49 29 c1             	sub    r9,rax
     461:	4c 89 c0             	mov    rax,r8
     464:	4c 89 0c 17          	mov    QWORD PTR [rdi+rdx*1],r9
     468:	48 83 d0 00          	adc    rax,0x0
     46c:	48 83 c2 08          	add    rdx,0x8
     470:	49 39 d2             	cmp    r10,rdx
     473:	75 d7                	jne    44c <apm_subi_n+0x1c>
     475:	5d                   	pop    rbp
     476:	c3                   	ret    
     477:	31 c0                	xor    eax,eax
     479:	5d                   	pop    rbp
     47a:	c3                   	ret    
     47b:	0f 1f 44 00 00       	nop    DWORD PTR [rax+rax*1+0x0]

0000000000000480 <apm_subi>:
     480:	e8 00 00 00 00       	call   485 <apm_subi+0x5>
     485:	85 c9                	test   ecx,ecx
     487:	0f 84 90 00 00 00    	je     51d <apm_subi+0x9d>
     48d:	55                   	push   rbp
     48e:	8d 41 ff             	lea    eax,[rcx-0x1]
     491:	45 31 c0             	xor    r8d,r8d
     494:	48 89 e5             	mov    rbp,rsp
     497:	53                   	push   rbx
     498:	48 8d 1c c5 08 00 00 	lea    rbx,[rax*8+0x8]
     49f:	00 
     4a0:	31 c0                	xor    eax,eax
     4a2:	45 31 d2             	xor    r10d,r10d
     4a5:	4a 03 04 02          	add    rax,QWORD PTR [rdx+r8*1]
     4a9:	4e 8b 0c 07          	mov    r9,QWORD PTR [rdi+r8*1]
     4ad:	4d 89 cb             	mov    r11,r9
     4b0:	41 0f 92 c2          	setb   r10b
     4b4:	49 29 c3             	sub    r11,rax
     4b7:	4c 89 d0             	mov    rax,r10
     4ba:	4e 89 1c 07          	mov    QWORD PTR [rdi+r8*1],r11
     4be:	48 83 d0 00          	adc    rax,0x0
     4c2:	49 83 c0 08          	add    r8,0x8
     4c6:	4c 39 c3             	cmp    rbx,r8
     4c9:	75 d7                	jne    4a2 <apm_subi+0x22>
     4cb:	48 85 c0             	test   rax,rax
     4ce:	74 48                	je     518 <apm_subi+0x98>
     4d0:	29 ce                	sub    esi,ecx
     4d2:	75 08                	jne    4dc <apm_subi+0x5c>
     4d4:	b8 01 00 00 00       	mov    eax,0x1
     4d9:	5b                   	pop    rbx
     4da:	5d                   	pop    rbp
     4db:	c3                   	ret    
     4dc:	89 c9                	mov    ecx,ecx
     4de:	48 8d 04 cf          	lea    rax,[rdi+rcx*8]
     4e2:	48 8b 10             	mov    rdx,QWORD PTR [rax]
     4e5:	48 8d 4a ff          	lea    rcx,[rdx-0x1]
     4e9:	48 85 d2             	test   rdx,rdx
     4ec:	48 89 08             	mov    QWORD PTR [rax],rcx
     4ef:	75 27                	jne    518 <apm_subi+0x98>
     4f1:	83 fe 01             	cmp    esi,0x1
     4f4:	74 de                	je     4d4 <apm_subi+0x54>
     4f6:	8d 56 fe             	lea    edx,[rsi-0x2]
     4f9:	48 8d 74 d0 08       	lea    rsi,[rax+rdx*8+0x8]
     4fe:	eb 05                	jmp    505 <apm_subi+0x85>
     500:	48 39 f0             	cmp    rax,rsi
     503:	74 cf                	je     4d4 <apm_subi+0x54>
     505:	48 83 c0 08          	add    rax,0x8
     509:	48 8b 10             	mov    rdx,QWORD PTR [rax]
     50c:	48 8d 4a ff          	lea    rcx,[rdx-0x1]
     510:	48 85 d2             	test   rdx,rdx
     513:	48 89 08             	mov    QWORD PTR [rax],rcx
     516:	74 e8                	je     500 <apm_subi+0x80>
     518:	31 c0                	xor    eax,eax
     51a:	5b                   	pop    rbx
     51b:	5d                   	pop    rbp
     51c:	c3                   	ret    
     51d:	31 c0                	xor    eax,eax
     51f:	c3                   	ret    

0000000000000520 <apm_dmul>:
     520:	e8 00 00 00 00       	call   525 <apm_dmul+0x5>
     525:	55                   	push   rbp
     526:	48 83 fa 01          	cmp    rdx,0x1
     52a:	49 89 d2             	mov    r10,rdx
     52d:	48 89 e5             	mov    rbp,rsp
     530:	76 38                	jbe    56a <apm_dmul+0x4a>
     532:	85 f6                	test   esi,esi
     534:	8d 46 ff             	lea    eax,[rsi-0x1]
     537:	74 45                	je     57e <apm_dmul+0x5e>
     539:	48 8d 34 c5 08 00 00 	lea    rsi,[rax*8+0x8]
     540:	00 
     541:	45 31 c0             	xor    r8d,r8d
     544:	45 31 c9             	xor    r9d,r9d
     547:	4a 8b 04 07          	mov    rax,QWORD PTR [rdi+r8*1]
     54b:	49 f7 e2             	mul    r10
     54e:	4c 01 c8             	add    rax,r9
     551:	48 83 d2 00          	adc    rdx,0x0
     555:	4a 89 04 01          	mov    QWORD PTR [rcx+r8*1],rax
     559:	49 83 c0 08          	add    r8,0x8
     55d:	49 39 f0             	cmp    r8,rsi
     560:	49 89 d1             	mov    r9,rdx
     563:	75 e2                	jne    547 <apm_dmul+0x27>
     565:	4c 89 c8             	mov    rax,r9
     568:	5d                   	pop    rbp
     569:	c3                   	ret    
     56a:	89 f2                	mov    edx,esi
     56c:	c1 e2 03             	shl    edx,0x3
     56f:	4d 85 d2             	test   r10,r10
     572:	75 12                	jne    586 <apm_dmul+0x66>
     574:	31 f6                	xor    esi,esi
     576:	48 89 cf             	mov    rdi,rcx
     579:	e8 00 00 00 00       	call   57e <apm_dmul+0x5e>
     57e:	45 31 c9             	xor    r9d,r9d
     581:	4c 89 c8             	mov    rax,r9
     584:	5d                   	pop    rbp
     585:	c3                   	ret    
     586:	48 89 fe             	mov    rsi,rdi
     589:	48 89 cf             	mov    rdi,rcx
     58c:	e8 00 00 00 00       	call   591 <apm_dmul+0x71>
     591:	45 31 c9             	xor    r9d,r9d
     594:	4c 89 c8             	mov    rax,r9
     597:	5d                   	pop    rbp
     598:	c3                   	ret    
     599:	0f 1f 80 00 00 00 00 	nop    DWORD PTR [rax+0x0]

00000000000005a0 <apm_dmul_add>:
     5a0:	e8 00 00 00 00       	call   5a5 <apm_dmul_add+0x5>
     5a5:	48 83 fa 01          	cmp    rdx,0x1
     5a9:	49 89 d1             	mov    r9,rdx
     5ac:	76 49                	jbe    5f7 <apm_dmul_add+0x57>
     5ae:	45 31 c0             	xor    r8d,r8d
     5b1:	85 f6                	test   esi,esi
     5b3:	8d 46 ff             	lea    eax,[rsi-0x1]
     5b6:	74 7e                	je     636 <apm_dmul_add+0x96>
     5b8:	55                   	push   rbp
     5b9:	4c 8d 14 c5 08 00 00 	lea    r10,[rax*8+0x8]
     5c0:	00 
     5c1:	31 f6                	xor    esi,esi
     5c3:	45 31 c0             	xor    r8d,r8d
     5c6:	48 89 e5             	mov    rbp,rsp
     5c9:	48 8b 04 37          	mov    rax,QWORD PTR [rdi+rsi*1]
     5cd:	49 f7 e1             	mul    r9
     5d0:	4c 01 c0             	add    rax,r8
     5d3:	48 83 d2 00          	adc    rdx,0x0
     5d7:	45 31 c0             	xor    r8d,r8d
     5da:	48 03 04 31          	add    rax,QWORD PTR [rcx+rsi*1]
     5de:	41 0f 92 c0          	setb   r8b
     5e2:	48 89 04 31          	mov    QWORD PTR [rcx+rsi*1],rax
     5e6:	48 83 c6 08          	add    rsi,0x8
     5ea:	49 01 d0             	add    r8,rdx
     5ed:	49 39 f2             	cmp    r10,rsi
     5f0:	75 d7                	jne    5c9 <apm_dmul_add+0x29>
     5f2:	4c 89 c0             	mov    rax,r8
     5f5:	5d                   	pop    rbp
     5f6:	c3                   	ret    
     5f7:	45 31 c0             	xor    r8d,r8d
     5fa:	48 85 d2             	test   rdx,rdx
     5fd:	74 37                	je     636 <apm_dmul_add+0x96>
     5ff:	85 f6                	test   esi,esi
     601:	8d 46 ff             	lea    eax,[rsi-0x1]
     604:	74 30                	je     636 <apm_dmul_add+0x96>
     606:	48 8d 14 c5 08 00 00 	lea    rdx,[rax*8+0x8]
     60d:	00 
     60e:	31 f6                	xor    esi,esi
     610:	4c 89 c0             	mov    rax,r8
     613:	45 31 c9             	xor    r9d,r9d
     616:	48 03 04 31          	add    rax,QWORD PTR [rcx+rsi*1]
     61a:	41 0f 92 c1          	setb   r9b
     61e:	48 03 04 37          	add    rax,QWORD PTR [rdi+rsi*1]
     622:	49 83 d1 00          	adc    r9,0x0
     626:	48 89 04 31          	mov    QWORD PTR [rcx+rsi*1],rax
     62a:	48 83 c6 08          	add    rsi,0x8
     62e:	48 39 f2             	cmp    rdx,rsi
     631:	4d 89 c8             	mov    r8,r9
     634:	75 da                	jne    610 <apm_dmul_add+0x70>
     636:	4c 89 c0             	mov    rax,r8
     639:	c3                   	ret    
     63a:	66 0f 1f 44 00 00    	nop    WORD PTR [rax+rax*1+0x0]

0000000000000640 <apm_lshift>:
     640:	e8 00 00 00 00       	call   645 <apm_lshift+0x5>
     645:	55                   	push   rbp
     646:	48 89 e5             	mov    rbp,rsp
     649:	53                   	push   rbx
     64a:	31 db                	xor    ebx,ebx
     64c:	85 f6                	test   esi,esi
     64e:	74 44                	je     694 <apm_lshift+0x54>
     650:	83 e2 3f             	and    edx,0x3f
     653:	49 89 ca             	mov    r10,rcx
     656:	74 42                	je     69a <apm_lshift+0x5a>
     658:	8d 46 ff             	lea    eax,[rsi-0x1]
     65b:	41 bb 40 00 00 00    	mov    r11d,0x40
     661:	45 31 c0             	xor    r8d,r8d
     664:	41 29 d3             	sub    r11d,edx
     667:	48 8d 34 c5 08 00 00 	lea    rsi,[rax*8+0x8]
     66e:	00 
     66f:	4e 8b 0c 07          	mov    r9,QWORD PTR [rdi+r8*1]
     673:	89 d1                	mov    ecx,edx
     675:	4c 89 c8             	mov    rax,r9
     678:	48 d3 e0             	shl    rax,cl
     67b:	44 89 d9             	mov    ecx,r11d
     67e:	48 09 d8             	or     rax,rbx
     681:	4c 89 cb             	mov    rbx,r9
     684:	4b 89 04 02          	mov    QWORD PTR [r10+r8*1],rax
     688:	49 83 c0 08          	add    r8,0x8
     68c:	48 d3 eb             	shr    rbx,cl
     68f:	49 39 f0             	cmp    r8,rsi
     692:	75 db                	jne    66f <apm_lshift+0x2f>
     694:	48 89 d8             	mov    rax,rbx
     697:	5b                   	pop    rbx
     698:	5d                   	pop    rbp
     699:	c3                   	ret    
     69a:	48 39 cf             	cmp    rdi,rcx
     69d:	74 f5                	je     694 <apm_lshift+0x54>
     69f:	89 f2                	mov    edx,esi
     6a1:	48 89 fe             	mov    rsi,rdi
     6a4:	48 89 cf             	mov    rdi,rcx
     6a7:	c1 e2 03             	shl    edx,0x3
     6aa:	e8 00 00 00 00       	call   6af <apm_lshift+0x6f>
     6af:	48 89 d8             	mov    rax,rbx
     6b2:	5b                   	pop    rbx
     6b3:	5d                   	pop    rbp
     6b4:	c3                   	ret    
     6b5:	90                   	nop
     6b6:	66 2e 0f 1f 84 00 00 	nop    WORD PTR cs:[rax+rax*1+0x0]
     6bd:	00 00 00 

00000000000006c0 <apm_lshifti>:
     6c0:	e8 00 00 00 00       	call   6c5 <apm_lshifti+0x5>
     6c5:	55                   	push   rbp
     6c6:	83 e2 3f             	and    edx,0x3f
     6c9:	85 f6                	test   esi,esi
     6cb:	48 89 e5             	mov    rbp,rsp
     6ce:	74 41                	je     711 <apm_lshifti+0x51>
     6d0:	85 d2                	test   edx,edx
     6d2:	74 3d                	je     711 <apm_lshifti+0x51>
     6d4:	8d 46 ff             	lea    eax,[rsi-0x1]
     6d7:	41 b9 40 00 00 00    	mov    r9d,0x40
     6dd:	45 31 c0             	xor    r8d,r8d
     6e0:	41 29 d1             	sub    r9d,edx
     6e3:	4c 8d 54 c7 08       	lea    r10,[rdi+rax*8+0x8]
     6e8:	48 8b 37             	mov    rsi,QWORD PTR [rdi]
     6eb:	89 d1                	mov    ecx,edx
     6ed:	48 83 c7 08          	add    rdi,0x8
     6f1:	48 89 f0             	mov    rax,rsi
     6f4:	48 d3 e0             	shl    rax,cl
     6f7:	44 89 c9             	mov    ecx,r9d
     6fa:	4c 09 c0             	or     rax,r8
     6fd:	48 d3 ee             	shr    rsi,cl
     700:	48 89 47 f8          	mov    QWORD PTR [rdi-0x8],rax
     704:	4c 39 d7             	cmp    rdi,r10
     707:	49 89 f0             	mov    r8,rsi
     70a:	75 dc                	jne    6e8 <apm_lshifti+0x28>
     70c:	4c 89 c0             	mov    rax,r8
     70f:	5d                   	pop    rbp
     710:	c3                   	ret    
     711:	45 31 c0             	xor    r8d,r8d
     714:	4c 89 c0             	mov    rax,r8
     717:	5d                   	pop    rbp
     718:	c3                   	ret    
     719:	0f 1f 80 00 00 00 00 	nop    DWORD PTR [rax+0x0]

0000000000000720 <apm_rshifti>:
     720:	e8 00 00 00 00       	call   725 <apm_rshifti+0x5>
     725:	55                   	push   rbp
     726:	83 e2 3f             	and    edx,0x3f
     729:	85 f6                	test   esi,esi
     72b:	48 89 e5             	mov    rbp,rsp
     72e:	74 4b                	je     77b <apm_rshifti+0x5b>
     730:	85 d2                	test   edx,edx
     732:	74 47                	je     77b <apm_rshifti+0x5b>
     734:	89 f0                	mov    eax,esi
     736:	41 b9 40 00 00 00    	mov    r9d,0x40
     73c:	45 31 c0             	xor    r8d,r8d
     73f:	48 8d 3c c7          	lea    rdi,[rdi+rax*8]
     743:	8d 46 ff             	lea    eax,[rsi-0x1]
     746:	41 29 d1             	sub    r9d,edx
     749:	48 f7 d0             	not    rax
     74c:	4c 8d 14 c7          	lea    r10,[rdi+rax*8]
     750:	48 83 ef 08          	sub    rdi,0x8
     754:	48 8b 37             	mov    rsi,QWORD PTR [rdi]
     757:	89 d1                	mov    ecx,edx
     759:	48 89 f0             	mov    rax,rsi
     75c:	48 d3 e8             	shr    rax,cl
     75f:	44 89 c9             	mov    ecx,r9d
     762:	4c 09 c0             	or     rax,r8
     765:	48 d3 e6             	shl    rsi,cl
     768:	49 39 fa             	cmp    r10,rdi
     76b:	48 89 07             	mov    QWORD PTR [rdi],rax
     76e:	49 89 f0             	mov    r8,rsi
     771:	75 dd                	jne    750 <apm_rshifti+0x30>
     773:	48 89 f0             	mov    rax,rsi
     776:	48 d3 e8             	shr    rax,cl
     779:	5d                   	pop    rbp
     77a:	c3                   	ret    
     77b:	31 c0                	xor    eax,eax
     77d:	5d                   	pop    rbp
     77e:	c3                   	ret    
     77f:	90                   	nop

0000000000000780 <apm_cmp_n>:
     780:	e8 00 00 00 00       	call   785 <apm_cmp_n+0x5>
     785:	89 d2                	mov    edx,edx
     787:	55                   	push   rbp
     788:	48 8d 04 d5 00 00 00 	lea    rax,[rdx*8+0x0]
     78f:	00 
     790:	48 f7 da             	neg    rdx
     793:	48 89 e5             	mov    rbp,rsp
     796:	48 01 c7             	add    rdi,rax
     799:	48 01 c6             	add    rsi,rax
     79c:	48 8d 04 d7          	lea    rax,[rdi+rdx*8]
     7a0:	eb 12                	jmp    7b4 <apm_cmp_n+0x34>
     7a2:	48 83 ee 08          	sub    rsi,0x8
     7a6:	48 83 ef 08          	sub    rdi,0x8
     7aa:	48 8b 0e             	mov    rcx,QWORD PTR [rsi]
     7ad:	48 39 0f             	cmp    QWORD PTR [rdi],rcx
     7b0:	72 0b                	jb     7bd <apm_cmp_n+0x3d>
     7b2:	77 10                	ja     7c4 <apm_cmp_n+0x44>
     7b4:	48 39 c7             	cmp    rdi,rax
     7b7:	75 e9                	jne    7a2 <apm_cmp_n+0x22>
     7b9:	31 c0                	xor    eax,eax
     7bb:	5d                   	pop    rbp
     7bc:	c3                   	ret    
     7bd:	b8 ff ff ff ff       	mov    eax,0xffffffff
     7c2:	5d                   	pop    rbp
     7c3:	c3                   	ret    
     7c4:	b8 01 00 00 00       	mov    eax,0x1
     7c9:	5d                   	pop    rbp
     7ca:	c3                   	ret    
     7cb:	0f 1f 44 00 00       	nop    DWORD PTR [rax+rax*1+0x0]

00000000000007d0 <apm_cmp>:
     7d0:	e8 00 00 00 00       	call   7d5 <apm_cmp+0x5>
     7d5:	55                   	push   rbp
     7d6:	85 f6                	test   esi,esi
     7d8:	48 89 e5             	mov    rbp,rsp
     7db:	74 29                	je     806 <apm_cmp+0x36>
     7dd:	8d 46 ff             	lea    eax,[rsi-0x1]
     7e0:	48 83 3c c7 00       	cmp    QWORD PTR [rdi+rax*8],0x0
     7e5:	49 89 c0             	mov    r8,rax
     7e8:	74 17                	je     801 <apm_cmp+0x31>
     7ea:	e9 98 00 00 00       	jmp    887 <apm_cmp+0xb7>
     7ef:	41 8d 70 ff          	lea    esi,[r8-0x1]
     7f3:	48 83 3c f7 00       	cmp    QWORD PTR [rdi+rsi*8],0x0
     7f8:	0f 85 8c 00 00 00    	jne    88a <apm_cmp+0xba>
     7fe:	41 89 f0             	mov    r8d,esi
     801:	45 85 c0             	test   r8d,r8d
     804:	75 e9                	jne    7ef <apm_cmp+0x1f>
     806:	45 31 c0             	xor    r8d,r8d
     809:	85 c9                	test   ecx,ecx
     80b:	74 68                	je     875 <apm_cmp+0xa5>
     80d:	8d 41 ff             	lea    eax,[rcx-0x1]
     810:	48 83 3c c2 00       	cmp    QWORD PTR [rdx+rax*8],0x0
     815:	48 89 c6             	mov    rsi,rax
     818:	74 0e                	je     828 <apm_cmp+0x58>
     81a:	eb 5d                	jmp    879 <apm_cmp+0xa9>
     81c:	8d 4e ff             	lea    ecx,[rsi-0x1]
     81f:	48 83 3c ca 00       	cmp    QWORD PTR [rdx+rcx*8],0x0
     824:	75 55                	jne    87b <apm_cmp+0xab>
     826:	89 ce                	mov    esi,ecx
     828:	85 f6                	test   esi,esi
     82a:	75 f0                	jne    81c <apm_cmp+0x4c>
     82c:	44 39 c6             	cmp    esi,r8d
     82f:	b8 01 00 00 00       	mov    eax,0x1
     834:	72 41                	jb     877 <apm_cmp+0xa7>
     836:	31 c0                	xor    eax,eax
     838:	45 85 c0             	test   r8d,r8d
     83b:	74 3a                	je     877 <apm_cmp+0xa7>
     83d:	44 89 c0             	mov    eax,r8d
     840:	48 c1 e0 03          	shl    rax,0x3
     844:	48 01 c7             	add    rdi,rax
     847:	48 01 c2             	add    rdx,rax
     84a:	41 8d 40 ff          	lea    eax,[r8-0x1]
     84e:	48 f7 d8             	neg    rax
     851:	48 8d 0c c5 f0 ff ff 	lea    rcx,[rax*8-0x10]
     858:	ff 
     859:	48 c7 c0 f8 ff ff ff 	mov    rax,0xfffffffffffffff8
     860:	48 8b 34 02          	mov    rsi,QWORD PTR [rdx+rax*1]
     864:	48 39 34 07          	cmp    QWORD PTR [rdi+rax*1],rsi
     868:	72 16                	jb     880 <apm_cmp+0xb0>
     86a:	77 32                	ja     89e <apm_cmp+0xce>
     86c:	48 83 e8 08          	sub    rax,0x8
     870:	48 39 c1             	cmp    rcx,rax
     873:	75 eb                	jne    860 <apm_cmp+0x90>
     875:	31 c0                	xor    eax,eax
     877:	5d                   	pop    rbp
     878:	c3                   	ret    
     879:	89 ce                	mov    esi,ecx
     87b:	44 39 c6             	cmp    esi,r8d
     87e:	76 ac                	jbe    82c <apm_cmp+0x5c>
     880:	b8 ff ff ff ff       	mov    eax,0xffffffff
     885:	5d                   	pop    rbp
     886:	c3                   	ret    
     887:	41 89 f0             	mov    r8d,esi
     88a:	85 c9                	test   ecx,ecx
     88c:	0f 85 7b ff ff ff    	jne    80d <apm_cmp+0x3d>
     892:	45 85 c0             	test   r8d,r8d
     895:	b8 01 00 00 00       	mov    eax,0x1
     89a:	74 a1                	je     83d <apm_cmp+0x6d>
     89c:	5d                   	pop    rbp
     89d:	c3                   	ret    
     89e:	b8 01 00 00 00       	mov    eax,0x1
     8a3:	5d                   	pop    rbp
     8a4:	c3                   	ret    
     8a5:	66 2e 0f 1f 84 00 00 	nop    WORD PTR cs:[rax+rax*1+0x0]
     8ac:	00 00 00 
     8af:	90                   	nop

00000000000008b0 <bn_set>:
     8b0:	e8 00 00 00 00       	call   8b5 <bn_set+0x5>
     8b5:	48 39 f7             	cmp    rdi,rsi
     8b8:	74 5c                	je     916 <bn_set+0x66>
     8ba:	8b 56 08             	mov    edx,DWORD PTR [rsi+0x8]
     8bd:	85 d2                	test   edx,edx
     8bf:	74 49                	je     90a <bn_set+0x5a>
     8c1:	55                   	push   rbp
     8c2:	48 89 e5             	mov    rbp,rsp
     8c5:	41 54                	push   r12
     8c7:	53                   	push   rbx
     8c8:	48 89 fb             	mov    rbx,rdi
     8cb:	89 57 08             	mov    DWORD PTR [rdi+0x8],edx
     8ce:	49 89 f4             	mov    r12,rsi
     8d1:	3b 53 0c             	cmp    edx,DWORD PTR [rbx+0xc]
     8d4:	48 8b 3f             	mov    rdi,QWORD PTR [rdi]
     8d7:	77 3f                	ja     918 <bn_set+0x68>
     8d9:	41 8b 44 24 08       	mov    eax,DWORD PTR [r12+0x8]
     8de:	49 8b 34 24          	mov    rsi,QWORD PTR [r12]
     8e2:	8d 14 c5 00 00 00 00 	lea    edx,[rax*8+0x0]
     8e9:	e8 00 00 00 00       	call   8ee <bn_set+0x3e>
     8ee:	41 0f b6 44 24 10    	movzx  eax,BYTE PTR [r12+0x10]
     8f4:	83 e0 01             	and    eax,0x1
     8f7:	89 c2                	mov    edx,eax
     8f9:	0f b6 43 10          	movzx  eax,BYTE PTR [rbx+0x10]
     8fd:	83 e0 fe             	and    eax,0xfffffffe
     900:	09 d0                	or     eax,edx
     902:	88 43 10             	mov    BYTE PTR [rbx+0x10],al
     905:	5b                   	pop    rbx
     906:	41 5c                	pop    r12
     908:	5d                   	pop    rbp
     909:	c3                   	ret    
     90a:	80 67 10 fe          	and    BYTE PTR [rdi+0x10],0xfe
     90e:	c7 47 08 00 00 00 00 	mov    DWORD PTR [rdi+0x8],0x0
     915:	c3                   	ret    
     916:	f3 c3                	repz ret 
     918:	83 c2 03             	add    edx,0x3
     91b:	83 e2 fc             	and    edx,0xfffffffc
     91e:	48 85 ff             	test   rdi,rdi
     921:	89 53 0c             	mov    DWORD PTR [rbx+0xc],edx
     924:	8d 0c d5 00 00 00 00 	lea    ecx,[rdx*8+0x0]
     92b:	74 15                	je     942 <bn_set+0x92>
     92d:	ba c0 0c 00 00       	mov    edx,0xcc0
     932:	48 89 ce             	mov    rsi,rcx
     935:	e8 00 00 00 00       	call   93a <bn_set+0x8a>
     93a:	48 89 c7             	mov    rdi,rax
     93d:	48 89 3b             	mov    QWORD PTR [rbx],rdi
     940:	eb 97                	jmp    8d9 <bn_set+0x29>
     942:	48 89 cf             	mov    rdi,rcx
     945:	be c0 0c 00 00       	mov    esi,0xcc0
     94a:	e8 00 00 00 00       	call   94f <bn_set+0x9f>
     94f:	48 89 c7             	mov    rdi,rax
     952:	eb e9                	jmp    93d <bn_set+0x8d>
     954:	66 90                	xchg   ax,ax
     956:	66 2e 0f 1f 84 00 00 	nop    WORD PTR cs:[rax+rax*1+0x0]
     95d:	00 00 00 

0000000000000960 <bn_init>:
     960:	e8 00 00 00 00       	call   965 <bn_init+0x5>
     965:	55                   	push   rbp
     966:	ba 08 00 00 00       	mov    edx,0x8
     96b:	be c0 0c 00 00       	mov    esi,0xcc0
     970:	48 89 e5             	mov    rbp,rsp
     973:	53                   	push   rbx
     974:	48 89 fb             	mov    rbx,rdi
     977:	c7 47 0c 01 00 00 00 	mov    DWORD PTR [rdi+0xc],0x1
     97e:	48 8b 3d 00 00 00 00 	mov    rdi,QWORD PTR [rip+0x0]        # 985 <bn_init+0x25>
     985:	e8 00 00 00 00       	call   98a <bn_init+0x2a>
     98a:	c7 43 08 00 00 00 00 	mov    DWORD PTR [rbx+0x8],0x0
     991:	48 c7 00 00 00 00 00 	mov    QWORD PTR [rax],0x0
     998:	48 89 03             	mov    QWORD PTR [rbx],rax
     99b:	80 63 10 fe          	and    BYTE PTR [rbx+0x10],0xfe
     99f:	5b                   	pop    rbx
     9a0:	5d                   	pop    rbp
     9a1:	c3                   	ret    
     9a2:	0f 1f 40 00          	nop    DWORD PTR [rax+0x0]
     9a6:	66 2e 0f 1f 84 00 00 	nop    WORD PTR cs:[rax+rax*1+0x0]
     9ad:	00 00 00 

00000000000009b0 <bn_init_u32>:
     9b0:	e8 00 00 00 00       	call   9b5 <bn_init_u32+0x5>
     9b5:	55                   	push   rbp
     9b6:	ba 08 00 00 00       	mov    edx,0x8
     9bb:	48 89 e5             	mov    rbp,rsp
     9be:	41 54                	push   r12
     9c0:	53                   	push   rbx
     9c1:	48 89 fb             	mov    rbx,rdi
     9c4:	c7 47 0c 01 00 00 00 	mov    DWORD PTR [rdi+0xc],0x1
     9cb:	48 8b 3d 00 00 00 00 	mov    rdi,QWORD PTR [rip+0x0]        # 9d2 <bn_init_u32+0x22>
     9d2:	41 89 f4             	mov    r12d,esi
     9d5:	be c0 0c 00 00       	mov    esi,0xcc0
     9da:	e8 00 00 00 00       	call   9df <bn_init_u32+0x2f>
     9df:	80 63 10 fe          	and    BYTE PTR [rbx+0x10],0xfe
     9e3:	45 85 e4             	test   r12d,r12d
     9e6:	48 c7 00 00 00 00 00 	mov    QWORD PTR [rax],0x0
     9ed:	48 89 03             	mov    QWORD PTR [rbx],rax
     9f0:	c7 43 08 00 00 00 00 	mov    DWORD PTR [rbx+0x8],0x0
     9f7:	75 05                	jne    9fe <bn_init_u32+0x4e>
     9f9:	5b                   	pop    rbx
     9fa:	41 5c                	pop    r12
     9fc:	5d                   	pop    rbp
     9fd:	c3                   	ret    
     9fe:	8b 53 0c             	mov    edx,DWORD PTR [rbx+0xc]
     a01:	c7 43 08 01 00 00 00 	mov    DWORD PTR [rbx+0x8],0x1
     a08:	85 d2                	test   edx,edx
     a0a:	74 0b                	je     a17 <bn_init_u32+0x67>
     a0c:	44 89 e1             	mov    ecx,r12d
     a0f:	48 89 08             	mov    QWORD PTR [rax],rcx
     a12:	5b                   	pop    rbx
     a13:	41 5c                	pop    r12
     a15:	5d                   	pop    rbp
     a16:	c3                   	ret    
     a17:	48 85 c0             	test   rax,rax
     a1a:	c7 43 0c 04 00 00 00 	mov    DWORD PTR [rbx+0xc],0x4
     a21:	74 17                	je     a3a <bn_init_u32+0x8a>
     a23:	ba c0 0c 00 00       	mov    edx,0xcc0
     a28:	be 20 00 00 00       	mov    esi,0x20
     a2d:	48 89 c7             	mov    rdi,rax
     a30:	e8 00 00 00 00       	call   a35 <bn_init_u32+0x85>
     a35:	48 89 03             	mov    QWORD PTR [rbx],rax
     a38:	eb d2                	jmp    a0c <bn_init_u32+0x5c>
     a3a:	48 8b 3d 00 00 00 00 	mov    rdi,QWORD PTR [rip+0x0]        # a41 <bn_init_u32+0x91>
     a41:	ba 20 00 00 00       	mov    edx,0x20
     a46:	be c0 0c 00 00       	mov    esi,0xcc0
     a4b:	e8 00 00 00 00       	call   a50 <bn_init_u32+0xa0>
     a50:	eb e3                	jmp    a35 <bn_init_u32+0x85>
     a52:	0f 1f 40 00          	nop    DWORD PTR [rax+0x0]
     a56:	66 2e 0f 1f 84 00 00 	nop    WORD PTR cs:[rax+rax*1+0x0]
     a5d:	00 00 00 

0000000000000a60 <bn_free>:
     a60:	e8 00 00 00 00       	call   a65 <bn_free+0x5>
     a65:	55                   	push   rbp
     a66:	48 8b 3f             	mov    rdi,QWORD PTR [rdi]
     a69:	48 89 e5             	mov    rbp,rsp
     a6c:	e8 00 00 00 00       	call   a71 <bn_free+0x11>
     a71:	5d                   	pop    rbp
     a72:	c3                   	ret    
     a73:	0f 1f 00             	nop    DWORD PTR [rax]
     a76:	66 2e 0f 1f 84 00 00 	nop    WORD PTR cs:[rax+rax*1+0x0]
     a7d:	00 00 00 

0000000000000a80 <bn_zero>:
     a80:	e8 00 00 00 00       	call   a85 <bn_zero+0x5>
     a85:	55                   	push   rbp
     a86:	80 67 10 fe          	and    BYTE PTR [rdi+0x10],0xfe
     a8a:	c7 47 08 00 00 00 00 	mov    DWORD PTR [rdi+0x8],0x0
     a91:	48 89 e5             	mov    rbp,rsp
     a94:	5d                   	pop    rbp
     a95:	c3                   	ret    
     a96:	66 2e 0f 1f 84 00 00 	nop    WORD PTR cs:[rax+rax*1+0x0]
     a9d:	00 00 00 

0000000000000aa0 <bn_set_u32>:
     aa0:	e8 00 00 00 00       	call   aa5 <bn_set_u32+0x5>
     aa5:	80 67 10 fe          	and    BYTE PTR [rdi+0x10],0xfe
     aa9:	85 f6                	test   esi,esi
     aab:	74 29                	je     ad6 <bn_set_u32+0x36>
     aad:	55                   	push   rbp
     aae:	48 89 e5             	mov    rbp,rsp
     ab1:	41 54                	push   r12
     ab3:	41 89 f4             	mov    r12d,esi
     ab6:	53                   	push   rbx
     ab7:	8b 57 0c             	mov    edx,DWORD PTR [rdi+0xc]
     aba:	48 89 fb             	mov    rbx,rdi
     abd:	c7 47 08 01 00 00 00 	mov    DWORD PTR [rdi+0x8],0x1
     ac4:	48 8b 07             	mov    rax,QWORD PTR [rdi]
     ac7:	85 d2                	test   edx,edx
     ac9:	74 13                	je     ade <bn_set_u32+0x3e>
     acb:	44 89 e1             	mov    ecx,r12d
     ace:	48 89 08             	mov    QWORD PTR [rax],rcx
     ad1:	5b                   	pop    rbx
     ad2:	41 5c                	pop    r12
     ad4:	5d                   	pop    rbp
     ad5:	c3                   	ret    
     ad6:	c7 47 08 00 00 00 00 	mov    DWORD PTR [rdi+0x8],0x0
     add:	c3                   	ret    
     ade:	48 85 c0             	test   rax,rax
     ae1:	c7 47 0c 04 00 00 00 	mov    DWORD PTR [rdi+0xc],0x4
     ae8:	74 20                	je     b0a <bn_set_u32+0x6a>
     aea:	ba c0 0c 00 00       	mov    edx,0xcc0
     aef:	be 20 00 00 00       	mov    esi,0x20
     af4:	48 89 c7             	mov    rdi,rax
     af7:	e8 00 00 00 00       	call   afc <bn_set_u32+0x5c>
     afc:	44 89 e1             	mov    ecx,r12d
     aff:	48 89 03             	mov    QWORD PTR [rbx],rax
     b02:	48 89 08             	mov    QWORD PTR [rax],rcx
     b05:	5b                   	pop    rbx
     b06:	41 5c                	pop    r12
     b08:	5d                   	pop    rbp
     b09:	c3                   	ret    
     b0a:	48 8b 3d 00 00 00 00 	mov    rdi,QWORD PTR [rip+0x0]        # b11 <bn_set_u32+0x71>
     b11:	ba 20 00 00 00       	mov    edx,0x20
     b16:	be c0 0c 00 00       	mov    esi,0xcc0
     b1b:	e8 00 00 00 00       	call   b20 <bn_set_u32+0x80>
     b20:	eb da                	jmp    afc <bn_set_u32+0x5c>
     b22:	0f 1f 40 00          	nop    DWORD PTR [rax+0x0]
     b26:	66 2e 0f 1f 84 00 00 	nop    WORD PTR cs:[rax+rax*1+0x0]
     b2d:	00 00 00 

0000000000000b30 <bn_swap>:
     b30:	e8 00 00 00 00       	call   b35 <bn_swap+0x5>
     b35:	55                   	push   rbp
     b36:	48 89 e5             	mov    rbp,rsp
     b39:	48 83 ec 18          	sub    rsp,0x18
     b3d:	4c 8b 06             	mov    r8,QWORD PTR [rsi]
     b40:	48 8b 0f             	mov    rcx,QWORD PTR [rdi]
     b43:	48 8b 57 08          	mov    rdx,QWORD PTR [rdi+0x8]
     b47:	48 8b 47 10          	mov    rax,QWORD PTR [rdi+0x10]
     b4b:	4c 89 07             	mov    QWORD PTR [rdi],r8
     b4e:	4c 8b 46 08          	mov    r8,QWORD PTR [rsi+0x8]
     b52:	4c 89 47 08          	mov    QWORD PTR [rdi+0x8],r8
     b56:	4c 8b 46 10          	mov    r8,QWORD PTR [rsi+0x10]
     b5a:	4c 89 47 10          	mov    QWORD PTR [rdi+0x10],r8
     b5e:	48 89 0e             	mov    QWORD PTR [rsi],rcx
     b61:	48 89 56 08          	mov    QWORD PTR [rsi+0x8],rdx
     b65:	48 89 46 10          	mov    QWORD PTR [rsi+0x10],rax
     b69:	c9                   	leave  
     b6a:	c3                   	ret    
     b6b:	0f 1f 44 00 00       	nop    DWORD PTR [rax+rax*1+0x0]

0000000000000b70 <bn_add>:
     b70:	e8 00 00 00 00       	call   b75 <bn_add+0x5>
     b75:	55                   	push   rbp
     b76:	48 89 e5             	mov    rbp,rsp
     b79:	41 57                	push   r15
     b7b:	41 56                	push   r14
     b7d:	41 55                	push   r13
     b7f:	49 89 f5             	mov    r13,rsi
     b82:	41 54                	push   r12
     b84:	53                   	push   rbx
     b85:	8b 77 08             	mov    esi,DWORD PTR [rdi+0x8]
     b88:	48 89 d3             	mov    rbx,rdx
     b8b:	45 8b 4d 08          	mov    r9d,DWORD PTR [r13+0x8]
     b8f:	85 f6                	test   esi,esi
     b91:	75 1b                	jne    bae <bn_add+0x3e>
     b93:	45 85 c9             	test   r9d,r9d
     b96:	0f 85 d3 00 00 00    	jne    c6f <bn_add+0xff>
     b9c:	c7 42 08 00 00 00 00 	mov    DWORD PTR [rdx+0x8],0x0
     ba3:	5b                   	pop    rbx
     ba4:	41 5c                	pop    r12
     ba6:	41 5d                	pop    r13
     ba8:	41 5e                	pop    r14
     baa:	41 5f                	pop    r15
     bac:	5d                   	pop    rbp
     bad:	c3                   	ret    
     bae:	45 85 c9             	test   r9d,r9d
     bb1:	49 89 fc             	mov    r12,rdi
     bb4:	0f 84 cb 00 00 00    	je     c85 <bn_add+0x115>
     bba:	4c 39 ef             	cmp    rdi,r13
     bbd:	0f 84 53 01 00 00    	je     d16 <bn_add+0x1a6>
     bc3:	0f b6 47 10          	movzx  eax,BYTE PTR [rdi+0x10]
     bc7:	41 0f b6 55 10       	movzx  edx,BYTE PTR [r13+0x10]
     bcc:	31 c2                	xor    edx,eax
     bce:	83 e2 01             	and    edx,0x1
     bd1:	0f 84 c4 00 00 00    	je     c9b <bn_add+0x12b>
     bd7:	a8 01                	test   al,0x1
     bd9:	75 11                	jne    bec <bn_add+0x7c>
     bdb:	89 f0                	mov    eax,esi
     bdd:	44 89 ce             	mov    esi,r9d
     be0:	41 89 c1             	mov    r9d,eax
     be3:	4c 89 e8             	mov    rax,r13
     be6:	49 89 fd             	mov    r13,rdi
     be9:	49 89 c4             	mov    r12,rax
     bec:	49 8b 14 24          	mov    rdx,QWORD PTR [r12]
     bf0:	49 8b 7d 00          	mov    rdi,QWORD PTR [r13+0x0]
     bf4:	89 f1                	mov    ecx,esi
     bf6:	44 89 ce             	mov    esi,r9d
     bf9:	e8 00 00 00 00       	call   bfe <bn_add+0x8e>
     bfe:	83 f8 00             	cmp    eax,0x0
     c01:	0f 8e 9d 01 00 00    	jle    da4 <bn_add+0x234>
     c07:	41 8b 75 08          	mov    esi,DWORD PTR [r13+0x8]
     c0b:	39 73 0c             	cmp    DWORD PTR [rbx+0xc],esi
     c0e:	4c 8b 03             	mov    r8,QWORD PTR [rbx]
     c11:	0f 82 16 02 00 00    	jb     e2d <bn_add+0x2bd>
     c17:	49 8b 14 24          	mov    rdx,QWORD PTR [r12]
     c1b:	41 8b 4c 24 08       	mov    ecx,DWORD PTR [r12+0x8]
     c20:	49 8b 7d 00          	mov    rdi,QWORD PTR [r13+0x0]
     c24:	e8 00 00 00 00       	call   c29 <bn_add+0xb9>
     c29:	80 63 10 fe          	and    BYTE PTR [rbx+0x10],0xfe
     c2d:	48 8b 03             	mov    rax,QWORD PTR [rbx]
     c30:	41 8b 55 08          	mov    edx,DWORD PTR [r13+0x8]
     c34:	49 89 d6             	mov    r14,rdx
     c37:	48 8d 14 d0          	lea    rdx,[rax+rdx*8]
     c3b:	45 85 f6             	test   r14d,r14d
     c3e:	74 1d                	je     c5d <bn_add+0xed>
     c40:	48 83 7a f8 00       	cmp    QWORD PTR [rdx-0x8],0x0
     c45:	48 8d 42 f8          	lea    rax,[rdx-0x8]
     c49:	74 0c                	je     c57 <bn_add+0xe7>
     c4b:	eb 13                	jmp    c60 <bn_add+0xf0>
     c4d:	48 83 e8 08          	sub    rax,0x8
     c51:	48 83 38 00          	cmp    QWORD PTR [rax],0x0
     c55:	75 09                	jne    c60 <bn_add+0xf0>
     c57:	41 83 ee 01          	sub    r14d,0x1
     c5b:	75 f0                	jne    c4d <bn_add+0xdd>
     c5d:	45 31 f6             	xor    r14d,r14d
     c60:	44 89 73 08          	mov    DWORD PTR [rbx+0x8],r14d
     c64:	5b                   	pop    rbx
     c65:	41 5c                	pop    r12
     c67:	41 5d                	pop    r13
     c69:	41 5e                	pop    r14
     c6b:	41 5f                	pop    r15
     c6d:	5d                   	pop    rbp
     c6e:	c3                   	ret    
     c6f:	4c 89 ee             	mov    rsi,r13
     c72:	48 89 d7             	mov    rdi,rdx
     c75:	e8 36 fc ff ff       	call   8b0 <bn_set>
     c7a:	5b                   	pop    rbx
     c7b:	41 5c                	pop    r12
     c7d:	41 5d                	pop    r13
     c7f:	41 5e                	pop    r14
     c81:	41 5f                	pop    r15
     c83:	5d                   	pop    rbp
     c84:	c3                   	ret    
     c85:	48 89 fe             	mov    rsi,rdi
     c88:	48 89 d7             	mov    rdi,rdx
     c8b:	e8 20 fc ff ff       	call   8b0 <bn_set>
     c90:	5b                   	pop    rbx
     c91:	41 5c                	pop    r12
     c93:	41 5d                	pop    r13
     c95:	41 5e                	pop    r14
     c97:	41 5f                	pop    r15
     c99:	5d                   	pop    rbp
     c9a:	c3                   	ret    
     c9b:	44 39 ce             	cmp    esi,r9d
     c9e:	45 89 cf             	mov    r15d,r9d
     ca1:	4c 8b 03             	mov    r8,QWORD PTR [rbx]
     ca4:	4c 0f 43 fe          	cmovae r15,rsi
     ca8:	45 8d 77 01          	lea    r14d,[r15+0x1]
     cac:	44 39 73 0c          	cmp    DWORD PTR [rbx+0xc],r14d
     cb0:	0f 82 fd 00 00 00    	jb     db3 <bn_add+0x243>
     cb6:	49 8b 55 00          	mov    rdx,QWORD PTR [r13+0x0]
     cba:	49 8b 3c 24          	mov    rdi,QWORD PTR [r12]
     cbe:	44 89 c9             	mov    ecx,r9d
     cc1:	e8 00 00 00 00       	call   cc6 <bn_add+0x156>
     cc6:	48 85 c0             	test   rax,rax
     cc9:	0f 85 98 00 00 00    	jne    d67 <bn_add+0x1f7>
     ccf:	48 8b 13             	mov    rdx,QWORD PTR [rbx]
     cd2:	41 8d 4f ff          	lea    ecx,[r15-0x1]
     cd6:	48 89 c8             	mov    rax,rcx
     cd9:	48 8d 14 ca          	lea    rdx,[rdx+rcx*8]
     cdd:	eb 03                	jmp    ce2 <bn_add+0x172>
     cdf:	83 e8 01             	sub    eax,0x1
     ce2:	48 83 3a 00          	cmp    QWORD PTR [rdx],0x0
     ce6:	41 89 c6             	mov    r14d,eax
     ce9:	0f 85 02 01 00 00    	jne    df1 <bn_add+0x281>
     cef:	48 83 ea 08          	sub    rdx,0x8
     cf3:	85 c0                	test   eax,eax
     cf5:	41 89 c7             	mov    r15d,eax
     cf8:	75 e5                	jne    cdf <bn_add+0x16f>
     cfa:	41 0f b6 44 24 10    	movzx  eax,BYTE PTR [r12+0x10]
     d00:	83 e0 01             	and    eax,0x1
     d03:	89 c2                	mov    edx,eax
     d05:	0f b6 43 10          	movzx  eax,BYTE PTR [rbx+0x10]
     d09:	83 e0 fe             	and    eax,0xfffffffe
     d0c:	09 d0                	or     eax,edx
     d0e:	88 43 10             	mov    BYTE PTR [rbx+0x10],al
     d11:	e9 4a ff ff ff       	jmp    c60 <bn_add+0xf0>
     d16:	48 39 d7             	cmp    rdi,rdx
     d19:	0f 84 46 01 00 00    	je     e65 <bn_add+0x2f5>
     d1f:	3b 72 0c             	cmp    esi,DWORD PTR [rdx+0xc]
     d22:	89 72 08             	mov    DWORD PTR [rdx+0x8],esi
     d25:	48 8b 0a             	mov    rcx,QWORD PTR [rdx]
     d28:	0f 87 cb 00 00 00    	ja     df9 <bn_add+0x289>
     d2e:	41 8b 74 24 08       	mov    esi,DWORD PTR [r12+0x8]
     d33:	49 8b 3c 24          	mov    rdi,QWORD PTR [r12]
     d37:	ba 01 00 00 00       	mov    edx,0x1
     d3c:	e8 00 00 00 00       	call   d41 <bn_add+0x1d1>
     d41:	49 89 c4             	mov    r12,rax
     d44:	4d 85 e4             	test   r12,r12
     d47:	0f 84 56 fe ff ff    	je     ba3 <bn_add+0x33>
     d4d:	8b 53 08             	mov    edx,DWORD PTR [rbx+0x8]
     d50:	48 8b 03             	mov    rax,QWORD PTR [rbx]
     d53:	8d 4a 01             	lea    ecx,[rdx+0x1]
     d56:	39 4b 0c             	cmp    DWORD PTR [rbx+0xc],ecx
     d59:	72 15                	jb     d70 <bn_add+0x200>
     d5b:	89 4b 08             	mov    DWORD PTR [rbx+0x8],ecx
     d5e:	4c 89 24 d0          	mov    QWORD PTR [rax+rdx*8],r12
     d62:	e9 3c fe ff ff       	jmp    ba3 <bn_add+0x33>
     d67:	48 8b 13             	mov    rdx,QWORD PTR [rbx]
     d6a:	4a 89 04 fa          	mov    QWORD PTR [rdx+r15*8],rax
     d6e:	eb 8a                	jmp    cfa <bn_add+0x18a>
     d70:	83 c2 04             	add    edx,0x4
     d73:	83 e2 fc             	and    edx,0xfffffffc
     d76:	48 85 c0             	test   rax,rax
     d79:	89 53 0c             	mov    DWORD PTR [rbx+0xc],edx
     d7c:	8d 3c d5 00 00 00 00 	lea    edi,[rdx*8+0x0]
     d83:	0f 84 91 01 00 00    	je     f1a <bn_add+0x3aa>
     d89:	48 89 fe             	mov    rsi,rdi
     d8c:	ba c0 0c 00 00       	mov    edx,0xcc0
     d91:	48 89 c7             	mov    rdi,rax
     d94:	e8 00 00 00 00       	call   d99 <bn_add+0x229>
     d99:	8b 53 08             	mov    edx,DWORD PTR [rbx+0x8]
     d9c:	48 89 03             	mov    QWORD PTR [rbx],rax
     d9f:	8d 4a 01             	lea    ecx,[rdx+0x1]
     da2:	eb b7                	jmp    d5b <bn_add+0x1eb>
     da4:	0f 85 d3 00 00 00    	jne    e7d <bn_add+0x30d>
     daa:	80 63 10 fe          	and    BYTE PTR [rbx+0x10],0xfe
     dae:	e9 aa fe ff ff       	jmp    c5d <bn_add+0xed>
     db3:	41 8d 47 04          	lea    eax,[r15+0x4]
     db7:	83 e0 fc             	and    eax,0xfffffffc
     dba:	4d 85 c0             	test   r8,r8
     dbd:	89 43 0c             	mov    DWORD PTR [rbx+0xc],eax
     dc0:	8d 3c c5 00 00 00 00 	lea    edi,[rax*8+0x0]
     dc7:	0f 84 17 01 00 00    	je     ee4 <bn_add+0x374>
     dcd:	48 89 fe             	mov    rsi,rdi
     dd0:	ba c0 0c 00 00       	mov    edx,0xcc0
     dd5:	4c 89 c7             	mov    rdi,r8
     dd8:	e8 00 00 00 00       	call   ddd <bn_add+0x26d>
     ddd:	49 89 c0             	mov    r8,rax
     de0:	4c 89 03             	mov    QWORD PTR [rbx],r8
     de3:	45 8b 4d 08          	mov    r9d,DWORD PTR [r13+0x8]
     de7:	41 8b 74 24 08       	mov    esi,DWORD PTR [r12+0x8]
     dec:	e9 c5 fe ff ff       	jmp    cb6 <bn_add+0x146>
     df1:	45 89 fe             	mov    r14d,r15d
     df4:	e9 01 ff ff ff       	jmp    cfa <bn_add+0x18a>
     df9:	83 c6 03             	add    esi,0x3
     dfc:	83 e6 fc             	and    esi,0xfffffffc
     dff:	48 85 c9             	test   rcx,rcx
     e02:	89 72 0c             	mov    DWORD PTR [rdx+0xc],esi
     e05:	8d 3c f5 00 00 00 00 	lea    edi,[rsi*8+0x0]
     e0c:	0f 84 e4 00 00 00    	je     ef6 <bn_add+0x386>
     e12:	48 89 fe             	mov    rsi,rdi
     e15:	ba c0 0c 00 00       	mov    edx,0xcc0
     e1a:	48 89 cf             	mov    rdi,rcx
     e1d:	e8 00 00 00 00       	call   e22 <bn_add+0x2b2>
     e22:	48 89 c1             	mov    rcx,rax
     e25:	48 89 0b             	mov    QWORD PTR [rbx],rcx
     e28:	e9 01 ff ff ff       	jmp    d2e <bn_add+0x1be>
     e2d:	83 c6 03             	add    esi,0x3
     e30:	83 e6 fc             	and    esi,0xfffffffc
     e33:	4d 85 c0             	test   r8,r8
     e36:	89 73 0c             	mov    DWORD PTR [rbx+0xc],esi
     e39:	8d 3c f5 00 00 00 00 	lea    edi,[rsi*8+0x0]
     e40:	0f 84 c2 00 00 00    	je     f08 <bn_add+0x398>
     e46:	48 89 fe             	mov    rsi,rdi
     e49:	ba c0 0c 00 00       	mov    edx,0xcc0
     e4e:	4c 89 c7             	mov    rdi,r8
     e51:	e8 00 00 00 00       	call   e56 <bn_add+0x2e6>
     e56:	49 89 c0             	mov    r8,rax
     e59:	4c 89 03             	mov    QWORD PTR [rbx],r8
     e5c:	41 8b 75 08          	mov    esi,DWORD PTR [r13+0x8]
     e60:	e9 b2 fd ff ff       	jmp    c17 <bn_add+0xa7>
     e65:	48 8b 3b             	mov    rdi,QWORD PTR [rbx]
     e68:	ba 01 00 00 00       	mov    edx,0x1
     e6d:	44 89 ce             	mov    esi,r9d
     e70:	e8 00 00 00 00       	call   e75 <bn_add+0x305>
     e75:	49 89 c4             	mov    r12,rax
     e78:	e9 c7 fe ff ff       	jmp    d44 <bn_add+0x1d4>
     e7d:	41 8b 74 24 08       	mov    esi,DWORD PTR [r12+0x8]
     e82:	39 73 0c             	cmp    DWORD PTR [rbx+0xc],esi
     e85:	4c 8b 03             	mov    r8,QWORD PTR [rbx]
     e88:	0f 82 9b 00 00 00    	jb     f29 <bn_add+0x3b9>
     e8e:	49 8b 55 00          	mov    rdx,QWORD PTR [r13+0x0]
     e92:	41 8b 4d 08          	mov    ecx,DWORD PTR [r13+0x8]
     e96:	49 8b 3c 24          	mov    rdi,QWORD PTR [r12]
     e9a:	e8 00 00 00 00       	call   e9f <bn_add+0x32f>
     e9f:	80 4b 10 01          	or     BYTE PTR [rbx+0x10],0x1
     ea3:	48 8b 03             	mov    rax,QWORD PTR [rbx]
     ea6:	41 8b 54 24 08       	mov    edx,DWORD PTR [r12+0x8]
     eab:	49 89 d6             	mov    r14,rdx
     eae:	48 8d 14 d0          	lea    rdx,[rax+rdx*8]
     eb2:	45 85 f6             	test   r14d,r14d
     eb5:	0f 84 a2 fd ff ff    	je     c5d <bn_add+0xed>
     ebb:	48 83 7a f8 00       	cmp    QWORD PTR [rdx-0x8],0x0
     ec0:	48 8d 42 f8          	lea    rax,[rdx-0x8]
     ec4:	74 13                	je     ed9 <bn_add+0x369>
     ec6:	e9 95 fd ff ff       	jmp    c60 <bn_add+0xf0>
     ecb:	48 83 e8 08          	sub    rax,0x8
     ecf:	48 83 38 00          	cmp    QWORD PTR [rax],0x0
     ed3:	0f 85 87 fd ff ff    	jne    c60 <bn_add+0xf0>
     ed9:	41 83 ee 01          	sub    r14d,0x1
     edd:	75 ec                	jne    ecb <bn_add+0x35b>
     edf:	e9 79 fd ff ff       	jmp    c5d <bn_add+0xed>
     ee4:	be c0 0c 00 00       	mov    esi,0xcc0
     ee9:	e8 00 00 00 00       	call   eee <bn_add+0x37e>
     eee:	49 89 c0             	mov    r8,rax
     ef1:	e9 ea fe ff ff       	jmp    de0 <bn_add+0x270>
     ef6:	be c0 0c 00 00       	mov    esi,0xcc0
     efb:	e8 00 00 00 00       	call   f00 <bn_add+0x390>
     f00:	48 89 c1             	mov    rcx,rax
     f03:	e9 1d ff ff ff       	jmp    e25 <bn_add+0x2b5>
     f08:	be c0 0c 00 00       	mov    esi,0xcc0
     f0d:	e8 00 00 00 00       	call   f12 <bn_add+0x3a2>
     f12:	49 89 c0             	mov    r8,rax
     f15:	e9 3f ff ff ff       	jmp    e59 <bn_add+0x2e9>
     f1a:	be c0 0c 00 00       	mov    esi,0xcc0
     f1f:	e8 00 00 00 00       	call   f24 <bn_add+0x3b4>
     f24:	e9 70 fe ff ff       	jmp    d99 <bn_add+0x229>
     f29:	83 c6 03             	add    esi,0x3
     f2c:	83 e6 fc             	and    esi,0xfffffffc
     f2f:	4d 85 c0             	test   r8,r8
     f32:	89 73 0c             	mov    DWORD PTR [rbx+0xc],esi
     f35:	8d 3c f5 00 00 00 00 	lea    edi,[rsi*8+0x0]
     f3c:	74 20                	je     f5e <bn_add+0x3ee>
     f3e:	48 89 fe             	mov    rsi,rdi
     f41:	ba c0 0c 00 00       	mov    edx,0xcc0
     f46:	4c 89 c7             	mov    rdi,r8
     f49:	e8 00 00 00 00       	call   f4e <bn_add+0x3de>
     f4e:	49 89 c0             	mov    r8,rax
     f51:	4c 89 03             	mov    QWORD PTR [rbx],r8
     f54:	41 8b 74 24 08       	mov    esi,DWORD PTR [r12+0x8]
     f59:	e9 30 ff ff ff       	jmp    e8e <bn_add+0x31e>
     f5e:	be c0 0c 00 00       	mov    esi,0xcc0
     f63:	e8 00 00 00 00       	call   f68 <bn_add+0x3f8>
     f68:	49 89 c0             	mov    r8,rax
     f6b:	eb e4                	jmp    f51 <bn_add+0x3e1>
     f6d:	0f 1f 00             	nop    DWORD PTR [rax]

0000000000000f70 <bn_sqr>:
     f70:	e8 00 00 00 00       	call   f75 <bn_sqr+0x5>
     f75:	8b 4f 08             	mov    ecx,DWORD PTR [rdi+0x8]
     f78:	85 c9                	test   ecx,ecx
     f7a:	74 5b                	je     fd7 <bn_sqr+0x67>
     f7c:	55                   	push   rbp
     f7d:	48 39 f7             	cmp    rdi,rsi
     f80:	48 89 e5             	mov    rbp,rsp
     f83:	41 56                	push   r14
     f85:	41 55                	push   r13
     f87:	44 8d 2c 09          	lea    r13d,[rcx+rcx*1]
     f8b:	41 54                	push   r12
     f8d:	53                   	push   rbx
     f8e:	49 89 fc             	mov    r12,rdi
     f91:	48 89 f3             	mov    rbx,rsi
     f94:	45 8d 75 ff          	lea    r14d,[r13-0x1]
     f98:	74 49                	je     fe3 <bn_sqr+0x73>
     f9a:	44 39 6e 0c          	cmp    DWORD PTR [rsi+0xc],r13d
     f9e:	48 8b 06             	mov    rax,QWORD PTR [rsi]
     fa1:	0f 82 90 00 00 00    	jb     1037 <bn_sqr+0xc7>
     fa7:	49 8b 3c 24          	mov    rdi,QWORD PTR [r12]
     fab:	48 89 c2             	mov    rdx,rax
     fae:	89 ce                	mov    esi,ecx
     fb0:	e8 00 00 00 00       	call   fb5 <bn_sqr+0x45>
     fb5:	48 8b 03             	mov    rax,QWORD PTR [rbx]
     fb8:	4a 83 3c f0 00       	cmp    QWORD PTR [rax+r14*8],0x0
     fbd:	0f 94 c0             	sete   al
     fc0:	0f b6 c0             	movzx  eax,al
     fc3:	41 29 c5             	sub    r13d,eax
     fc6:	44 89 6b 08          	mov    DWORD PTR [rbx+0x8],r13d
     fca:	80 63 10 fe          	and    BYTE PTR [rbx+0x10],0xfe
     fce:	5b                   	pop    rbx
     fcf:	41 5c                	pop    r12
     fd1:	41 5d                	pop    r13
     fd3:	41 5e                	pop    r14
     fd5:	5d                   	pop    rbp
     fd6:	c3                   	ret    
     fd7:	80 66 10 fe          	and    BYTE PTR [rsi+0x10],0xfe
     fdb:	c7 46 08 00 00 00 00 	mov    DWORD PTR [rsi+0x8],0x0
     fe2:	c3                   	ret    
     fe3:	c1 e1 04             	shl    ecx,0x4
     fe6:	be c0 0c 00 00       	mov    esi,0xcc0
     feb:	89 cf                	mov    edi,ecx
     fed:	e8 00 00 00 00       	call   ff2 <bn_sqr+0x82>
     ff2:	8b 73 08             	mov    esi,DWORD PTR [rbx+0x8]
     ff5:	48 8b 3b             	mov    rdi,QWORD PTR [rbx]
     ff8:	49 89 c4             	mov    r12,rax
     ffb:	48 89 c2             	mov    rdx,rax
     ffe:	e8 00 00 00 00       	call   1003 <bn_sqr+0x93>
    1003:	31 c0                	xor    eax,eax
    1005:	4b 83 3c f4 00       	cmp    QWORD PTR [r12+r14*8],0x0
    100a:	0f 94 c0             	sete   al
    100d:	41 29 c5             	sub    r13d,eax
    1010:	44 39 6b 0c          	cmp    DWORD PTR [rbx+0xc],r13d
    1014:	44 89 6b 08          	mov    DWORD PTR [rbx+0x8],r13d
    1018:	72 58                	jb     1072 <bn_sqr+0x102>
    101a:	48 8b 3b             	mov    rdi,QWORD PTR [rbx]
    101d:	42 8d 14 ed 00 00 00 	lea    edx,[r13*8+0x0]
    1024:	00 
    1025:	4c 89 e6             	mov    rsi,r12
    1028:	e8 00 00 00 00       	call   102d <bn_sqr+0xbd>
    102d:	4c 89 e7             	mov    rdi,r12
    1030:	e8 00 00 00 00       	call   1035 <bn_sqr+0xc5>
    1035:	eb 93                	jmp    fca <bn_sqr+0x5a>
    1037:	41 8d 7d 03          	lea    edi,[r13+0x3]
    103b:	83 e7 fc             	and    edi,0xfffffffc
    103e:	89 7e 0c             	mov    DWORD PTR [rsi+0xc],edi
    1041:	c1 e7 03             	shl    edi,0x3
    1044:	48 85 c0             	test   rax,rax
    1047:	74 1d                	je     1066 <bn_sqr+0xf6>
    1049:	48 89 fe             	mov    rsi,rdi
    104c:	ba c0 0c 00 00       	mov    edx,0xcc0
    1051:	48 89 c7             	mov    rdi,rax
    1054:	e8 00 00 00 00       	call   1059 <bn_sqr+0xe9>
    1059:	48 89 03             	mov    QWORD PTR [rbx],rax
    105c:	41 8b 4c 24 08       	mov    ecx,DWORD PTR [r12+0x8]
    1061:	e9 41 ff ff ff       	jmp    fa7 <bn_sqr+0x37>
    1066:	be c0 0c 00 00       	mov    esi,0xcc0
    106b:	e8 00 00 00 00       	call   1070 <bn_sqr+0x100>
    1070:	eb e7                	jmp    1059 <bn_sqr+0xe9>
    1072:	41 8d 45 03          	lea    eax,[r13+0x3]
    1076:	48 8b 3b             	mov    rdi,QWORD PTR [rbx]
    1079:	83 e0 fc             	and    eax,0xfffffffc
    107c:	89 43 0c             	mov    DWORD PTR [rbx+0xc],eax
    107f:	c1 e0 03             	shl    eax,0x3
    1082:	48 85 ff             	test   rdi,rdi
    1085:	74 15                	je     109c <bn_sqr+0x12c>
    1087:	ba c0 0c 00 00       	mov    edx,0xcc0
    108c:	48 89 c6             	mov    rsi,rax
    108f:	e8 00 00 00 00       	call   1094 <bn_sqr+0x124>
    1094:	48 89 c7             	mov    rdi,rax
    1097:	48 89 3b             	mov    QWORD PTR [rbx],rdi
    109a:	eb 81                	jmp    101d <bn_sqr+0xad>
    109c:	48 89 c7             	mov    rdi,rax
    109f:	be c0 0c 00 00       	mov    esi,0xcc0
    10a4:	e8 00 00 00 00       	call   10a9 <bn_sqr+0x139>
    10a9:	48 89 c7             	mov    rdi,rax
    10ac:	eb e9                	jmp    1097 <bn_sqr+0x127>
    10ae:	66 90                	xchg   ax,ax

00000000000010b0 <bn_mul>:
    10b0:	e8 00 00 00 00       	call   10b5 <bn_mul+0x5>
    10b5:	44 8b 4f 08          	mov    r9d,DWORD PTR [rdi+0x8]
    10b9:	45 85 c9             	test   r9d,r9d
    10bc:	0f 84 9b 00 00 00    	je     115d <bn_mul+0xad>
    10c2:	8b 4e 08             	mov    ecx,DWORD PTR [rsi+0x8]
    10c5:	85 c9                	test   ecx,ecx
    10c7:	0f 84 90 00 00 00    	je     115d <bn_mul+0xad>
    10cd:	55                   	push   rbp
    10ce:	48 89 e5             	mov    rbp,rsp
    10d1:	41 57                	push   r15
    10d3:	41 56                	push   r14
    10d5:	41 55                	push   r13
    10d7:	41 54                	push   r12
    10d9:	49 89 f7             	mov    r15,rsi
    10dc:	53                   	push   rbx
    10dd:	49 89 fc             	mov    r12,rdi
    10e0:	48 89 d3             	mov    rbx,rdx
    10e3:	48 83 ec 08          	sub    rsp,0x8
    10e7:	48 39 f7             	cmp    rdi,rsi
    10ea:	0f 84 30 01 00 00    	je     1220 <bn_mul+0x170>
    10f0:	45 8d 2c 09          	lea    r13d,[r9+rcx*1]
    10f4:	48 39 d7             	cmp    rdi,rdx
    10f7:	45 8d 75 ff          	lea    r14d,[r13-0x1]
    10fb:	74 6c                	je     1169 <bn_mul+0xb9>
    10fd:	48 39 d6             	cmp    rsi,rdx
    1100:	74 67                	je     1169 <bn_mul+0xb9>
    1102:	44 39 6a 0c          	cmp    DWORD PTR [rdx+0xc],r13d
    1106:	4c 8b 02             	mov    r8,QWORD PTR [rdx]
    1109:	0f 82 c8 00 00 00    	jb     11d7 <bn_mul+0x127>
    110f:	49 8b 17             	mov    rdx,QWORD PTR [r15]
    1112:	49 8b 3c 24          	mov    rdi,QWORD PTR [r12]
    1116:	44 89 ce             	mov    esi,r9d
    1119:	e8 00 00 00 00       	call   111e <bn_mul+0x6e>
    111e:	48 8b 03             	mov    rax,QWORD PTR [rbx]
    1121:	4a 83 3c f0 00       	cmp    QWORD PTR [rax+r14*8],0x0
    1126:	0f 94 c0             	sete   al
    1129:	0f b6 c0             	movzx  eax,al
    112c:	41 29 c5             	sub    r13d,eax
    112f:	44 89 6b 08          	mov    DWORD PTR [rbx+0x8],r13d
    1133:	41 0f b6 47 10       	movzx  eax,BYTE PTR [r15+0x10]
    1138:	41 32 44 24 10       	xor    al,BYTE PTR [r12+0x10]
    113d:	83 e0 01             	and    eax,0x1
    1140:	89 c2                	mov    edx,eax
    1142:	0f b6 43 10          	movzx  eax,BYTE PTR [rbx+0x10]
    1146:	83 e0 fe             	and    eax,0xfffffffe
    1149:	09 d0                	or     eax,edx
    114b:	88 43 10             	mov    BYTE PTR [rbx+0x10],al
    114e:	48 83 c4 08          	add    rsp,0x8
    1152:	5b                   	pop    rbx
    1153:	41 5c                	pop    r12
    1155:	41 5d                	pop    r13
    1157:	41 5e                	pop    r14
    1159:	41 5f                	pop    r15
    115b:	5d                   	pop    rbp
    115c:	c3                   	ret    
    115d:	80 62 10 fe          	and    BYTE PTR [rdx+0x10],0xfe
    1161:	c7 42 08 00 00 00 00 	mov    DWORD PTR [rdx+0x8],0x0
    1168:	c3                   	ret    
    1169:	42 8d 3c ed 00 00 00 	lea    edi,[r13*8+0x0]
    1170:	00 
    1171:	be c0 0c 00 00       	mov    esi,0xcc0
    1176:	e8 00 00 00 00       	call   117b <bn_mul+0xcb>
    117b:	41 8b 4f 08          	mov    ecx,DWORD PTR [r15+0x8]
    117f:	41 8b 74 24 08       	mov    esi,DWORD PTR [r12+0x8]
    1184:	49 89 c0             	mov    r8,rax
    1187:	49 8b 17             	mov    rdx,QWORD PTR [r15]
    118a:	49 8b 3c 24          	mov    rdi,QWORD PTR [r12]
    118e:	48 89 45 d0          	mov    QWORD PTR [rbp-0x30],rax
    1192:	e8 00 00 00 00       	call   1197 <bn_mul+0xe7>
    1197:	48 8b 45 d0          	mov    rax,QWORD PTR [rbp-0x30]
    119b:	4a 83 3c f0 00       	cmp    QWORD PTR [rax+r14*8],0x0
    11a0:	0f 94 c0             	sete   al
    11a3:	0f b6 c0             	movzx  eax,al
    11a6:	41 29 c5             	sub    r13d,eax
    11a9:	44 39 6b 0c          	cmp    DWORD PTR [rbx+0xc],r13d
    11ad:	44 89 6b 08          	mov    DWORD PTR [rbx+0x8],r13d
    11b1:	72 7a                	jb     122d <bn_mul+0x17d>
    11b3:	48 8b 3b             	mov    rdi,QWORD PTR [rbx]
    11b6:	4c 8b 75 d0          	mov    r14,QWORD PTR [rbp-0x30]
    11ba:	42 8d 14 ed 00 00 00 	lea    edx,[r13*8+0x0]
    11c1:	00 
    11c2:	4c 89 f6             	mov    rsi,r14
    11c5:	e8 00 00 00 00       	call   11ca <bn_mul+0x11a>
    11ca:	4c 89 f7             	mov    rdi,r14
    11cd:	e8 00 00 00 00       	call   11d2 <bn_mul+0x122>
    11d2:	e9 5c ff ff ff       	jmp    1133 <bn_mul+0x83>
    11d7:	41 8d 45 03          	lea    eax,[r13+0x3]
    11db:	83 e0 fc             	and    eax,0xfffffffc
    11de:	4d 85 c0             	test   r8,r8
    11e1:	89 42 0c             	mov    DWORD PTR [rdx+0xc],eax
    11e4:	8d 3c c5 00 00 00 00 	lea    edi,[rax*8+0x0]
    11eb:	74 24                	je     1211 <bn_mul+0x161>
    11ed:	48 89 fe             	mov    rsi,rdi
    11f0:	ba c0 0c 00 00       	mov    edx,0xcc0
    11f5:	4c 89 c7             	mov    rdi,r8
    11f8:	e8 00 00 00 00       	call   11fd <bn_mul+0x14d>
    11fd:	49 89 c0             	mov    r8,rax
    1200:	4c 89 03             	mov    QWORD PTR [rbx],r8
    1203:	41 8b 4f 08          	mov    ecx,DWORD PTR [r15+0x8]
    1207:	45 8b 4c 24 08       	mov    r9d,DWORD PTR [r12+0x8]
    120c:	e9 fe fe ff ff       	jmp    110f <bn_mul+0x5f>
    1211:	be c0 0c 00 00       	mov    esi,0xcc0
    1216:	e8 00 00 00 00       	call   121b <bn_mul+0x16b>
    121b:	49 89 c0             	mov    r8,rax
    121e:	eb e0                	jmp    1200 <bn_mul+0x150>
    1220:	48 89 d6             	mov    rsi,rdx
    1223:	e8 00 00 00 00       	call   1228 <bn_mul+0x178>
    1228:	e9 21 ff ff ff       	jmp    114e <bn_mul+0x9e>
    122d:	41 8d 45 03          	lea    eax,[r13+0x3]
    1231:	48 8b 3b             	mov    rdi,QWORD PTR [rbx]
    1234:	83 e0 fc             	and    eax,0xfffffffc
    1237:	89 43 0c             	mov    DWORD PTR [rbx+0xc],eax
    123a:	c1 e0 03             	shl    eax,0x3
    123d:	48 85 ff             	test   rdi,rdi
    1240:	74 18                	je     125a <bn_mul+0x1aa>
    1242:	ba c0 0c 00 00       	mov    edx,0xcc0
    1247:	48 89 c6             	mov    rsi,rax
    124a:	e8 00 00 00 00       	call   124f <bn_mul+0x19f>
    124f:	48 89 c7             	mov    rdi,rax
    1252:	48 89 3b             	mov    QWORD PTR [rbx],rdi
    1255:	e9 5c ff ff ff       	jmp    11b6 <bn_mul+0x106>
    125a:	48 89 c7             	mov    rdi,rax
    125d:	be c0 0c 00 00       	mov    esi,0xcc0
    1262:	e8 00 00 00 00       	call   1267 <bn_mul+0x1b7>
    1267:	48 89 c7             	mov    rdi,rax
    126a:	eb e6                	jmp    1252 <bn_mul+0x1a2>
    126c:	0f 1f 40 00          	nop    DWORD PTR [rax+0x0]

0000000000001270 <bn_lshift>:
    1270:	e8 00 00 00 00       	call   1275 <bn_lshift+0x5>
    1275:	55                   	push   rbp
    1276:	85 f6                	test   esi,esi
    1278:	48 89 e5             	mov    rbp,rsp
    127b:	41 57                	push   r15
    127d:	41 56                	push   r14
    127f:	49 89 fe             	mov    r14,rdi
    1282:	41 55                	push   r13
    1284:	41 54                	push   r12
    1286:	53                   	push   rbx
    1287:	48 89 d3             	mov    rbx,rdx
    128a:	75 16                	jne    12a2 <bn_lshift+0x32>
    128c:	48 89 fe             	mov    rsi,rdi
    128f:	48 89 d7             	mov    rdi,rdx
    1292:	e8 19 f6 ff ff       	call   8b0 <bn_set>
    1297:	5b                   	pop    rbx
    1298:	41 5c                	pop    r12
    129a:	41 5d                	pop    r13
    129c:	41 5e                	pop    r14
    129e:	41 5f                	pop    r15
    12a0:	5d                   	pop    rbp
    12a1:	c3                   	ret    
    12a2:	8b 47 08             	mov    eax,DWORD PTR [rdi+0x8]
    12a5:	85 c0                	test   eax,eax
    12a7:	74 78                	je     1321 <bn_lshift+0xb1>
    12a9:	41 89 f7             	mov    r15d,esi
    12ac:	83 e6 3f             	and    esi,0x3f
    12af:	41 c1 ef 06          	shr    r15d,0x6
    12b3:	48 39 d7             	cmp    rdi,rdx
    12b6:	41 89 f4             	mov    r12d,esi
    12b9:	46 8d 2c fd 00 00 00 	lea    r13d,[r15*8+0x0]
    12c0:	00 
    12c1:	0f 84 dd 00 00 00    	je     13a4 <bn_lshift+0x134>
    12c7:	42 8d 34 38          	lea    esi,[rax+r15*1]
    12cb:	3b 72 0c             	cmp    esi,DWORD PTR [rdx+0xc]
    12ce:	48 8b 02             	mov    rax,QWORD PTR [rdx]
    12d1:	89 72 08             	mov    DWORD PTR [rdx+0x8],esi
    12d4:	77 61                	ja     1337 <bn_lshift+0xc7>
    12d6:	41 8b 76 08          	mov    esi,DWORD PTR [r14+0x8]
    12da:	49 8b 3e             	mov    rdi,QWORD PTR [r14]
    12dd:	4a 8d 0c 28          	lea    rcx,[rax+r13*1]
    12e1:	44 89 e2             	mov    edx,r12d
    12e4:	e8 00 00 00 00       	call   12e9 <bn_lshift+0x79>
    12e9:	49 89 c4             	mov    r12,rax
    12ec:	48 8b 3b             	mov    rdi,QWORD PTR [rbx]
    12ef:	31 f6                	xor    esi,esi
    12f1:	4c 89 ea             	mov    rdx,r13
    12f4:	e8 00 00 00 00       	call   12f9 <bn_lshift+0x89>
    12f9:	4d 85 e4             	test   r12,r12
    12fc:	74 99                	je     1297 <bn_lshift+0x27>
    12fe:	8b 53 08             	mov    edx,DWORD PTR [rbx+0x8]
    1301:	48 8b 03             	mov    rax,QWORD PTR [rbx]
    1304:	8d 4a 01             	lea    ecx,[rdx+0x1]
    1307:	3b 4b 0c             	cmp    ecx,DWORD PTR [rbx+0xc]
    130a:	89 4b 08             	mov    DWORD PTR [rbx+0x8],ecx
    130d:	77 61                	ja     1370 <bn_lshift+0x100>
    130f:	8d 51 ff             	lea    edx,[rcx-0x1]
    1312:	4c 89 24 d0          	mov    QWORD PTR [rax+rdx*8],r12
    1316:	5b                   	pop    rbx
    1317:	41 5c                	pop    r12
    1319:	41 5d                	pop    r13
    131b:	41 5e                	pop    r14
    131d:	41 5f                	pop    r15
    131f:	5d                   	pop    rbp
    1320:	c3                   	ret    
    1321:	80 62 10 fe          	and    BYTE PTR [rdx+0x10],0xfe
    1325:	c7 42 08 00 00 00 00 	mov    DWORD PTR [rdx+0x8],0x0
    132c:	5b                   	pop    rbx
    132d:	41 5c                	pop    r12
    132f:	41 5d                	pop    r13
    1331:	41 5e                	pop    r14
    1333:	41 5f                	pop    r15
    1335:	5d                   	pop    rbp
    1336:	c3                   	ret    
    1337:	83 c6 03             	add    esi,0x3
    133a:	83 e6 fc             	and    esi,0xfffffffc
    133d:	48 85 c0             	test   rax,rax
    1340:	89 72 0c             	mov    DWORD PTR [rdx+0xc],esi
    1343:	8d 3c f5 00 00 00 00 	lea    edi,[rsi*8+0x0]
    134a:	74 18                	je     1364 <bn_lshift+0xf4>
    134c:	48 89 fe             	mov    rsi,rdi
    134f:	ba c0 0c 00 00       	mov    edx,0xcc0
    1354:	48 89 c7             	mov    rdi,rax
    1357:	e8 00 00 00 00       	call   135c <bn_lshift+0xec>
    135c:	48 89 03             	mov    QWORD PTR [rbx],rax
    135f:	e9 72 ff ff ff       	jmp    12d6 <bn_lshift+0x66>
    1364:	be c0 0c 00 00       	mov    esi,0xcc0
    1369:	e8 00 00 00 00       	call   136e <bn_lshift+0xfe>
    136e:	eb ec                	jmp    135c <bn_lshift+0xec>
    1370:	83 c2 04             	add    edx,0x4
    1373:	83 e2 fc             	and    edx,0xfffffffc
    1376:	48 85 c0             	test   rax,rax
    1379:	89 53 0c             	mov    DWORD PTR [rbx+0xc],edx
    137c:	8d 3c d5 00 00 00 00 	lea    edi,[rdx*8+0x0]
    1383:	0f 84 85 00 00 00    	je     140e <bn_lshift+0x19e>
    1389:	48 89 fe             	mov    rsi,rdi
    138c:	ba c0 0c 00 00       	mov    edx,0xcc0
    1391:	48 89 c7             	mov    rdi,rax
    1394:	e8 00 00 00 00       	call   1399 <bn_lshift+0x129>
    1399:	48 89 03             	mov    QWORD PTR [rbx],rax
    139c:	8b 4b 08             	mov    ecx,DWORD PTR [rbx+0x8]
    139f:	e9 6b ff ff ff       	jmp    130f <bn_lshift+0x9f>
    13a4:	48 8b 3b             	mov    rdi,QWORD PTR [rbx]
    13a7:	89 f2                	mov    edx,esi
    13a9:	89 c6                	mov    esi,eax
    13ab:	e8 00 00 00 00       	call   13b0 <bn_lshift+0x140>
    13b0:	45 85 ff             	test   r15d,r15d
    13b3:	49 89 c4             	mov    r12,rax
    13b6:	0f 84 30 ff ff ff    	je     12ec <bn_lshift+0x7c>
    13bc:	8b 73 08             	mov    esi,DWORD PTR [rbx+0x8]
    13bf:	42 8d 04 3e          	lea    eax,[rsi+r15*1]
    13c3:	39 43 0c             	cmp    DWORD PTR [rbx+0xc],eax
    13c6:	72 55                	jb     141d <bn_lshift+0x1ad>
    13c8:	89 f1                	mov    ecx,esi
    13ca:	83 e9 01             	sub    ecx,0x1
    13cd:	78 34                	js     1403 <bn_lshift+0x193>
    13cf:	42 8d 7c 3e ff       	lea    edi,[rsi+r15*1-0x1]
    13d4:	48 63 c1             	movsxd rax,ecx
    13d7:	48 8d 14 c5 00 00 00 	lea    rdx,[rax*8+0x0]
    13de:	00 
    13df:	48 29 c7             	sub    rdi,rax
    13e2:	48 c1 e7 03          	shl    rdi,0x3
    13e6:	48 8b 03             	mov    rax,QWORD PTR [rbx]
    13e9:	83 e9 01             	sub    ecx,0x1
    13ec:	48 8b 34 10          	mov    rsi,QWORD PTR [rax+rdx*1]
    13f0:	48 01 d0             	add    rax,rdx
    13f3:	48 83 ea 08          	sub    rdx,0x8
    13f7:	83 f9 ff             	cmp    ecx,0xffffffff
    13fa:	48 89 34 38          	mov    QWORD PTR [rax+rdi*1],rsi
    13fe:	75 e6                	jne    13e6 <bn_lshift+0x176>
    1400:	8b 73 08             	mov    esi,DWORD PTR [rbx+0x8]
    1403:	44 01 fe             	add    esi,r15d
    1406:	89 73 08             	mov    DWORD PTR [rbx+0x8],esi
    1409:	e9 de fe ff ff       	jmp    12ec <bn_lshift+0x7c>
    140e:	be c0 0c 00 00       	mov    esi,0xcc0
    1413:	e8 00 00 00 00       	call   1418 <bn_lshift+0x1a8>
    1418:	e9 7c ff ff ff       	jmp    1399 <bn_lshift+0x129>
    141d:	48 8b 3b             	mov    rdi,QWORD PTR [rbx]
    1420:	83 c0 03             	add    eax,0x3
    1423:	83 e0 fc             	and    eax,0xfffffffc
    1426:	89 43 0c             	mov    DWORD PTR [rbx+0xc],eax
    1429:	c1 e0 03             	shl    eax,0x3
    142c:	48 85 ff             	test   rdi,rdi
    142f:	74 15                	je     1446 <bn_lshift+0x1d6>
    1431:	ba c0 0c 00 00       	mov    edx,0xcc0
    1436:	48 89 c6             	mov    rsi,rax
    1439:	e8 00 00 00 00       	call   143e <bn_lshift+0x1ce>
    143e:	48 89 03             	mov    QWORD PTR [rbx],rax
    1441:	8b 73 08             	mov    esi,DWORD PTR [rbx+0x8]
    1444:	eb 82                	jmp    13c8 <bn_lshift+0x158>
    1446:	be c0 0c 00 00       	mov    esi,0xcc0
    144b:	48 89 c7             	mov    rdi,rax
    144e:	e8 00 00 00 00       	call   1453 <bn_lshift+0x1e3>
    1453:	eb e9                	jmp    143e <bn_lshift+0x1ce>
    1455:	90                   	nop
    1456:	66 2e 0f 1f 84 00 00 	nop    WORD PTR cs:[rax+rax*1+0x0]
    145d:	00 00 00 

0000000000001460 <bn_to_string>:
    1460:	e8 00 00 00 00       	call   1465 <bn_to_string+0x5>
    1465:	55                   	push   rbp
    1466:	49 89 f1             	mov    r9,rsi
    1469:	48 63 d2             	movsxd rdx,edx
    146c:	31 f6                	xor    esi,esi
    146e:	48 89 e5             	mov    rbp,rsp
    1471:	41 55                	push   r13
    1473:	41 54                	push   r12
    1475:	53                   	push   rbx
    1476:	48 89 fb             	mov    rbx,rdi
    1479:	4c 89 cf             	mov    rdi,r9
    147c:	49 89 d4             	mov    r12,rdx
    147f:	41 89 cd             	mov    r13d,ecx
    1482:	e8 00 00 00 00       	call   1487 <bn_to_string+0x27>
    1487:	8b 73 08             	mov    esi,DWORD PTR [rbx+0x8]
    148a:	49 89 c1             	mov    r9,rax
    148d:	85 f6                	test   esi,esi
    148f:	74 26                	je     14b7 <bn_to_string+0x57>
    1491:	f6 43 10 01          	test   BYTE PTR [rbx+0x10],0x1
    1495:	75 18                	jne    14af <bn_to_string+0x4f>
    1497:	48 8b 3b             	mov    rdi,QWORD PTR [rbx]
    149a:	45 89 e0             	mov    r8d,r12d
    149d:	44 89 ea             	mov    edx,r13d
    14a0:	4c 89 c9             	mov    rcx,r9
    14a3:	e8 00 00 00 00       	call   14a8 <bn_to_string+0x48>
    14a8:	5b                   	pop    rbx
    14a9:	41 5c                	pop    r12
    14ab:	41 5d                	pop    r13
    14ad:	5d                   	pop    rbp
    14ae:	c3                   	ret    
    14af:	c6 00 2d             	mov    BYTE PTR [rax],0x2d
    14b2:	8b 73 08             	mov    esi,DWORD PTR [rbx+0x8]
    14b5:	eb e0                	jmp    1497 <bn_to_string+0x37>
    14b7:	c6 00 30             	mov    BYTE PTR [rax],0x30
    14ba:	5b                   	pop    rbx
    14bb:	41 5c                	pop    r12
    14bd:	41 5d                	pop    r13
    14bf:	5d                   	pop    rbp
    14c0:	c3                   	ret    
    14c1:	66 2e 0f 1f 84 00 00 	nop    WORD PTR cs:[rax+rax*1+0x0]
    14c8:	00 00 00 
    14cb:	0f 1f 44 00 00       	nop    DWORD PTR [rax+rax*1+0x0]

00000000000014d0 <apm_sqr_base.part.0>:
    14d0:	e8 00 00 00 00       	call   14d5 <apm_sqr_base.part.0+0x5>
    14d5:	55                   	push   rbp
    14d6:	89 f0                	mov    eax,esi
    14d8:	48 89 e5             	mov    rbp,rsp
    14db:	41 57                	push   r15
    14dd:	41 56                	push   r14
    14df:	41 55                	push   r13
    14e1:	41 54                	push   r12
    14e3:	49 89 d4             	mov    r12,rdx
    14e6:	53                   	push   rbx
    14e7:	49 89 fe             	mov    r14,rdi
    14ea:	48 8d 14 c7          	lea    rdx,[rdi+rax*8]
    14ee:	48 83 ec 28          	sub    rsp,0x28
    14f2:	85 f6                	test   esi,esi
    14f4:	0f 84 83 01 00 00    	je     167d <apm_sqr_base.part.0+0x1ad>
    14fa:	48 83 7a f8 00       	cmp    QWORD PTR [rdx-0x8],0x0
    14ff:	48 8d 42 f8          	lea    rax,[rdx-0x8]
    1503:	89 f3                	mov    ebx,esi
    1505:	74 0c                	je     1513 <apm_sqr_base.part.0+0x43>
    1507:	eb 46                	jmp    154f <apm_sqr_base.part.0+0x7f>
    1509:	48 83 e8 08          	sub    rax,0x8
    150d:	48 83 38 00          	cmp    QWORD PTR [rax],0x0
    1511:	75 23                	jne    1536 <apm_sqr_base.part.0+0x66>
    1513:	83 eb 01             	sub    ebx,0x1
    1516:	75 f1                	jne    1509 <apm_sqr_base.part.0+0x39>
    1518:	c1 e6 04             	shl    esi,0x4
    151b:	4c 89 e7             	mov    rdi,r12
    151e:	89 f2                	mov    edx,esi
    1520:	31 f6                	xor    esi,esi
    1522:	e8 00 00 00 00       	call   1527 <apm_sqr_base.part.0+0x57>
    1527:	48 83 c4 28          	add    rsp,0x28
    152b:	5b                   	pop    rbx
    152c:	41 5c                	pop    r12
    152e:	41 5d                	pop    r13
    1530:	41 5e                	pop    r14
    1532:	41 5f                	pop    r15
    1534:	5d                   	pop    rbp
    1535:	c3                   	ret    
    1536:	39 de                	cmp    esi,ebx
    1538:	74 15                	je     154f <apm_sqr_base.part.0+0x7f>
    153a:	8d 04 1b             	lea    eax,[rbx+rbx*1]
    153d:	29 de                	sub    esi,ebx
    153f:	c1 e6 04             	shl    esi,0x4
    1542:	49 8d 3c c4          	lea    rdi,[r12+rax*8]
    1546:	89 f2                	mov    edx,esi
    1548:	31 f6                	xor    esi,esi
    154a:	e8 00 00 00 00       	call   154f <apm_sqr_base.part.0+0x7f>
    154f:	83 fb 01             	cmp    ebx,0x1
    1552:	0f 84 44 01 00 00    	je     169c <apm_sqr_base.part.0+0x1cc>
    1558:	83 fb 0a             	cmp    ebx,0xa
    155b:	0f 86 1a 01 00 00    	jbe    167b <apm_sqr_base.part.0+0x1ab>
    1561:	49 8d 4c 24 08       	lea    rcx,[r12+0x8]
    1566:	8d 43 ff             	lea    eax,[rbx-0x1]
    1569:	49 c7 04 24 00 00 00 	mov    QWORD PTR [r12],0x0
    1570:	00 
    1571:	4d 8d 7e 08          	lea    r15,[r14+0x8]
    1575:	49 8b 16             	mov    rdx,QWORD PTR [r14]
    1578:	4c 8d 2c c1          	lea    r13,[rcx+rax*8]
    157c:	48 89 c6             	mov    rsi,rax
    157f:	48 89 4d b8          	mov    QWORD PTR [rbp-0x48],rcx
    1583:	4c 89 ff             	mov    rdi,r15
    1586:	e8 00 00 00 00       	call   158b <apm_sqr_base.part.0+0xbb>
    158b:	4d 8d 4c 24 18       	lea    r9,[r12+0x18]
    1590:	49 89 45 00          	mov    QWORD PTR [r13+0x0],rax
    1594:	8d 43 fe             	lea    eax,[rbx-0x2]
    1597:	4d 8d 46 10          	lea    r8,[r14+0x10]
    159b:	4d 8d 14 c1          	lea    r10,[r9+rax*8]
    159f:	49 89 c5             	mov    r13,rax
    15a2:	48 89 45 b0          	mov    QWORD PTR [rbp-0x50],rax
    15a6:	49 8b 50 f8          	mov    rdx,QWORD PTR [r8-0x8]
    15aa:	4c 89 c9             	mov    rcx,r9
    15ad:	44 89 ee             	mov    esi,r13d
    15b0:	4c 89 c7             	mov    rdi,r8
    15b3:	4c 89 55 c0          	mov    QWORD PTR [rbp-0x40],r10
    15b7:	4c 89 4d c8          	mov    QWORD PTR [rbp-0x38],r9
    15bb:	4c 89 45 d0          	mov    QWORD PTR [rbp-0x30],r8
    15bf:	e8 00 00 00 00       	call   15c4 <apm_sqr_base.part.0+0xf4>
    15c4:	4c 8b 55 c0          	mov    r10,QWORD PTR [rbp-0x40]
    15c8:	4c 8b 4d c8          	mov    r9,QWORD PTR [rbp-0x38]
    15cc:	4c 8b 45 d0          	mov    r8,QWORD PTR [rbp-0x30]
    15d0:	49 89 02             	mov    QWORD PTR [r10],rax
    15d3:	49 83 c1 10          	add    r9,0x10
    15d7:	49 83 c2 08          	add    r10,0x8
    15db:	49 83 c0 08          	add    r8,0x8
    15df:	41 83 ed 01          	sub    r13d,0x1
    15e3:	75 c1                	jne    15a6 <apm_sqr_base.part.0+0xd6>
    15e5:	01 db                	add    ebx,ebx
    15e7:	48 8b 7d b8          	mov    rdi,QWORD PTR [rbp-0x48]
    15eb:	ba 01 00 00 00       	mov    edx,0x1
    15f0:	8d 43 ff             	lea    eax,[rbx-0x1]
    15f3:	8d 73 fe             	lea    esi,[rbx-0x2]
    15f6:	4d 8d 2c c4          	lea    r13,[r12+rax*8]
    15fa:	e8 00 00 00 00       	call   15ff <apm_sqr_base.part.0+0x12f>
    15ff:	31 c9                	xor    ecx,ecx
    1601:	49 89 45 00          	mov    QWORD PTR [r13+0x0],rax
    1605:	49 8b 06             	mov    rax,QWORD PTR [r14]
    1608:	48 f7 e0             	mul    rax
    160b:	49 03 04 24          	add    rax,QWORD PTR [r12]
    160f:	0f 92 c1             	setb   cl
    1612:	49 89 04 24          	mov    QWORD PTR [r12],rax
    1616:	48 8b 45 b0          	mov    rax,QWORD PTR [rbp-0x50]
    161a:	48 01 ca             	add    rdx,rcx
    161d:	31 c9                	xor    ecx,ecx
    161f:	49 03 54 24 08       	add    rdx,QWORD PTR [r12+0x8]
    1624:	49 8d 74 c6 08       	lea    rsi,[r14+rax*8+0x8]
    1629:	0f 92 c1             	setb   cl
    162c:	49 89 54 24 08       	mov    QWORD PTR [r12+0x8],rdx
    1631:	eb 04                	jmp    1637 <apm_sqr_base.part.0+0x167>
    1633:	49 83 c7 08          	add    r15,0x8
    1637:	49 83 c4 10          	add    r12,0x10
    163b:	49 8b 07             	mov    rax,QWORD PTR [r15]
    163e:	48 f7 e0             	mul    rax
    1641:	48 01 c1             	add    rcx,rax
    1644:	48 83 d2 00          	adc    rdx,0x0
    1648:	31 c0                	xor    eax,eax
    164a:	49 03 0c 24          	add    rcx,QWORD PTR [r12]
    164e:	0f 92 c0             	setb   al
    1651:	49 89 0c 24          	mov    QWORD PTR [r12],rcx
    1655:	31 c9                	xor    ecx,ecx
    1657:	48 01 c2             	add    rdx,rax
    165a:	49 03 54 24 08       	add    rdx,QWORD PTR [r12+0x8]
    165f:	0f 92 c1             	setb   cl
    1662:	49 39 f7             	cmp    r15,rsi
    1665:	49 89 54 24 08       	mov    QWORD PTR [r12+0x8],rdx
    166a:	75 c7                	jne    1633 <apm_sqr_base.part.0+0x163>
    166c:	48 83 c4 28          	add    rsp,0x28
    1670:	5b                   	pop    rbx
    1671:	41 5c                	pop    r12
    1673:	41 5d                	pop    r13
    1675:	41 5e                	pop    r14
    1677:	41 5f                	pop    r15
    1679:	5d                   	pop    rbp
    167a:	c3                   	ret    
    167b:	89 de                	mov    esi,ebx
    167d:	4d 89 e0             	mov    r8,r12
    1680:	4c 89 f2             	mov    rdx,r14
    1683:	4c 89 f7             	mov    rdi,r14
    1686:	89 f1                	mov    ecx,esi
    1688:	e8 00 00 00 00       	call   168d <apm_sqr_base.part.0+0x1bd>
    168d:	48 83 c4 28          	add    rsp,0x28
    1691:	5b                   	pop    rbx
    1692:	41 5c                	pop    r12
    1694:	41 5d                	pop    r13
    1696:	41 5e                	pop    r14
    1698:	41 5f                	pop    r15
    169a:	5d                   	pop    rbp
    169b:	c3                   	ret    
    169c:	49 8b 06             	mov    rax,QWORD PTR [r14]
    169f:	48 f7 e0             	mul    rax
    16a2:	49 89 54 24 08       	mov    QWORD PTR [r12+0x8],rdx
    16a7:	49 89 04 24          	mov    QWORD PTR [r12],rax
    16ab:	48 83 c4 28          	add    rsp,0x28
    16af:	5b                   	pop    rbx
    16b0:	41 5c                	pop    r12
    16b2:	41 5d                	pop    r13
    16b4:	41 5e                	pop    r14
    16b6:	41 5f                	pop    r15
    16b8:	5d                   	pop    rbp
    16b9:	c3                   	ret    
    16ba:	66 0f 1f 44 00 00    	nop    WORD PTR [rax+rax*1+0x0]

00000000000016c0 <apm_sqr_base>:
    16c0:	e8 00 00 00 00       	call   16c5 <apm_sqr_base+0x5>
    16c5:	85 f6                	test   esi,esi
    16c7:	74 0b                	je     16d4 <apm_sqr_base+0x14>
    16c9:	55                   	push   rbp
    16ca:	48 89 e5             	mov    rbp,rsp
    16cd:	e8 fe fd ff ff       	call   14d0 <apm_sqr_base.part.0>
    16d2:	5d                   	pop    rbp
    16d3:	c3                   	ret    
    16d4:	f3 c3                	repz ret 
    16d6:	66 2e 0f 1f 84 00 00 	nop    WORD PTR cs:[rax+rax*1+0x0]
    16dd:	00 00 00 

00000000000016e0 <apm_sqr>:
    16e0:	e8 00 00 00 00       	call   16e5 <apm_sqr+0x5>
    16e5:	55                   	push   rbp
    16e6:	89 f0                	mov    eax,esi
    16e8:	48 89 e5             	mov    rbp,rsp
    16eb:	41 57                	push   r15
    16ed:	41 56                	push   r14
    16ef:	41 55                	push   r13
    16f1:	41 54                	push   r12
    16f3:	49 89 d4             	mov    r12,rdx
    16f6:	53                   	push   rbx
    16f7:	48 8d 14 c7          	lea    rdx,[rdi+rax*8]
    16fb:	48 83 ec 50          	sub    rsp,0x50
    16ff:	85 f6                	test   esi,esi
    1701:	74 3d                	je     1740 <apm_sqr+0x60>
    1703:	48 83 7a f8 00       	cmp    QWORD PTR [rdx-0x8],0x0
    1708:	48 89 fb             	mov    rbx,rdi
    170b:	48 8d 42 f8          	lea    rax,[rdx-0x8]
    170f:	41 89 f6             	mov    r14d,esi
    1712:	74 0c                	je     1720 <apm_sqr+0x40>
    1714:	eb 42                	jmp    1758 <apm_sqr+0x78>
    1716:	48 83 e8 08          	sub    rax,0x8
    171a:	48 83 38 00          	cmp    QWORD PTR [rax],0x0
    171e:	75 2f                	jne    174f <apm_sqr+0x6f>
    1720:	41 83 ee 01          	sub    r14d,0x1
    1724:	75 f0                	jne    1716 <apm_sqr+0x36>
    1726:	4c 89 e7             	mov    rdi,r12
    1729:	c1 e6 04             	shl    esi,0x4
    172c:	89 f2                	mov    edx,esi
    172e:	31 f6                	xor    esi,esi
    1730:	e8 00 00 00 00       	call   1735 <apm_sqr+0x55>
    1735:	41 83 fe 3f          	cmp    r14d,0x3f
    1739:	77 50                	ja     178b <apm_sqr+0xab>
    173b:	45 85 f6             	test   r14d,r14d
    173e:	75 1e                	jne    175e <apm_sqr+0x7e>
    1740:	48 83 c4 50          	add    rsp,0x50
    1744:	5b                   	pop    rbx
    1745:	41 5c                	pop    r12
    1747:	41 5d                	pop    r13
    1749:	41 5e                	pop    r14
    174b:	41 5f                	pop    r15
    174d:	5d                   	pop    rbp
    174e:	c3                   	ret    
    174f:	44 39 f6             	cmp    esi,r14d
    1752:	0f 85 1e 02 00 00    	jne    1976 <apm_sqr+0x296>
    1758:	41 83 fe 3f          	cmp    r14d,0x3f
    175c:	77 2d                	ja     178b <apm_sqr+0xab>
    175e:	41 83 fe 0a          	cmp    r14d,0xa
    1762:	0f 87 e0 01 00 00    	ja     1948 <apm_sqr+0x268>
    1768:	4d 89 e0             	mov    r8,r12
    176b:	44 89 f1             	mov    ecx,r14d
    176e:	48 89 da             	mov    rdx,rbx
    1771:	44 89 f6             	mov    esi,r14d
    1774:	48 89 df             	mov    rdi,rbx
    1777:	e8 00 00 00 00       	call   177c <apm_sqr+0x9c>
    177c:	48 83 c4 50          	add    rsp,0x50
    1780:	5b                   	pop    rbx
    1781:	41 5c                	pop    r12
    1783:	41 5d                	pop    r13
    1785:	41 5e                	pop    r14
    1787:	41 5f                	pop    r15
    1789:	5d                   	pop    rbp
    178a:	c3                   	ret    
    178b:	44 89 f0             	mov    eax,r14d
    178e:	45 89 f5             	mov    r13d,r14d
    1791:	83 e0 01             	and    eax,0x1
    1794:	41 d1 ed             	shr    r13d,1
    1797:	89 45 d0             	mov    DWORD PTR [rbp-0x30],eax
    179a:	44 89 f0             	mov    eax,r14d
    179d:	44 89 e9             	mov    ecx,r13d
    17a0:	83 e0 fe             	and    eax,0xfffffffe
    17a3:	4c 8d 3c cd 00 00 00 	lea    r15,[rcx*8+0x0]
    17aa:	00 
    17ab:	48 89 4d 90          	mov    QWORD PTR [rbp-0x70],rcx
    17af:	89 c2                	mov    edx,eax
    17b1:	89 45 d4             	mov    DWORD PTR [rbp-0x2c],eax
    17b4:	48 c7 c0 00 00 00 00 	mov    rax,0x0
    17bb:	48 8d 3c d5 00 00 00 	lea    rdi,[rdx*8+0x0]
    17c2:	00 
    17c3:	4a 8d 0c 3b          	lea    rcx,[rbx+r15*1]
    17c7:	48 89 55 88          	mov    QWORD PTR [rbp-0x78],rdx
    17cb:	41 83 fd 40          	cmp    r13d,0x40
    17cf:	44 89 ee             	mov    esi,r13d
    17d2:	49 8d 14 3c          	lea    rdx,[r12+rdi*1]
    17d6:	48 89 4d a0          	mov    QWORD PTR [rbp-0x60],rcx
    17da:	48 89 c1             	mov    rcx,rax
    17dd:	48 89 7d b8          	mov    QWORD PTR [rbp-0x48],rdi
    17e1:	48 89 df             	mov    rdi,rbx
    17e4:	48 89 55 c0          	mov    QWORD PTR [rbp-0x40],rdx
    17e8:	48 c7 c2 00 00 00 00 	mov    rdx,0x0
    17ef:	48 0f 42 ca          	cmovb  rcx,rdx
    17f3:	4c 89 e2             	mov    rdx,r12
    17f6:	48 89 4d a8          	mov    QWORD PTR [rbp-0x58],rcx
    17fa:	e8 00 00 00 00       	call   17ff <apm_sqr+0x11f>
    17ff:	48 8b 55 c0          	mov    rdx,QWORD PTR [rbp-0x40]
    1803:	4a 8d 3c 3b          	lea    rdi,[rbx+r15*1]
    1807:	44 89 ee             	mov    esi,r13d
    180a:	48 8b 4d a8          	mov    rcx,QWORD PTR [rbp-0x58]
    180e:	e8 00 00 00 00       	call   1813 <apm_sqr+0x133>
    1813:	8b 45 d4             	mov    eax,DWORD PTR [rbp-0x2c]
    1816:	be c0 0c 00 00       	mov    esi,0xcc0
    181b:	89 c1                	mov    ecx,eax
    181d:	44 8d 1c 00          	lea    r11d,[rax+rax*1]
    1821:	c1 e1 04             	shl    ecx,0x4
    1824:	89 cf                	mov    edi,ecx
    1826:	44 89 5d 9c          	mov    DWORD PTR [rbp-0x64],r11d
    182a:	e8 00 00 00 00       	call   182f <apm_sqr+0x14f>
    182f:	8b 55 b8             	mov    edx,DWORD PTR [rbp-0x48]
    1832:	4c 89 e6             	mov    rsi,r12
    1835:	48 89 c7             	mov    rdi,rax
    1838:	48 89 45 c8          	mov    QWORD PTR [rbp-0x38],rax
    183c:	e8 00 00 00 00       	call   1841 <apm_sqr+0x161>
    1841:	4f 8d 0c 3c          	lea    r9,[r12+r15*1]
    1845:	8b 55 d4             	mov    edx,DWORD PTR [rbp-0x2c]
    1848:	48 8b 75 c0          	mov    rsi,QWORD PTR [rbp-0x40]
    184c:	4c 89 c9             	mov    rcx,r9
    184f:	4c 89 cf             	mov    rdi,r9
    1852:	4c 89 4d b0          	mov    QWORD PTR [rbp-0x50],r9
    1856:	e8 00 00 00 00       	call   185b <apm_sqr+0x17b>
    185b:	4c 8b 4d b0          	mov    r9,QWORD PTR [rbp-0x50]
    185f:	8b 55 d4             	mov    edx,DWORD PTR [rbp-0x2c]
    1862:	49 89 c7             	mov    r15,rax
    1865:	48 8b 75 c8          	mov    rsi,QWORD PTR [rbp-0x38]
    1869:	4c 89 cf             	mov    rdi,r9
    186c:	4c 89 c9             	mov    rcx,r9
    186f:	e8 00 00 00 00       	call   1874 <apm_sqr+0x194>
    1874:	48 8b 7d a0          	mov    rdi,QWORD PTR [rbp-0x60]
    1878:	44 89 ea             	mov    edx,r13d
    187b:	48 89 de             	mov    rsi,rbx
    187e:	49 01 c7             	add    r15,rax
    1881:	e8 00 00 00 00       	call   1886 <apm_sqr+0x1a6>
    1886:	85 c0                	test   eax,eax
    1888:	74 4d                	je     18d7 <apm_sqr+0x1f7>
    188a:	48 8b 4d c8          	mov    rcx,QWORD PTR [rbp-0x38]
    188e:	44 89 ea             	mov    edx,r13d
    1891:	0f 88 ce 00 00 00    	js     1965 <apm_sqr+0x285>
    1897:	48 8b 7d a0          	mov    rdi,QWORD PTR [rbp-0x60]
    189b:	48 89 de             	mov    rsi,rbx
    189e:	e8 00 00 00 00       	call   18a3 <apm_sqr+0x1c3>
    18a3:	48 8b 7d c8          	mov    rdi,QWORD PTR [rbp-0x38]
    18a7:	48 8b 45 b8          	mov    rax,QWORD PTR [rbp-0x48]
    18ab:	44 89 ee             	mov    esi,r13d
    18ae:	48 01 f8             	add    rax,rdi
    18b1:	48 89 c2             	mov    rdx,rax
    18b4:	48 89 45 a0          	mov    QWORD PTR [rbp-0x60],rax
    18b8:	48 8b 45 a8          	mov    rax,QWORD PTR [rbp-0x58]
    18bc:	e8 00 00 00 00       	call   18c1 <apm_sqr+0x1e1>
    18c1:	48 8b 45 a0          	mov    rax,QWORD PTR [rbp-0x60]
    18c5:	8b 55 d4             	mov    edx,DWORD PTR [rbp-0x2c]
    18c8:	48 8b 7d b0          	mov    rdi,QWORD PTR [rbp-0x50]
    18cc:	48 89 c6             	mov    rsi,rax
    18cf:	e8 00 00 00 00       	call   18d4 <apm_sqr+0x1f4>
    18d4:	49 29 c7             	sub    r15,rax
    18d7:	48 8b 7d c8          	mov    rdi,QWORD PTR [rbp-0x38]
    18db:	e8 00 00 00 00       	call   18e0 <apm_sqr+0x200>
    18e0:	4d 85 ff             	test   r15,r15
    18e3:	0f 85 9d 00 00 00    	jne    1986 <apm_sqr+0x2a6>
    18e9:	8b 45 d0             	mov    eax,DWORD PTR [rbp-0x30]
    18ec:	85 c0                	test   eax,eax
    18ee:	0f 84 4c fe ff ff    	je     1740 <apm_sqr+0x60>
    18f4:	4c 8b 6d b8          	mov    r13,QWORD PTR [rbp-0x48]
    18f8:	8b 45 9c             	mov    eax,DWORD PTR [rbp-0x64]
    18fb:	48 89 df             	mov    rdi,rbx
    18fe:	48 8b 4d c0          	mov    rcx,QWORD PTR [rbp-0x40]
    1902:	8b 75 d4             	mov    esi,DWORD PTR [rbp-0x2c]
    1905:	49 01 dd             	add    r13,rbx
    1908:	49 8b 55 00          	mov    rdx,QWORD PTR [r13+0x0]
    190c:	4d 8d 3c c4          	lea    r15,[r12+rax*8]
    1910:	e8 00 00 00 00       	call   1915 <apm_sqr+0x235>
    1915:	49 89 07             	mov    QWORD PTR [r15],rax
    1918:	8b 45 9c             	mov    eax,DWORD PTR [rbp-0x64]
    191b:	44 89 f6             	mov    esi,r14d
    191e:	48 8b 4d c0          	mov    rcx,QWORD PTR [rbp-0x40]
    1922:	49 8b 55 00          	mov    rdx,QWORD PTR [r13+0x0]
    1926:	48 89 df             	mov    rdi,rbx
    1929:	83 c0 01             	add    eax,0x1
    192c:	4d 8d 24 c4          	lea    r12,[r12+rax*8]
    1930:	e8 00 00 00 00       	call   1935 <apm_sqr+0x255>
    1935:	49 89 04 24          	mov    QWORD PTR [r12],rax
    1939:	48 83 c4 50          	add    rsp,0x50
    193d:	5b                   	pop    rbx
    193e:	41 5c                	pop    r12
    1940:	41 5d                	pop    r13
    1942:	41 5e                	pop    r14
    1944:	41 5f                	pop    r15
    1946:	5d                   	pop    rbp
    1947:	c3                   	ret    
    1948:	4c 89 e2             	mov    rdx,r12
    194b:	44 89 f6             	mov    esi,r14d
    194e:	48 89 df             	mov    rdi,rbx
    1951:	e8 7a fb ff ff       	call   14d0 <apm_sqr_base.part.0>
    1956:	48 83 c4 50          	add    rsp,0x50
    195a:	5b                   	pop    rbx
    195b:	41 5c                	pop    r12
    195d:	41 5d                	pop    r13
    195f:	41 5e                	pop    r14
    1961:	41 5f                	pop    r15
    1963:	5d                   	pop    rbp
    1964:	c3                   	ret    
    1965:	48 8b 75 a0          	mov    rsi,QWORD PTR [rbp-0x60]
    1969:	48 89 df             	mov    rdi,rbx
    196c:	e8 00 00 00 00       	call   1971 <apm_sqr+0x291>
    1971:	e9 2d ff ff ff       	jmp    18a3 <apm_sqr+0x1c3>
    1976:	43 8d 04 36          	lea    eax,[r14+r14*1]
    197a:	44 29 f6             	sub    esi,r14d
    197d:	49 8d 3c c4          	lea    rdi,[r12+rax*8]
    1981:	e9 a3 fd ff ff       	jmp    1729 <apm_sqr+0x49>
    1986:	48 8b 45 90          	mov    rax,QWORD PTR [rbp-0x70]
    198a:	48 03 45 88          	add    rax,QWORD PTR [rbp-0x78]
    198e:	4c 89 fa             	mov    rdx,r15
    1991:	44 89 ee             	mov    esi,r13d
    1994:	49 8d 3c c4          	lea    rdi,[r12+rax*8]
    1998:	e8 00 00 00 00       	call   199d <apm_sqr+0x2bd>
    199d:	e9 47 ff ff ff       	jmp    18e9 <apm_sqr+0x209>
    19a2:	66 2e 0f 1f 84 00 00 	nop    WORD PTR cs:[rax+rax*1+0x0]
    19a9:	00 00 00 
    19ac:	0f 1f 40 00          	nop    DWORD PTR [rax+0x0]

00000000000019b0 <_apm_mul_base>:
    19b0:	e8 00 00 00 00       	call   19b5 <_apm_mul_base+0x5>
    19b5:	55                   	push   rbp
    19b6:	89 f0                	mov    eax,esi
    19b8:	48 89 e5             	mov    rbp,rsp
    19bb:	41 57                	push   r15
    19bd:	41 56                	push   r14
    19bf:	41 55                	push   r13
    19c1:	41 54                	push   r12
    19c3:	49 89 d6             	mov    r14,rdx
    19c6:	53                   	push   rbx
    19c7:	4d 89 c5             	mov    r13,r8
    19ca:	48 8d 14 c7          	lea    rdx,[rdi+rax*8]
    19ce:	48 83 ec 10          	sub    rsp,0x10
    19d2:	85 f6                	test   esi,esi
    19d4:	48 89 7d d0          	mov    QWORD PTR [rbp-0x30],rdi
    19d8:	0f 84 27 01 00 00    	je     1b05 <_apm_mul_base+0x155>
    19de:	48 83 7a f8 00       	cmp    QWORD PTR [rdx-0x8],0x0
    19e3:	48 8d 42 f8          	lea    rax,[rdx-0x8]
    19e7:	89 f3                	mov    ebx,esi
    19e9:	74 13                	je     19fe <_apm_mul_base+0x4e>
    19eb:	e9 17 01 00 00       	jmp    1b07 <_apm_mul_base+0x157>
    19f0:	48 83 e8 08          	sub    rax,0x8
    19f4:	48 83 38 00          	cmp    QWORD PTR [rax],0x0
    19f8:	0f 85 f4 00 00 00    	jne    1af2 <_apm_mul_base+0x142>
    19fe:	83 eb 01             	sub    ebx,0x1
    1a01:	75 ed                	jne    19f0 <_apm_mul_base+0x40>
    1a03:	89 c8                	mov    eax,ecx
    1a05:	45 31 e4             	xor    r12d,r12d
    1a08:	41 bf 01 00 00 00    	mov    r15d,0x1
    1a0e:	49 8d 14 c6          	lea    rdx,[r14+rax*8]
    1a12:	31 c0                	xor    eax,eax
    1a14:	85 c9                	test   ecx,ecx
    1a16:	74 31                	je     1a49 <_apm_mul_base+0x99>
    1a18:	48 83 7a f8 00       	cmp    QWORD PTR [rdx-0x8],0x0
    1a1d:	48 8d 42 f8          	lea    rax,[rdx-0x8]
    1a21:	41 89 cc             	mov    r12d,ecx
    1a24:	74 0c                	je     1a32 <_apm_mul_base+0x82>
    1a26:	eb 4a                	jmp    1a72 <_apm_mul_base+0xc2>
    1a28:	48 83 e8 08          	sub    rax,0x8
    1a2c:	48 83 38 00          	cmp    QWORD PTR [rax],0x0
    1a30:	75 40                	jne    1a72 <_apm_mul_base+0xc2>
    1a32:	41 83 ec 01          	sub    r12d,0x1
    1a36:	75 f0                	jne    1a28 <_apm_mul_base+0x78>
    1a38:	01 ce                	add    esi,ecx
    1a3a:	45 31 e4             	xor    r12d,r12d
    1a3d:	89 d8                	mov    eax,ebx
    1a3f:	39 de                	cmp    esi,ebx
    1a41:	41 bf 01 00 00 00    	mov    r15d,0x1
    1a47:	74 1a                	je     1a63 <_apm_mul_base+0xb3>
    1a49:	29 c6                	sub    esi,eax
    1a4b:	49 8d 7c c5 00       	lea    rdi,[r13+rax*8+0x0]
    1a50:	8d 14 f5 00 00 00 00 	lea    edx,[rsi*8+0x0]
    1a57:	31 f6                	xor    esi,esi
    1a59:	e8 00 00 00 00       	call   1a5e <_apm_mul_base+0xae>
    1a5e:	45 84 ff             	test   r15b,r15b
    1a61:	74 24                	je     1a87 <_apm_mul_base+0xd7>
    1a63:	48 83 c4 10          	add    rsp,0x10
    1a67:	5b                   	pop    rbx
    1a68:	41 5c                	pop    r12
    1a6a:	41 5d                	pop    r13
    1a6c:	41 5e                	pop    r14
    1a6e:	41 5f                	pop    r15
    1a70:	5d                   	pop    rbp
    1a71:	c3                   	ret    
    1a72:	42 8d 04 23          	lea    eax,[rbx+r12*1]
    1a76:	01 ce                	add    esi,ecx
    1a78:	85 db                	test   ebx,ebx
    1a7a:	41 0f 94 c7          	sete   r15b
    1a7e:	39 f0                	cmp    eax,esi
    1a80:	75 c7                	jne    1a49 <_apm_mul_base+0x99>
    1a82:	45 84 ff             	test   r15b,r15b
    1a85:	75 dc                	jne    1a63 <_apm_mul_base+0xb3>
    1a87:	49 8b 16             	mov    rdx,QWORD PTR [r14]
    1a8a:	48 8b 7d d0          	mov    rdi,QWORD PTR [rbp-0x30]
    1a8e:	89 d8                	mov    eax,ebx
    1a90:	4d 8d 7c c5 00       	lea    r15,[r13+rax*8+0x0]
    1a95:	4c 89 e9             	mov    rcx,r13
    1a98:	89 de                	mov    esi,ebx
    1a9a:	e8 00 00 00 00       	call   1a9f <_apm_mul_base+0xef>
    1a9f:	41 83 fc 01          	cmp    r12d,0x1
    1aa3:	49 89 07             	mov    QWORD PTR [r15],rax
    1aa6:	74 bb                	je     1a63 <_apm_mul_base+0xb3>
    1aa8:	41 8d 44 24 fe       	lea    eax,[r12-0x2]
    1aad:	41 bc 08 00 00 00    	mov    r12d,0x8
    1ab3:	48 8d 04 c5 10 00 00 	lea    rax,[rax*8+0x10]
    1aba:	00 
    1abb:	48 89 45 c8          	mov    QWORD PTR [rbp-0x38],rax
    1abf:	4b 8b 14 26          	mov    rdx,QWORD PTR [r14+r12*1]
    1ac3:	48 8b 7d d0          	mov    rdi,QWORD PTR [rbp-0x30]
    1ac7:	49 83 c5 08          	add    r13,0x8
    1acb:	4c 89 e9             	mov    rcx,r13
    1ace:	89 de                	mov    esi,ebx
    1ad0:	e8 00 00 00 00       	call   1ad5 <_apm_mul_base+0x125>
    1ad5:	4b 89 04 27          	mov    QWORD PTR [r15+r12*1],rax
    1ad9:	49 83 c4 08          	add    r12,0x8
    1add:	4c 39 65 c8          	cmp    QWORD PTR [rbp-0x38],r12
    1ae1:	75 dc                	jne    1abf <_apm_mul_base+0x10f>
    1ae3:	48 83 c4 10          	add    rsp,0x10
    1ae7:	5b                   	pop    rbx
    1ae8:	41 5c                	pop    r12
    1aea:	41 5d                	pop    r13
    1aec:	41 5e                	pop    r14
    1aee:	41 5f                	pop    r15
    1af0:	5d                   	pop    rbp
    1af1:	c3                   	ret    
    1af2:	89 c8                	mov    eax,ecx
    1af4:	85 c9                	test   ecx,ecx
    1af6:	49 8d 14 c6          	lea    rdx,[r14+rax*8]
    1afa:	0f 85 18 ff ff ff    	jne    1a18 <_apm_mul_base+0x68>
    1b00:	e9 33 ff ff ff       	jmp    1a38 <_apm_mul_base+0x88>
    1b05:	31 db                	xor    ebx,ebx
    1b07:	89 c8                	mov    eax,ecx
    1b09:	85 c9                	test   ecx,ecx
    1b0b:	49 8d 14 c6          	lea    rdx,[r14+rax*8]
    1b0f:	0f 85 03 ff ff ff    	jne    1a18 <_apm_mul_base+0x68>
    1b15:	e9 49 ff ff ff       	jmp    1a63 <_apm_mul_base+0xb3>
    1b1a:	66 0f 1f 44 00 00    	nop    WORD PTR [rax+rax*1+0x0]

0000000000001b20 <apm_mul_n>:
    1b20:	e8 00 00 00 00       	call   1b25 <apm_mul_n+0x5>
    1b25:	55                   	push   rbp
    1b26:	48 89 e5             	mov    rbp,rsp
    1b29:	41 57                	push   r15
    1b2b:	41 56                	push   r14
    1b2d:	41 55                	push   r13
    1b2f:	41 54                	push   r12
    1b31:	49 89 fd             	mov    r13,rdi
    1b34:	53                   	push   rbx
    1b35:	48 83 ec 60          	sub    rsp,0x60
    1b39:	48 39 f7             	cmp    rdi,rsi
    1b3c:	89 55 c4             	mov    DWORD PTR [rbp-0x3c],edx
    1b3f:	48 89 4d d0          	mov    QWORD PTR [rbp-0x30],rcx
    1b43:	0f 84 cf 02 00 00    	je     1e18 <apm_mul_n+0x2f8>
    1b49:	83 7d c4 1f          	cmp    DWORD PTR [rbp-0x3c],0x1f
    1b4d:	49 89 f4             	mov    r12,rsi
    1b50:	0f 86 4b 02 00 00    	jbe    1da1 <apm_mul_n+0x281>
    1b56:	8b 45 c4             	mov    eax,DWORD PTR [rbp-0x3c]
    1b59:	89 c1                	mov    ecx,eax
    1b5b:	83 e1 01             	and    ecx,0x1
    1b5e:	29 c8                	sub    eax,ecx
    1b60:	89 4d 94             	mov    DWORD PTR [rbp-0x6c],ecx
    1b63:	89 c3                	mov    ebx,eax
    1b65:	4c 8d 3c c5 00 00 00 	lea    r15,[rax*8+0x0]
    1b6c:	00 
    1b6d:	89 45 c0             	mov    DWORD PTR [rbp-0x40],eax
    1b70:	d1 eb                	shr    ebx,1
    1b72:	48 89 45 98          	mov    QWORD PTR [rbp-0x68],rax
    1b76:	48 8b 45 d0          	mov    rax,QWORD PTR [rbp-0x30]
    1b7a:	89 de                	mov    esi,ebx
    1b7c:	4c 8d 34 f5 00 00 00 	lea    r14,[rsi*8+0x0]
    1b83:	00 
    1b84:	48 89 b5 78 ff ff ff 	mov    QWORD PTR [rbp-0x88],rsi
    1b8b:	4c 01 f8             	add    rax,r15
    1b8e:	83 fb 1f             	cmp    ebx,0x1f
    1b91:	4b 8d 0c 34          	lea    rcx,[r12+r14*1]
    1b95:	48 89 45 b8          	mov    QWORD PTR [rbp-0x48],rax
    1b99:	48 89 4d a8          	mov    QWORD PTR [rbp-0x58],rcx
    1b9d:	0f 87 4e 02 00 00    	ja     1df1 <apm_mul_n+0x2d1>
    1ba3:	4c 8b 45 d0          	mov    r8,QWORD PTR [rbp-0x30]
    1ba7:	89 d9                	mov    ecx,ebx
    1ba9:	4c 89 e2             	mov    rdx,r12
    1bac:	89 de                	mov    esi,ebx
    1bae:	e8 00 00 00 00       	call   1bb3 <apm_mul_n+0x93>
    1bb3:	4c 8b 45 b8          	mov    r8,QWORD PTR [rbp-0x48]
    1bb7:	4b 8d 14 34          	lea    rdx,[r12+r14*1]
    1bbb:	4b 8d 7c 35 00       	lea    rdi,[r13+r14*1+0x0]
    1bc0:	89 d9                	mov    ecx,ebx
    1bc2:	89 de                	mov    esi,ebx
    1bc4:	e8 00 00 00 00       	call   1bc9 <apm_mul_n+0xa9>
    1bc9:	44 89 f8             	mov    eax,r15d
    1bcc:	be c0 0c 00 00       	mov    esi,0xcc0
    1bd1:	49 89 c7             	mov    r15,rax
    1bd4:	48 89 c7             	mov    rdi,rax
    1bd7:	48 89 45 88          	mov    QWORD PTR [rbp-0x78],rax
    1bdb:	e8 00 00 00 00       	call   1be0 <apm_mul_n+0xc0>
    1be0:	4c 89 fa             	mov    rdx,r15
    1be3:	4c 8b 7d d0          	mov    r15,QWORD PTR [rbp-0x30]
    1be7:	48 89 c7             	mov    rdi,rax
    1bea:	4c 89 fe             	mov    rsi,r15
    1bed:	e8 00 00 00 00       	call   1bf2 <apm_mul_n+0xd2>
    1bf2:	4b 8d 14 37          	lea    rdx,[r15+r14*1]
    1bf6:	48 8b 75 b8          	mov    rsi,QWORD PTR [rbp-0x48]
    1bfa:	48 89 45 c8          	mov    QWORD PTR [rbp-0x38],rax
    1bfe:	48 89 d7             	mov    rdi,rdx
    1c01:	48 89 d1             	mov    rcx,rdx
    1c04:	8b 55 c0             	mov    edx,DWORD PTR [rbp-0x40]
    1c07:	48 89 7d b0          	mov    QWORD PTR [rbp-0x50],rdi
    1c0b:	e8 00 00 00 00       	call   1c10 <apm_mul_n+0xf0>
    1c10:	48 8b 7d b0          	mov    rdi,QWORD PTR [rbp-0x50]
    1c14:	8b 55 c0             	mov    edx,DWORD PTR [rbp-0x40]
    1c17:	49 89 c7             	mov    r15,rax
    1c1a:	48 8b 75 c8          	mov    rsi,QWORD PTR [rbp-0x38]
    1c1e:	48 89 f9             	mov    rcx,rdi
    1c21:	e8 00 00 00 00       	call   1c26 <apm_mul_n+0x106>
    1c26:	4b 8d 7c 35 00       	lea    rdi,[r13+r14*1+0x0]
    1c2b:	4c 01 f8             	add    rax,r15
    1c2e:	89 da                	mov    edx,ebx
    1c30:	4c 89 ee             	mov    rsi,r13
    1c33:	48 89 45 80          	mov    QWORD PTR [rbp-0x80],rax
    1c37:	e8 00 00 00 00       	call   1c3c <apm_mul_n+0x11c>
    1c3c:	85 c0                	test   eax,eax
    1c3e:	41 89 c7             	mov    r15d,eax
    1c41:	48 8b 4d c8          	mov    rcx,QWORD PTR [rbp-0x38]
    1c45:	89 da                	mov    edx,ebx
    1c47:	0f 88 74 01 00 00    	js     1dc1 <apm_mul_n+0x2a1>
    1c4d:	4b 8d 7c 35 00       	lea    rdi,[r13+r14*1+0x0]
    1c52:	4c 89 ee             	mov    rsi,r13
    1c55:	e8 00 00 00 00       	call   1c5a <apm_mul_n+0x13a>
    1c5a:	4c 03 75 c8          	add    r14,QWORD PTR [rbp-0x38]
    1c5e:	48 8b 75 a8          	mov    rsi,QWORD PTR [rbp-0x58]
    1c62:	89 da                	mov    edx,ebx
    1c64:	4c 89 e7             	mov    rdi,r12
    1c67:	4c 89 75 a0          	mov    QWORD PTR [rbp-0x60],r14
    1c6b:	e8 00 00 00 00       	call   1c70 <apm_mul_n+0x150>
    1c70:	85 c0                	test   eax,eax
    1c72:	0f 88 5b 01 00 00    	js     1dd3 <apm_mul_n+0x2b3>
    1c78:	48 8b 4d a0          	mov    rcx,QWORD PTR [rbp-0x60]
    1c7c:	48 8b 75 a8          	mov    rsi,QWORD PTR [rbp-0x58]
    1c80:	89 da                	mov    edx,ebx
    1c82:	4c 89 e7             	mov    rdi,r12
    1c85:	41 c1 ef 1f          	shr    r15d,0x1f
    1c89:	e8 00 00 00 00       	call   1c8e <apm_mul_n+0x16e>
    1c8e:	48 8b 7d 88          	mov    rdi,QWORD PTR [rbp-0x78]
    1c92:	be c0 0c 00 00       	mov    esi,0xcc0
    1c97:	e8 00 00 00 00       	call   1c9c <apm_mul_n+0x17c>
    1c9c:	83 fb 1f             	cmp    ebx,0x1f
    1c9f:	49 89 c6             	mov    r14,rax
    1ca2:	0f 87 8a 01 00 00    	ja     1e32 <apm_mul_n+0x312>
    1ca8:	48 8b 55 a0          	mov    rdx,QWORD PTR [rbp-0x60]
    1cac:	48 8b 7d c8          	mov    rdi,QWORD PTR [rbp-0x38]
    1cb0:	49 89 c0             	mov    r8,rax
    1cb3:	89 d9                	mov    ecx,ebx
    1cb5:	89 de                	mov    esi,ebx
    1cb7:	e8 00 00 00 00       	call   1cbc <apm_mul_n+0x19c>
    1cbc:	48 8b 7d c8          	mov    rdi,QWORD PTR [rbp-0x38]
    1cc0:	e8 00 00 00 00       	call   1cc5 <apm_mul_n+0x1a5>
    1cc5:	45 84 ff             	test   r15b,r15b
    1cc8:	0f 84 87 00 00 00    	je     1d55 <apm_mul_n+0x235>
    1cce:	8b 55 c0             	mov    edx,DWORD PTR [rbp-0x40]
    1cd1:	48 8b 7d b0          	mov    rdi,QWORD PTR [rbp-0x50]
    1cd5:	4c 89 f6             	mov    rsi,r14
    1cd8:	e8 00 00 00 00       	call   1cdd <apm_mul_n+0x1bd>
    1cdd:	4c 8b 7d 80          	mov    r15,QWORD PTR [rbp-0x80]
    1ce1:	4c 89 f7             	mov    rdi,r14
    1ce4:	49 29 c7             	sub    r15,rax
    1ce7:	e8 00 00 00 00       	call   1cec <apm_mul_n+0x1cc>
    1cec:	4d 85 ff             	test   r15,r15
    1cef:	0f 85 8a 00 00 00    	jne    1d7f <apm_mul_n+0x25f>
    1cf5:	8b 45 94             	mov    eax,DWORD PTR [rbp-0x6c]
    1cf8:	85 c0                	test   eax,eax
    1cfa:	74 4a                	je     1d46 <apm_mul_n+0x226>
    1cfc:	8b 75 c0             	mov    esi,DWORD PTR [rbp-0x40]
    1cff:	4c 8b 7d d0          	mov    r15,QWORD PTR [rbp-0x30]
    1d03:	4c 89 ef             	mov    rdi,r13
    1d06:	48 8b 4d b8          	mov    rcx,QWORD PTR [rbp-0x48]
    1d0a:	8d 04 36             	lea    eax,[rsi+rsi*1]
    1d0d:	48 89 c3             	mov    rbx,rax
    1d10:	4d 8d 34 c7          	lea    r14,[r15+rax*8]
    1d14:	48 8b 45 98          	mov    rax,QWORD PTR [rbp-0x68]
    1d18:	49 8b 14 c4          	mov    rdx,QWORD PTR [r12+rax*8]
    1d1c:	e8 00 00 00 00       	call   1d21 <apm_mul_n+0x201>
    1d21:	49 89 06             	mov    QWORD PTR [r14],rax
    1d24:	8d 43 01             	lea    eax,[rbx+0x1]
    1d27:	48 8b 4d b8          	mov    rcx,QWORD PTR [rbp-0x48]
    1d2b:	8b 75 c4             	mov    esi,DWORD PTR [rbp-0x3c]
    1d2e:	4c 89 e7             	mov    rdi,r12
    1d31:	49 8d 1c c7          	lea    rbx,[r15+rax*8]
    1d35:	48 8b 45 98          	mov    rax,QWORD PTR [rbp-0x68]
    1d39:	49 8b 54 c5 00       	mov    rdx,QWORD PTR [r13+rax*8+0x0]
    1d3e:	e8 00 00 00 00       	call   1d43 <apm_mul_n+0x223>
    1d43:	48 89 03             	mov    QWORD PTR [rbx],rax
    1d46:	48 83 c4 60          	add    rsp,0x60
    1d4a:	5b                   	pop    rbx
    1d4b:	41 5c                	pop    r12
    1d4d:	41 5d                	pop    r13
    1d4f:	41 5e                	pop    r14
    1d51:	41 5f                	pop    r15
    1d53:	5d                   	pop    rbp
    1d54:	c3                   	ret    
    1d55:	48 8b 7d b0          	mov    rdi,QWORD PTR [rbp-0x50]
    1d59:	8b 55 c0             	mov    edx,DWORD PTR [rbp-0x40]
    1d5c:	4c 89 f6             	mov    rsi,r14
    1d5f:	48 89 f9             	mov    rcx,rdi
    1d62:	e8 00 00 00 00       	call   1d67 <apm_mul_n+0x247>
    1d67:	4c 8b 7d 80          	mov    r15,QWORD PTR [rbp-0x80]
    1d6b:	4c 89 f7             	mov    rdi,r14
    1d6e:	49 01 c7             	add    r15,rax
    1d71:	e8 00 00 00 00       	call   1d76 <apm_mul_n+0x256>
    1d76:	4d 85 ff             	test   r15,r15
    1d79:	0f 84 76 ff ff ff    	je     1cf5 <apm_mul_n+0x1d5>
    1d7f:	48 8b 85 78 ff ff ff 	mov    rax,QWORD PTR [rbp-0x88]
    1d86:	48 03 45 98          	add    rax,QWORD PTR [rbp-0x68]
    1d8a:	4c 89 fa             	mov    rdx,r15
    1d8d:	48 8b 4d d0          	mov    rcx,QWORD PTR [rbp-0x30]
    1d91:	89 de                	mov    esi,ebx
    1d93:	48 8d 3c c1          	lea    rdi,[rcx+rax*8]
    1d97:	e8 00 00 00 00       	call   1d9c <apm_mul_n+0x27c>
    1d9c:	e9 54 ff ff ff       	jmp    1cf5 <apm_mul_n+0x1d5>
    1da1:	8b 75 c4             	mov    esi,DWORD PTR [rbp-0x3c]
    1da4:	4c 8b 45 d0          	mov    r8,QWORD PTR [rbp-0x30]
    1da8:	4c 89 e2             	mov    rdx,r12
    1dab:	89 f1                	mov    ecx,esi
    1dad:	e8 00 00 00 00       	call   1db2 <apm_mul_n+0x292>
    1db2:	48 83 c4 60          	add    rsp,0x60
    1db6:	5b                   	pop    rbx
    1db7:	41 5c                	pop    r12
    1db9:	41 5d                	pop    r13
    1dbb:	41 5e                	pop    r14
    1dbd:	41 5f                	pop    r15
    1dbf:	5d                   	pop    rbp
    1dc0:	c3                   	ret    
    1dc1:	4b 8d 74 35 00       	lea    rsi,[r13+r14*1+0x0]
    1dc6:	4c 89 ef             	mov    rdi,r13
    1dc9:	e8 00 00 00 00       	call   1dce <apm_mul_n+0x2ae>
    1dce:	e9 87 fe ff ff       	jmp    1c5a <apm_mul_n+0x13a>
    1dd3:	48 8b 4d a0          	mov    rcx,QWORD PTR [rbp-0x60]
    1dd7:	48 8b 7d a8          	mov    rdi,QWORD PTR [rbp-0x58]
    1ddb:	89 da                	mov    edx,ebx
    1ddd:	4c 89 e6             	mov    rsi,r12
    1de0:	41 f7 d7             	not    r15d
    1de3:	41 c1 ef 1f          	shr    r15d,0x1f
    1de7:	e8 00 00 00 00       	call   1dec <apm_mul_n+0x2cc>
    1dec:	e9 9d fe ff ff       	jmp    1c8e <apm_mul_n+0x16e>
    1df1:	48 8b 4d d0          	mov    rcx,QWORD PTR [rbp-0x30]
    1df5:	89 da                	mov    edx,ebx
    1df7:	4c 89 e6             	mov    rsi,r12
    1dfa:	e8 21 fd ff ff       	call   1b20 <apm_mul_n>
    1dff:	48 8b 4d b8          	mov    rcx,QWORD PTR [rbp-0x48]
    1e03:	4b 8d 34 34          	lea    rsi,[r12+r14*1]
    1e07:	4b 8d 7c 35 00       	lea    rdi,[r13+r14*1+0x0]
    1e0c:	89 da                	mov    edx,ebx
    1e0e:	e8 0d fd ff ff       	call   1b20 <apm_mul_n>
    1e13:	e9 b1 fd ff ff       	jmp    1bc9 <apm_mul_n+0xa9>
    1e18:	8b 75 c4             	mov    esi,DWORD PTR [rbp-0x3c]
    1e1b:	48 89 ca             	mov    rdx,rcx
    1e1e:	e8 00 00 00 00       	call   1e23 <apm_mul_n+0x303>
    1e23:	48 83 c4 60          	add    rsp,0x60
    1e27:	5b                   	pop    rbx
    1e28:	41 5c                	pop    r12
    1e2a:	41 5d                	pop    r13
    1e2c:	41 5e                	pop    r14
    1e2e:	41 5f                	pop    r15
    1e30:	5d                   	pop    rbp
    1e31:	c3                   	ret    
    1e32:	48 8b 75 a0          	mov    rsi,QWORD PTR [rbp-0x60]
    1e36:	48 8b 7d c8          	mov    rdi,QWORD PTR [rbp-0x38]
    1e3a:	48 89 c1             	mov    rcx,rax
    1e3d:	89 da                	mov    edx,ebx
    1e3f:	e8 dc fc ff ff       	call   1b20 <apm_mul_n>
    1e44:	e9 73 fe ff ff       	jmp    1cbc <apm_mul_n+0x19c>
    1e49:	0f 1f 80 00 00 00 00 	nop    DWORD PTR [rax+0x0]

0000000000001e50 <apm_mul>:
    1e50:	e8 00 00 00 00       	call   1e55 <apm_mul+0x5>
    1e55:	55                   	push   rbp
    1e56:	89 f0                	mov    eax,esi
    1e58:	48 89 e5             	mov    rbp,rsp
    1e5b:	41 57                	push   r15
    1e5d:	41 56                	push   r14
    1e5f:	41 55                	push   r13
    1e61:	41 54                	push   r12
    1e63:	49 89 d6             	mov    r14,rdx
    1e66:	53                   	push   rbx
    1e67:	49 89 ff             	mov    r15,rdi
    1e6a:	4d 89 c5             	mov    r13,r8
    1e6d:	48 8d 14 c7          	lea    rdx,[rdi+rax*8]
    1e71:	48 83 ec 20          	sub    rsp,0x20
    1e75:	85 f6                	test   esi,esi
    1e77:	0f 84 e8 01 00 00    	je     2065 <apm_mul+0x215>
    1e7d:	48 83 7a f8 00       	cmp    QWORD PTR [rdx-0x8],0x0
    1e82:	48 8d 42 f8          	lea    rax,[rdx-0x8]
    1e86:	89 f3                	mov    ebx,esi
    1e88:	74 0c                	je     1e96 <apm_mul+0x46>
    1e8a:	eb 0f                	jmp    1e9b <apm_mul+0x4b>
    1e8c:	48 83 e8 08          	sub    rax,0x8
    1e90:	48 83 38 00          	cmp    QWORD PTR [rax],0x0
    1e94:	75 05                	jne    1e9b <apm_mul+0x4b>
    1e96:	83 eb 01             	sub    ebx,0x1
    1e99:	75 f1                	jne    1e8c <apm_mul+0x3c>
    1e9b:	89 c8                	mov    eax,ecx
    1e9d:	85 c9                	test   ecx,ecx
    1e9f:	49 8d 14 c6          	lea    rdx,[r14+rax*8]
    1ea3:	74 22                	je     1ec7 <apm_mul+0x77>
    1ea5:	48 83 7a f8 00       	cmp    QWORD PTR [rdx-0x8],0x0
    1eaa:	48 8d 42 f8          	lea    rax,[rdx-0x8]
    1eae:	41 89 cc             	mov    r12d,ecx
    1eb1:	74 0c                	je     1ebf <apm_mul+0x6f>
    1eb3:	eb 32                	jmp    1ee7 <apm_mul+0x97>
    1eb5:	48 83 e8 08          	sub    rax,0x8
    1eb9:	48 83 38 00          	cmp    QWORD PTR [rax],0x0
    1ebd:	75 28                	jne    1ee7 <apm_mul+0x97>
    1ebf:	41 83 ec 01          	sub    r12d,0x1
    1ec3:	75 f0                	jne    1eb5 <apm_mul+0x65>
    1ec5:	01 ce                	add    esi,ecx
    1ec7:	8d 14 f5 00 00 00 00 	lea    edx,[rsi*8+0x0]
    1ece:	4c 89 ef             	mov    rdi,r13
    1ed1:	31 f6                	xor    esi,esi
    1ed3:	e8 00 00 00 00       	call   1ed8 <apm_mul+0x88>
    1ed8:	48 83 c4 20          	add    rsp,0x20
    1edc:	5b                   	pop    rbx
    1edd:	41 5c                	pop    r12
    1edf:	41 5d                	pop    r13
    1ee1:	41 5e                	pop    r14
    1ee3:	41 5f                	pop    r15
    1ee5:	5d                   	pop    rbp
    1ee6:	c3                   	ret    
    1ee7:	01 ce                	add    esi,ecx
    1ee9:	85 db                	test   ebx,ebx
    1eeb:	74 da                	je     1ec7 <apm_mul+0x77>
    1eed:	46 8d 04 23          	lea    r8d,[rbx+r12*1]
    1ef1:	41 39 f0             	cmp    r8d,esi
    1ef4:	74 21                	je     1f17 <apm_mul+0xc7>
    1ef6:	44 29 c6             	sub    esi,r8d
    1ef9:	44 89 c0             	mov    eax,r8d
    1efc:	44 89 45 d0          	mov    DWORD PTR [rbp-0x30],r8d
    1f00:	8d 14 f5 00 00 00 00 	lea    edx,[rsi*8+0x0]
    1f07:	49 8d 7c c5 00       	lea    rdi,[r13+rax*8+0x0]
    1f0c:	31 f6                	xor    esi,esi
    1f0e:	e8 00 00 00 00       	call   1f13 <apm_mul+0xc3>
    1f13:	44 8b 45 d0          	mov    r8d,DWORD PTR [rbp-0x30]
    1f17:	44 39 e3             	cmp    ebx,r12d
    1f1a:	72 3b                	jb     1f57 <apm_mul+0x107>
    1f1c:	41 83 fc 1f          	cmp    r12d,0x1f
    1f20:	0f 86 35 01 00 00    	jbe    205b <apm_mul+0x20b>
    1f26:	4c 89 e9             	mov    rcx,r13
    1f29:	44 89 e2             	mov    edx,r12d
    1f2c:	4c 89 f6             	mov    rsi,r14
    1f2f:	4c 89 ff             	mov    rdi,r15
    1f32:	44 89 45 d0          	mov    DWORD PTR [rbp-0x30],r8d
    1f36:	e8 e5 fb ff ff       	call   1b20 <apm_mul_n>
    1f3b:	44 39 e3             	cmp    ebx,r12d
    1f3e:	44 8b 45 d0          	mov    r8d,DWORD PTR [rbp-0x30]
    1f42:	74 94                	je     1ed8 <apm_mul+0x88>
    1f44:	44 89 e0             	mov    eax,r12d
    1f47:	41 89 dc             	mov    r12d,ebx
    1f4a:	89 c3                	mov    ebx,eax
    1f4c:	4c 89 f0             	mov    rax,r14
    1f4f:	4d 89 fe             	mov    r14,r15
    1f52:	49 89 c7             	mov    r15,rax
    1f55:	eb 21                	jmp    1f78 <apm_mul+0x128>
    1f57:	83 fb 1f             	cmp    ebx,0x1f
    1f5a:	0f 86 d0 00 00 00    	jbe    2030 <apm_mul+0x1e0>
    1f60:	4c 89 e9             	mov    rcx,r13
    1f63:	89 da                	mov    edx,ebx
    1f65:	4c 89 fe             	mov    rsi,r15
    1f68:	4c 89 f7             	mov    rdi,r14
    1f6b:	44 89 45 d0          	mov    DWORD PTR [rbp-0x30],r8d
    1f6f:	e8 ac fb ff ff       	call   1b20 <apm_mul_n>
    1f74:	44 8b 45 d0          	mov    r8d,DWORD PTR [rbp-0x30]
    1f78:	8d 04 1b             	lea    eax,[rbx+rbx*1]
    1f7b:	31 f6                	xor    esi,esi
    1f7d:	48 89 c7             	mov    rdi,rax
    1f80:	89 45 bc             	mov    DWORD PTR [rbp-0x44],eax
    1f83:	48 c1 e0 03          	shl    rax,0x3
    1f87:	41 29 f8             	sub    r8d,edi
    1f8a:	49 8d 7c 05 00       	lea    rdi,[r13+rax*1+0x0]
    1f8f:	48 89 45 d0          	mov    QWORD PTR [rbp-0x30],rax
    1f93:	42 8d 14 c5 00 00 00 	lea    edx,[r8*8+0x0]
    1f9a:	00 
    1f9b:	e8 00 00 00 00       	call   1fa0 <apm_mul+0x150>
    1fa0:	89 d8                	mov    eax,ebx
    1fa2:	44 89 e2             	mov    edx,r12d
    1fa5:	4c 8d 04 c5 00 00 00 	lea    r8,[rax*8+0x0]
    1fac:	00 
    1fad:	4f 8d 0c 06          	lea    r9,[r14+r8*1]
    1fb1:	45 89 e6             	mov    r14d,r12d
    1fb4:	4d 01 c5             	add    r13,r8
    1fb7:	41 29 de             	sub    r14d,ebx
    1fba:	41 39 de             	cmp    r14d,ebx
    1fbd:	0f 83 a9 00 00 00    	jae    206c <apm_mul+0x21c>
    1fc3:	8d 3c d5 00 00 00 00 	lea    edi,[rdx*8+0x0]
    1fca:	be c0 0c 00 00       	mov    esi,0xcc0
    1fcf:	4c 89 4d c0          	mov    QWORD PTR [rbp-0x40],r9
    1fd3:	89 55 c8             	mov    DWORD PTR [rbp-0x38],edx
    1fd6:	e8 00 00 00 00       	call   1fdb <apm_mul+0x18b>
    1fdb:	8b 55 c8             	mov    edx,DWORD PTR [rbp-0x38]
    1fde:	4c 8b 4d c0          	mov    r9,QWORD PTR [rbp-0x40]
    1fe2:	44 89 f1             	mov    ecx,r14d
    1fe5:	48 89 45 d0          	mov    QWORD PTR [rbp-0x30],rax
    1fe9:	41 89 d6             	mov    r14d,edx
    1fec:	83 f9 1f             	cmp    ecx,0x1f
    1fef:	4c 8b 45 d0          	mov    r8,QWORD PTR [rbp-0x30]
    1ff3:	4c 89 ca             	mov    rdx,r9
    1ff6:	89 de                	mov    esi,ebx
    1ff8:	4c 89 ff             	mov    rdi,r15
    1ffb:	0f 87 f4 00 00 00    	ja     20f5 <apm_mul+0x2a5>
    2001:	e8 00 00 00 00       	call   2006 <apm_mul+0x1b6>
    2006:	48 8b 55 d0          	mov    rdx,QWORD PTR [rbp-0x30]
    200a:	44 89 f1             	mov    ecx,r14d
    200d:	44 89 e6             	mov    esi,r12d
    2010:	4c 89 ef             	mov    rdi,r13
    2013:	e8 00 00 00 00       	call   2018 <apm_mul+0x1c8>
    2018:	48 8b 7d d0          	mov    rdi,QWORD PTR [rbp-0x30]
    201c:	e8 00 00 00 00       	call   2021 <apm_mul+0x1d1>
    2021:	48 83 c4 20          	add    rsp,0x20
    2025:	5b                   	pop    rbx
    2026:	41 5c                	pop    r12
    2028:	41 5d                	pop    r13
    202a:	41 5e                	pop    r14
    202c:	41 5f                	pop    r15
    202e:	5d                   	pop    rbp
    202f:	c3                   	ret    
    2030:	4c 89 f8             	mov    rax,r15
    2033:	4d 89 f7             	mov    r15,r14
    2036:	49 89 c6             	mov    r14,rax
    2039:	4d 89 e8             	mov    r8,r13
    203c:	89 d9                	mov    ecx,ebx
    203e:	4c 89 f2             	mov    rdx,r14
    2041:	44 89 e6             	mov    esi,r12d
    2044:	4c 89 ff             	mov    rdi,r15
    2047:	e8 00 00 00 00       	call   204c <apm_mul+0x1fc>
    204c:	48 83 c4 20          	add    rsp,0x20
    2050:	5b                   	pop    rbx
    2051:	41 5c                	pop    r12
    2053:	41 5d                	pop    r13
    2055:	41 5e                	pop    r14
    2057:	41 5f                	pop    r15
    2059:	5d                   	pop    rbp
    205a:	c3                   	ret    
    205b:	44 89 e0             	mov    eax,r12d
    205e:	41 89 dc             	mov    r12d,ebx
    2061:	89 c3                	mov    ebx,eax
    2063:	eb d4                	jmp    2039 <apm_mul+0x1e9>
    2065:	31 db                	xor    ebx,ebx
    2067:	e9 2f fe ff ff       	jmp    1e9b <apm_mul+0x4b>
    206c:	8b 7d d0             	mov    edi,DWORD PTR [rbp-0x30]
    206f:	be c0 0c 00 00       	mov    esi,0xcc0
    2074:	4c 89 4d c0          	mov    QWORD PTR [rbp-0x40],r9
    2078:	4c 89 45 c8          	mov    QWORD PTR [rbp-0x38],r8
    207c:	e8 00 00 00 00       	call   2081 <apm_mul+0x231>
    2081:	4c 8b 45 c8          	mov    r8,QWORD PTR [rbp-0x38]
    2085:	48 89 45 d0          	mov    QWORD PTR [rbp-0x30],rax
    2089:	4c 8b 4d c0          	mov    r9,QWORD PTR [rbp-0x40]
    208d:	eb 03                	jmp    2092 <apm_mul+0x242>
    208f:	41 89 ce             	mov    r14d,ecx
    2092:	48 8b 4d d0          	mov    rcx,QWORD PTR [rbp-0x30]
    2096:	4c 89 cf             	mov    rdi,r9
    2099:	89 da                	mov    edx,ebx
    209b:	4c 89 fe             	mov    rsi,r15
    209e:	4c 89 45 c0          	mov    QWORD PTR [rbp-0x40],r8
    20a2:	4c 89 4d c8          	mov    QWORD PTR [rbp-0x38],r9
    20a6:	e8 75 fa ff ff       	call   1b20 <apm_mul_n>
    20ab:	8b 4d bc             	mov    ecx,DWORD PTR [rbp-0x44]
    20ae:	48 8b 55 d0          	mov    rdx,QWORD PTR [rbp-0x30]
    20b2:	44 89 e6             	mov    esi,r12d
    20b5:	4c 89 ef             	mov    rdi,r13
    20b8:	41 29 dc             	sub    r12d,ebx
    20bb:	e8 00 00 00 00       	call   20c0 <apm_mul+0x270>
    20c0:	4c 8b 45 c0          	mov    r8,QWORD PTR [rbp-0x40]
    20c4:	4c 8b 4d c8          	mov    r9,QWORD PTR [rbp-0x38]
    20c8:	44 89 f1             	mov    ecx,r14d
    20cb:	29 d9                	sub    ecx,ebx
    20cd:	4d 01 c5             	add    r13,r8
    20d0:	4d 01 c1             	add    r9,r8
    20d3:	39 d9                	cmp    ecx,ebx
    20d5:	73 b8                	jae    208f <apm_mul+0x23f>
    20d7:	85 c9                	test   ecx,ecx
    20d9:	0f 84 39 ff ff ff    	je     2018 <apm_mul+0x1c8>
    20df:	48 83 7d d0 00       	cmp    QWORD PTR [rbp-0x30],0x0
    20e4:	0f 85 02 ff ff ff    	jne    1fec <apm_mul+0x19c>
    20ea:	44 89 f2             	mov    edx,r14d
    20ed:	41 89 ce             	mov    r14d,ecx
    20f0:	e9 ce fe ff ff       	jmp    1fc3 <apm_mul+0x173>
    20f5:	e8 00 00 00 00       	call   20fa <apm_mul+0x2aa>
    20fa:	e9 07 ff ff ff       	jmp    2006 <apm_mul+0x1b6>
    20ff:	90                   	nop

0000000000002100 <apm_string_size>:
    2100:	e8 00 00 00 00       	call   2105 <apm_string_size+0x5>
    2105:	89 ff                	mov    edi,edi
    2107:	55                   	push   rbp
    2108:	48 8d 04 7f          	lea    rax,[rdi+rdi*2]
    210c:	48 89 e5             	mov    rbp,rsp
    210f:	48 c1 e0 02          	shl    rax,0x2
    2113:	5d                   	pop    rbp
    2114:	c3                   	ret    
    2115:	90                   	nop
    2116:	66 2e 0f 1f 84 00 00 	nop    WORD PTR cs:[rax+rax*1+0x0]
    211d:	00 00 00 

0000000000002120 <apm_to_string>:
    2120:	e8 00 00 00 00       	call   2125 <apm_to_string+0x5>
    2125:	55                   	push   rbp
    2126:	48 89 e5             	mov    rbp,rsp
    2129:	41 57                	push   r15
    212b:	41 56                	push   r14
    212d:	41 55                	push   r13
    212f:	41 54                	push   r12
    2131:	49 89 ff             	mov    r15,rdi
    2134:	53                   	push   rbx
    2135:	49 89 ce             	mov    r14,rcx
    2138:	48 83 ec 28          	sub    rsp,0x28
    213c:	83 fa 0a             	cmp    edx,0xa
    213f:	74 14                	je     2155 <apm_to_string+0x35>
    2141:	83 fa 10             	cmp    edx,0x10
    2144:	74 0f                	je     2155 <apm_to_string+0x35>
    2146:	48 83 c4 28          	add    rsp,0x28
    214a:	5b                   	pop    rbx
    214b:	41 5c                	pop    r12
    214d:	41 5d                	pop    r13
    214f:	41 5e                	pop    r14
    2151:	41 5f                	pop    r15
    2153:	5d                   	pop    rbp
    2154:	c3                   	ret    
    2155:	85 f6                	test   esi,esi
    2157:	74 23                	je     217c <apm_to_string+0x5c>
    2159:	8d 46 ff             	lea    eax,[rsi-0x1]
    215c:	49 83 3c c7 00       	cmp    QWORD PTR [r15+rax*8],0x0
    2161:	49 89 c4             	mov    r12,rax
    2164:	74 11                	je     2177 <apm_to_string+0x57>
    2166:	eb 53                	jmp    21bb <apm_to_string+0x9b>
    2168:	41 8d 44 24 ff       	lea    eax,[r12-0x1]
    216d:	49 83 3c c7 00       	cmp    QWORD PTR [r15+rax*8],0x0
    2172:	75 4a                	jne    21be <apm_to_string+0x9e>
    2174:	41 89 c4             	mov    r12d,eax
    2177:	45 85 e4             	test   r12d,r12d
    217a:	75 ec                	jne    2168 <apm_to_string+0x48>
    217c:	4d 85 f6             	test   r14,r14
    217f:	b8 30 00 00 00       	mov    eax,0x30
    2184:	75 1e                	jne    21a4 <apm_to_string+0x84>
    2186:	48 8b 3d 00 00 00 00 	mov    rdi,QWORD PTR [rip+0x0]        # 218d <apm_to_string+0x6d>
    218d:	ba 02 00 00 00       	mov    edx,0x2
    2192:	be c0 0c 00 00       	mov    esi,0xcc0
    2197:	e8 00 00 00 00       	call   219c <apm_to_string+0x7c>
    219c:	49 89 c6             	mov    r14,rax
    219f:	b8 30 00 00 00       	mov    eax,0x30
    21a4:	41 88 06             	mov    BYTE PTR [r14],al
    21a7:	41 c6 46 01 00       	mov    BYTE PTR [r14+0x1],0x0
    21ac:	48 83 c4 28          	add    rsp,0x28
    21b0:	5b                   	pop    rbx
    21b1:	41 5c                	pop    r12
    21b3:	41 5d                	pop    r13
    21b5:	41 5e                	pop    r14
    21b7:	41 5f                	pop    r15
    21b9:	5d                   	pop    rbp
    21ba:	c3                   	ret    
    21bb:	41 89 f4             	mov    r12d,esi
    21be:	41 83 fc 01          	cmp    r12d,0x1
    21c2:	41 89 d5             	mov    r13d,edx
    21c5:	0f 84 d1 00 00 00    	je     229c <apm_to_string+0x17c>
    21cb:	4c 89 e8             	mov    rax,r13
    21ce:	48 c1 e0 04          	shl    rax,0x4
    21d2:	4d 85 f6             	test   r14,r14
    21d5:	4c 8b 90 00 00 00 00 	mov    r10,QWORD PTR [rax+0x0]
    21dc:	44 8b 88 00 00 00 00 	mov    r9d,DWORD PTR [rax+0x0]
    21e3:	0f 84 35 02 00 00    	je     241e <apm_to_string+0x2fe>
    21e9:	44 8d 42 ff          	lea    r8d,[rdx-0x1]
    21ed:	44 85 c2             	test   edx,r8d
    21f0:	0f 85 df 00 00 00    	jne    22d5 <apm_to_string+0x1b5>
    21f6:	f3 4d 0f bc ed       	tzcnt  r13,r13
    21fb:	31 d2                	xor    edx,edx
    21fd:	b8 40 00 00 00       	mov    eax,0x40
    2202:	41 f7 f5             	div    r13d
    2205:	44 89 e9             	mov    ecx,r13d
    2208:	85 d2                	test   edx,edx
    220a:	41 89 c3             	mov    r11d,eax
    220d:	0f 85 85 02 00 00    	jne    2498 <apm_to_string+0x378>
    2213:	44 8d 50 ff          	lea    r10d,[rax-0x1]
    2217:	4b 8d 3c e7          	lea    rdi,[r15+r12*8]
    221b:	4c 89 f3             	mov    rbx,r14
    221e:	49 c7 c1 00 00 00 00 	mov    r9,0x0
    2225:	49 83 c2 01          	add    r10,0x1
    2229:	49 8b 07             	mov    rax,QWORD PTR [r15]
    222c:	4a 8d 34 13          	lea    rsi,[rbx+r10*1]
    2230:	4c 89 c2             	mov    rdx,r8
    2233:	48 83 c3 01          	add    rbx,0x1
    2237:	48 21 c2             	and    rdx,rax
    223a:	48 d3 e8             	shr    rax,cl
    223d:	48 39 f3             	cmp    rbx,rsi
    2240:	41 0f b6 14 11       	movzx  edx,BYTE PTR [r9+rdx*1]
    2245:	88 53 ff             	mov    BYTE PTR [rbx-0x1],dl
    2248:	75 e6                	jne    2230 <apm_to_string+0x110>
    224a:	49 83 c7 08          	add    r15,0x8
    224e:	4c 39 ff             	cmp    rdi,r15
    2251:	77 d6                	ja     2229 <apm_to_string+0x109>
    2253:	48 83 eb 01          	sub    rbx,0x1
    2257:	80 fa 30             	cmp    dl,0x30
    225a:	75 09                	jne    2265 <apm_to_string+0x145>
    225c:	48 83 eb 01          	sub    rbx,0x1
    2260:	80 3b 30             	cmp    BYTE PTR [rbx],0x30
    2263:	74 f7                	je     225c <apm_to_string+0x13c>
    2265:	49 39 de             	cmp    r14,rbx
    2268:	c6 43 01 00          	mov    BYTE PTR [rbx+0x1],0x0
    226c:	0f 83 d4 fe ff ff    	jae    2146 <apm_to_string+0x26>
    2272:	41 0f b6 06          	movzx  eax,BYTE PTR [r14]
    2276:	0f b6 13             	movzx  edx,BYTE PTR [rbx]
    2279:	49 83 c6 01          	add    r14,0x1
    227d:	48 83 eb 01          	sub    rbx,0x1
    2281:	41 88 56 ff          	mov    BYTE PTR [r14-0x1],dl
    2285:	88 43 01             	mov    BYTE PTR [rbx+0x1],al
    2288:	49 39 de             	cmp    r14,rbx
    228b:	72 e5                	jb     2272 <apm_to_string+0x152>
    228d:	48 83 c4 28          	add    rsp,0x28
    2291:	5b                   	pop    rbx
    2292:	41 5c                	pop    r12
    2294:	41 5d                	pop    r13
    2296:	41 5e                	pop    r14
    2298:	41 5f                	pop    r15
    229a:	5d                   	pop    rbp
    229b:	c3                   	ret    
    229c:	49 8b 07             	mov    rax,QWORD PTR [r15]
    229f:	4c 39 e8             	cmp    rax,r13
    22a2:	0f 83 23 ff ff ff    	jae    21cb <apm_to_string+0xab>
    22a8:	4d 85 f6             	test   r14,r14
    22ab:	75 1c                	jne    22c9 <apm_to_string+0x1a9>
    22ad:	48 8b 3d 00 00 00 00 	mov    rdi,QWORD PTR [rip+0x0]        # 22b4 <apm_to_string+0x194>
    22b4:	ba 02 00 00 00       	mov    edx,0x2
    22b9:	be c0 0c 00 00       	mov    esi,0xcc0
    22be:	e8 00 00 00 00       	call   22c3 <apm_to_string+0x1a3>
    22c3:	49 89 c6             	mov    r14,rax
    22c6:	49 8b 07             	mov    rax,QWORD PTR [r15]
    22c9:	0f b6 80 00 00 00 00 	movzx  eax,BYTE PTR [rax+0x0]
    22d0:	e9 cf fe ff ff       	jmp    21a4 <apm_to_string+0x84>
    22d5:	42 8d 1c e5 00 00 00 	lea    ebx,[r12*8+0x0]
    22dc:	00 
    22dd:	be c0 0c 00 00       	mov    esi,0xcc0
    22e2:	44 89 4d c8          	mov    DWORD PTR [rbp-0x38],r9d
    22e6:	4c 89 55 d0          	mov    QWORD PTR [rbp-0x30],r10
    22ea:	48 89 df             	mov    rdi,rbx
    22ed:	e8 00 00 00 00       	call   22f2 <apm_to_string+0x1d2>
    22f2:	48 89 da             	mov    rdx,rbx
    22f5:	4c 89 fe             	mov    rsi,r15
    22f8:	48 89 c7             	mov    rdi,rax
    22fb:	e8 00 00 00 00       	call   2300 <apm_to_string+0x1e0>
    2300:	4c 8b 55 d0          	mov    r10,QWORD PTR [rbp-0x30]
    2304:	49 89 c3             	mov    r11,rax
    2307:	4d 89 f0             	mov    r8,r14
    230a:	44 8b 4d c8          	mov    r9d,DWORD PTR [rbp-0x38]
    230e:	49 8d 42 ff          	lea    rax,[r10-0x1]
    2312:	49 83 fa 01          	cmp    r10,0x1
    2316:	48 89 45 d0          	mov    QWORD PTR [rbp-0x30],rax
    231a:	0f 84 9c 00 00 00    	je     23bc <apm_to_string+0x29c>
    2320:	41 8d 44 24 ff       	lea    eax,[r12-0x1]
    2325:	44 89 e6             	mov    esi,r12d
    2328:	48 89 c3             	mov    rbx,rax
    232b:	49 8d 04 c3          	lea    rax,[r11+rax*8]
    232f:	48 8b 08             	mov    rcx,QWORD PTR [rax]
    2332:	8d 56 ff             	lea    edx,[rsi-0x1]
    2335:	48 85 c9             	test   rcx,rcx
    2338:	0f 85 8c 00 00 00    	jne    23ca <apm_to_string+0x2aa>
    233e:	89 d6                	mov    esi,edx
    2340:	48 83 e8 08          	sub    rax,0x8
    2344:	85 f6                	test   esi,esi
    2346:	75 e7                	jne    232f <apm_to_string+0x20f>
    2348:	be 30 00 00 00       	mov    esi,0x30
    234d:	31 c0                	xor    eax,eax
    234f:	49 83 3c db 00       	cmp    QWORD PTR [r11+rbx*8],0x0
    2354:	4d 89 c7             	mov    r15,r8
    2357:	0f 94 c0             	sete   al
    235a:	41 29 c4             	sub    r12d,eax
    235d:	40 0f 94 c7          	sete   dil
    2361:	eb 19                	jmp    237c <apm_to_string+0x25c>
    2363:	89 da                	mov    edx,ebx
    2365:	44 29 c2             	sub    edx,r8d
    2368:	41 39 d1             	cmp    r9d,edx
    236b:	76 3d                	jbe    23aa <apm_to_string+0x28a>
    236d:	31 d2                	xor    edx,edx
    236f:	49 89 df             	mov    r15,rbx
    2372:	49 f7 f5             	div    r13
    2375:	0f b6 b2 00 00 00 00 	movzx  esi,BYTE PTR [rdx+0x0]
    237c:	48 89 c8             	mov    rax,rcx
    237f:	31 d2                	xor    edx,edx
    2381:	49 8d 5f 01          	lea    rbx,[r15+0x1]
    2385:	49 f7 f5             	div    r13
    2388:	40 88 73 ff          	mov    BYTE PTR [rbx-0x1],sil
    238c:	48 85 c0             	test   rax,rax
    238f:	48 89 c1             	mov    rcx,rax
    2392:	75 cf                	jne    2363 <apm_to_string+0x243>
    2394:	40 84 ff             	test   dil,dil
    2397:	74 ca                	je     2363 <apm_to_string+0x243>
    2399:	4c 89 df             	mov    rdi,r11
    239c:	e8 00 00 00 00       	call   23a1 <apm_to_string+0x281>
    23a1:	41 0f b6 17          	movzx  edx,BYTE PTR [r15]
    23a5:	e9 a9 fe ff ff       	jmp    2253 <apm_to_string+0x133>
    23aa:	45 85 e4             	test   r12d,r12d
    23ad:	74 ea                	je     2399 <apm_to_string+0x279>
    23af:	49 83 fa 01          	cmp    r10,0x1
    23b3:	49 89 d8             	mov    r8,rbx
    23b6:	0f 85 64 ff ff ff    	jne    2320 <apm_to_string+0x200>
    23bc:	be 30 00 00 00       	mov    esi,0x30
    23c1:	31 c9                	xor    ecx,ecx
    23c3:	41 8d 5c 24 ff       	lea    ebx,[r12-0x1]
    23c8:	eb 83                	jmp    234d <apm_to_string+0x22d>
    23ca:	4c 85 55 d0          	test   QWORD PTR [rbp-0x30],r10
    23ce:	0f 84 81 00 00 00    	je     2455 <apm_to_string+0x335>
    23d4:	49 8d 34 f3          	lea    rsi,[r11+rsi*8]
    23d8:	48 f7 d2             	not    rdx
    23db:	31 c9                	xor    ecx,ecx
    23dd:	48 8d 3c d6          	lea    rdi,[rsi+rdx*8]
    23e1:	eb 10                	jmp    23f3 <apm_to_string+0x2d3>
    23e3:	31 d2                	xor    edx,edx
    23e5:	49 f7 f2             	div    r10
    23e8:	48 89 d1             	mov    rcx,rdx
    23eb:	48 39 f7             	cmp    rdi,rsi
    23ee:	48 89 06             	mov    QWORD PTR [rsi],rax
    23f1:	74 17                	je     240a <apm_to_string+0x2ea>
    23f3:	48 83 ee 08          	sub    rsi,0x8
    23f7:	48 85 c9             	test   rcx,rcx
    23fa:	48 8b 06             	mov    rax,QWORD PTR [rsi]
    23fd:	74 e4                	je     23e3 <apm_to_string+0x2c3>
    23ff:	48 89 ca             	mov    rdx,rcx
    2402:	49 f7 f2             	div    r10
    2405:	48 89 d1             	mov    rcx,rdx
    2408:	eb e1                	jmp    23eb <apm_to_string+0x2cb>
    240a:	48 89 c8             	mov    rax,rcx
    240d:	31 d2                	xor    edx,edx
    240f:	49 f7 f5             	div    r13
    2412:	0f b6 b2 00 00 00 00 	movzx  esi,BYTE PTR [rdx+0x0]
    2419:	e9 2f ff ff ff       	jmp    234d <apm_to_string+0x22d>
    241e:	44 89 e0             	mov    eax,r12d
    2421:	be c0 0c 00 00       	mov    esi,0xcc0
    2426:	89 55 c0             	mov    DWORD PTR [rbp-0x40],edx
    2429:	48 8d 04 40          	lea    rax,[rax+rax*2]
    242d:	44 89 4d c8          	mov    DWORD PTR [rbp-0x38],r9d
    2431:	4c 89 55 d0          	mov    QWORD PTR [rbp-0x30],r10
    2435:	48 8d 3c 85 01 00 00 	lea    rdi,[rax*4+0x1]
    243c:	00 
    243d:	e8 00 00 00 00       	call   2442 <apm_to_string+0x322>
    2442:	8b 55 c0             	mov    edx,DWORD PTR [rbp-0x40]
    2445:	49 89 c6             	mov    r14,rax
    2448:	44 8b 4d c8          	mov    r9d,DWORD PTR [rbp-0x38]
    244c:	4c 8b 55 d0          	mov    r10,QWORD PTR [rbp-0x30]
    2450:	e9 94 fd ff ff       	jmp    21e9 <apm_to_string+0xc9>
    2455:	31 d2                	xor    edx,edx
    2457:	4c 89 df             	mov    rdi,r11
    245a:	4c 89 45 b0          	mov    QWORD PTR [rbp-0x50],r8
    245e:	f3 49 0f bc d2       	tzcnt  rdx,r10
    2463:	44 89 4d bc          	mov    DWORD PTR [rbp-0x44],r9d
    2467:	4c 89 55 c0          	mov    QWORD PTR [rbp-0x40],r10
    246b:	4c 89 5d c8          	mov    QWORD PTR [rbp-0x38],r11
    246f:	e8 00 00 00 00       	call   2474 <apm_to_string+0x354>
    2474:	31 d2                	xor    edx,edx
    2476:	48 89 c1             	mov    rcx,rax
    2479:	4c 8b 5d c8          	mov    r11,QWORD PTR [rbp-0x38]
    247d:	49 f7 f5             	div    r13
    2480:	4c 8b 55 c0          	mov    r10,QWORD PTR [rbp-0x40]
    2484:	44 8b 4d bc          	mov    r9d,DWORD PTR [rbp-0x44]
    2488:	4c 8b 45 b0          	mov    r8,QWORD PTR [rbp-0x50]
    248c:	0f b6 b2 00 00 00 00 	movzx  esi,BYTE PTR [rdx+0x0]
    2493:	e9 b5 fe ff ff       	jmp    234d <apm_to_string+0x22d>
    2498:	44 89 e8             	mov    eax,r13d
    249b:	42 8d 1c e5 00 00 00 	lea    ebx,[r12*8+0x0]
    24a2:	00 
    24a3:	be c0 0c 00 00       	mov    esi,0xcc0
    24a8:	41 0f af c3          	imul   eax,r11d
    24ac:	4c 89 45 c0          	mov    QWORD PTR [rbp-0x40],r8
    24b0:	44 89 5d d0          	mov    DWORD PTR [rbp-0x30],r11d
    24b4:	48 89 df             	mov    rdi,rbx
    24b7:	44 89 6d c8          	mov    DWORD PTR [rbp-0x38],r13d
    24bb:	89 45 bc             	mov    DWORD PTR [rbp-0x44],eax
    24be:	e8 00 00 00 00       	call   24c3 <apm_to_string+0x3a3>
    24c3:	48 89 da             	mov    rdx,rbx
    24c6:	4c 89 fe             	mov    rsi,r15
    24c9:	48 89 c7             	mov    rdi,rax
    24cc:	e8 00 00 00 00       	call   24d1 <apm_to_string+0x3b1>
    24d1:	44 8b 5d d0          	mov    r11d,DWORD PTR [rbp-0x30]
    24d5:	4c 8b 45 c0          	mov    r8,QWORD PTR [rbp-0x40]
    24d9:	49 89 c5             	mov    r13,rax
    24dc:	8b 4d c8             	mov    ecx,DWORD PTR [rbp-0x38]
    24df:	4c 89 f3             	mov    rbx,r14
    24e2:	49 c7 c1 00 00 00 00 	mov    r9,0x0
    24e9:	45 8d 7b ff          	lea    r15d,[r11-0x1]
    24ed:	8b 55 bc             	mov    edx,DWORD PTR [rbp-0x44]
    24f0:	44 89 e6             	mov    esi,r12d
    24f3:	4c 89 ef             	mov    rdi,r13
    24f6:	4c 89 4d c0          	mov    QWORD PTR [rbp-0x40],r9
    24fa:	4c 89 45 c8          	mov    QWORD PTR [rbp-0x38],r8
    24fe:	89 4d d0             	mov    DWORD PTR [rbp-0x30],ecx
    2501:	e8 00 00 00 00       	call   2506 <apm_to_string+0x3e6>
    2506:	41 8d 54 24 ff       	lea    edx,[r12-0x1]
    250b:	4c 8b 4d c0          	mov    r9,QWORD PTR [rbp-0x40]
    250f:	4c 8b 45 c8          	mov    r8,QWORD PTR [rbp-0x38]
    2513:	8b 4d d0             	mov    ecx,DWORD PTR [rbp-0x30]
    2516:	4a 8d 7c 3b 01       	lea    rdi,[rbx+r15*1+0x1]
    251b:	49 83 7c d5 00 00    	cmp    QWORD PTR [r13+rdx*8+0x0],0x0
    2521:	0f 94 c2             	sete   dl
    2524:	0f b6 d2             	movzx  edx,dl
    2527:	41 29 d4             	sub    r12d,edx
    252a:	48 89 da             	mov    rdx,rbx
    252d:	4c 89 c6             	mov    rsi,r8
    2530:	48 83 c2 01          	add    rdx,0x1
    2534:	48 21 c6             	and    rsi,rax
    2537:	48 d3 e8             	shr    rax,cl
    253a:	48 39 fa             	cmp    rdx,rdi
    253d:	41 0f b6 34 31       	movzx  esi,BYTE PTR [r9+rsi*1]
    2542:	40 88 72 ff          	mov    BYTE PTR [rdx-0x1],sil
    2546:	75 e5                	jne    252d <apm_to_string+0x40d>
    2548:	45 85 e4             	test   r12d,r12d
    254b:	4a 8d 04 3b          	lea    rax,[rbx+r15*1]
    254f:	48 89 d3             	mov    rbx,rdx
    2552:	75 99                	jne    24ed <apm_to_string+0x3cd>
    2554:	4c 89 ef             	mov    rdi,r13
    2557:	48 89 45 d0          	mov    QWORD PTR [rbp-0x30],rax
    255b:	e8 00 00 00 00       	call   2560 <apm_to_string+0x440>
    2560:	48 8b 45 d0          	mov    rax,QWORD PTR [rbp-0x30]
    2564:	0f b6 10             	movzx  edx,BYTE PTR [rax]
    2567:	e9 e7 fc ff ff       	jmp    2253 <apm_to_string+0x133>
    256c:	0f 1f 40 00          	nop    DWORD PTR [rax+0x0]

0000000000002570 <parse_url_char>:
    2570:	e8 00 00 00 00       	call   2575 <parse_url_char+0x5>
    2575:	55                   	push   rbp
    2576:	40 80 fe 20          	cmp    sil,0x20
    257a:	48 89 e5             	mov    rbp,rsp
    257d:	76 42                	jbe    25c1 <parse_url_char+0x51>
    257f:	83 ff 19             	cmp    edi,0x19
    2582:	77 57                	ja     25db <parse_url_char+0x6b>
    2584:	83 ff 18             	cmp    edi,0x18
    2587:	0f 83 77 01 00 00    	jae    2704 <parse_url_char+0x194>
    258d:	83 ff 15             	cmp    edi,0x15
    2590:	0f 84 00 02 00 00    	je     2796 <parse_url_char+0x226>
    2596:	0f 86 9b 00 00 00    	jbe    2637 <parse_url_char+0xc7>
    259c:	83 ff 16             	cmp    edi,0x16
    259f:	0f 84 1a 02 00 00    	je     27bf <parse_url_char+0x24f>
    25a5:	83 ff 17             	cmp    edi,0x17
    25a8:	0f 85 40 01 00 00    	jne    26ee <parse_url_char+0x17e>
    25ae:	40 80 fe 2f          	cmp    sil,0x2f
    25b2:	ba 01 00 00 00       	mov    edx,0x1
    25b7:	b8 18 00 00 00       	mov    eax,0x18
    25bc:	0f 45 c2             	cmovne eax,edx
    25bf:	5d                   	pop    rbp
    25c0:	c3                   	ret    
    25c1:	48 ba 00 36 00 00 01 	movabs rdx,0x100003600
    25c8:	00 00 00 
    25cb:	b8 01 00 00 00       	mov    eax,0x1
    25d0:	48 0f a3 f2          	bt     rdx,rsi
    25d4:	72 e9                	jb     25bf <parse_url_char+0x4f>
    25d6:	83 ff 19             	cmp    edi,0x19
    25d9:	76 a9                	jbe    2584 <parse_url_char+0x14>
    25db:	83 ff 1d             	cmp    edi,0x1d
    25de:	0f 87 c6 00 00 00    	ja     26aa <parse_url_char+0x13a>
    25e4:	83 ff 1c             	cmp    edi,0x1c
    25e7:	73 7d                	jae    2666 <parse_url_char+0xf6>
    25e9:	83 ff 1a             	cmp    edi,0x1a
    25ec:	0f 84 03 01 00 00    	je     26f5 <parse_url_char+0x185>
    25f2:	83 ff 1b             	cmp    edi,0x1b
    25f5:	0f 85 f3 00 00 00    	jne    26ee <parse_url_char+0x17e>
    25fb:	89 f0                	mov    eax,esi
    25fd:	89 f2                	mov    edx,esi
    25ff:	c0 e8 03             	shr    al,0x3
    2602:	83 e2 07             	and    edx,0x7
    2605:	83 e0 1f             	and    eax,0x1f
    2608:	0f b6 88 00 00 00 00 	movzx  ecx,BYTE PTR [rax+0x0]
    260f:	b8 1b 00 00 00       	mov    eax,0x1b
    2614:	0f a3 d1             	bt     ecx,edx
    2617:	72 a6                	jb     25bf <parse_url_char+0x4f>
    2619:	40 80 fe 23          	cmp    sil,0x23
    261d:	b8 1e 00 00 00       	mov    eax,0x1e
    2622:	74 9b                	je     25bf <parse_url_char+0x4f>
    2624:	40 80 fe 3f          	cmp    sil,0x3f
    2628:	b8 01 00 00 00       	mov    eax,0x1
    262d:	ba 1c 00 00 00       	mov    edx,0x1c
    2632:	0f 44 c2             	cmove  eax,edx
    2635:	5d                   	pop    rbp
    2636:	c3                   	ret    
    2637:	83 ff 14             	cmp    edi,0x14
    263a:	0f 85 ae 00 00 00    	jne    26ee <parse_url_char+0x17e>
    2640:	40 80 fe 2f          	cmp    sil,0x2f
    2644:	0f 84 88 01 00 00    	je     27d2 <parse_url_char+0x262>
    264a:	40 80 fe 2a          	cmp    sil,0x2a
    264e:	0f 84 7e 01 00 00    	je     27d2 <parse_url_char+0x262>
    2654:	83 ce 20             	or     esi,0x20
    2657:	8d 46 9f             	lea    eax,[rsi-0x61]
    265a:	5d                   	pop    rbp
    265b:	3c 1a                	cmp    al,0x1a
    265d:	19 c0                	sbb    eax,eax
    265f:	83 e0 14             	and    eax,0x14
    2662:	83 c0 01             	add    eax,0x1
    2665:	c3                   	ret    
    2666:	89 f0                	mov    eax,esi
    2668:	89 f2                	mov    edx,esi
    266a:	c0 e8 03             	shr    al,0x3
    266d:	83 e2 07             	and    edx,0x7
    2670:	83 e0 1f             	and    eax,0x1f
    2673:	0f b6 88 00 00 00 00 	movzx  ecx,BYTE PTR [rax+0x0]
    267a:	b8 1d 00 00 00       	mov    eax,0x1d
    267f:	0f a3 d1             	bt     ecx,edx
    2682:	0f 82 37 ff ff ff    	jb     25bf <parse_url_char+0x4f>
    2688:	40 80 fe 23          	cmp    sil,0x23
    268c:	b8 1e 00 00 00       	mov    eax,0x1e
    2691:	0f 84 28 ff ff ff    	je     25bf <parse_url_char+0x4f>
    2697:	40 80 fe 3f          	cmp    sil,0x3f
    269b:	b8 01 00 00 00       	mov    eax,0x1
    26a0:	ba 1d 00 00 00       	mov    edx,0x1d
    26a5:	0f 44 c2             	cmove  eax,edx
    26a8:	5d                   	pop    rbp
    26a9:	c3                   	ret    
    26aa:	83 ff 1e             	cmp    edi,0x1e
    26ad:	0f 84 9f 00 00 00    	je     2752 <parse_url_char+0x1e2>
    26b3:	83 ff 1f             	cmp    edi,0x1f
    26b6:	75 36                	jne    26ee <parse_url_char+0x17e>
    26b8:	89 f0                	mov    eax,esi
    26ba:	89 f2                	mov    edx,esi
    26bc:	c0 e8 03             	shr    al,0x3
    26bf:	83 e2 07             	and    edx,0x7
    26c2:	83 e0 1f             	and    eax,0x1f
    26c5:	0f b6 88 00 00 00 00 	movzx  ecx,BYTE PTR [rax+0x0]
    26cc:	b8 1f 00 00 00       	mov    eax,0x1f
    26d1:	0f a3 d1             	bt     ecx,edx
    26d4:	0f 82 e5 fe ff ff    	jb     25bf <parse_url_char+0x4f>
    26da:	40 80 fe 23          	cmp    sil,0x23
    26de:	0f 84 1b 01 00 00    	je     27ff <parse_url_char+0x28f>
    26e4:	40 80 fe 3f          	cmp    sil,0x3f
    26e8:	0f 84 11 01 00 00    	je     27ff <parse_url_char+0x28f>
    26ee:	b8 01 00 00 00       	mov    eax,0x1
    26f3:	5d                   	pop    rbp
    26f4:	c3                   	ret    
    26f5:	40 80 fe 40          	cmp    sil,0x40
    26f9:	b8 01 00 00 00       	mov    eax,0x1
    26fe:	0f 84 bb fe ff ff    	je     25bf <parse_url_char+0x4f>
    2704:	40 80 fe 2f          	cmp    sil,0x2f
    2708:	0f 84 c4 00 00 00    	je     27d2 <parse_url_char+0x262>
    270e:	40 80 fe 3f          	cmp    sil,0x3f
    2712:	0f 84 e0 00 00 00    	je     27f8 <parse_url_char+0x288>
    2718:	40 80 fe 40          	cmp    sil,0x40
    271c:	0f 84 e4 00 00 00    	je     2806 <parse_url_char+0x296>
    2722:	89 f2                	mov    edx,esi
    2724:	b8 19 00 00 00       	mov    eax,0x19
    2729:	83 ca 20             	or     edx,0x20
    272c:	83 ea 61             	sub    edx,0x61
    272f:	80 fa 19             	cmp    dl,0x19
    2732:	0f 86 87 fe ff ff    	jbe    25bf <parse_url_char+0x4f>
    2738:	8d 4e df             	lea    ecx,[rsi-0x21]
    273b:	80 f9 3e             	cmp    cl,0x3e
    273e:	0f 86 95 00 00 00    	jbe    27d9 <parse_url_char+0x269>
    2744:	40 80 fe 7e          	cmp    sil,0x7e
    2748:	ba 01 00 00 00       	mov    edx,0x1
    274d:	0f 45 c2             	cmovne eax,edx
    2750:	5d                   	pop    rbp
    2751:	c3                   	ret    
    2752:	89 f0                	mov    eax,esi
    2754:	89 f2                	mov    edx,esi
    2756:	c0 e8 03             	shr    al,0x3
    2759:	83 e2 07             	and    edx,0x7
    275c:	83 e0 1f             	and    eax,0x1f
    275f:	0f b6 88 00 00 00 00 	movzx  ecx,BYTE PTR [rax+0x0]
    2766:	b8 1f 00 00 00       	mov    eax,0x1f
    276b:	0f a3 d1             	bt     ecx,edx
    276e:	0f 82 4b fe ff ff    	jb     25bf <parse_url_char+0x4f>
    2774:	40 80 fe 23          	cmp    sil,0x23
    2778:	b8 1e 00 00 00       	mov    eax,0x1e
    277d:	0f 84 3c fe ff ff    	je     25bf <parse_url_char+0x4f>
    2783:	40 80 fe 3f          	cmp    sil,0x3f
    2787:	b8 01 00 00 00       	mov    eax,0x1
    278c:	ba 1f 00 00 00       	mov    edx,0x1f
    2791:	0f 44 c2             	cmove  eax,edx
    2794:	5d                   	pop    rbp
    2795:	c3                   	ret    
    2796:	89 f2                	mov    edx,esi
    2798:	b8 15 00 00 00       	mov    eax,0x15
    279d:	83 ca 20             	or     edx,0x20
    27a0:	83 ea 61             	sub    edx,0x61
    27a3:	80 fa 19             	cmp    dl,0x19
    27a6:	0f 86 13 fe ff ff    	jbe    25bf <parse_url_char+0x4f>
    27ac:	40 80 fe 3a          	cmp    sil,0x3a
    27b0:	ba 01 00 00 00       	mov    edx,0x1
    27b5:	b8 16 00 00 00       	mov    eax,0x16
    27ba:	0f 45 c2             	cmovne eax,edx
    27bd:	5d                   	pop    rbp
    27be:	c3                   	ret    
    27bf:	40 80 fe 2f          	cmp    sil,0x2f
    27c3:	ba 01 00 00 00       	mov    edx,0x1
    27c8:	b8 17 00 00 00       	mov    eax,0x17
    27cd:	0f 45 c2             	cmovne eax,edx
    27d0:	5d                   	pop    rbp
    27d1:	c3                   	ret    
    27d2:	b8 1b 00 00 00       	mov    eax,0x1b
    27d7:	5d                   	pop    rbp
    27d8:	c3                   	ret    
    27d9:	48 b8 f9 bf ff 17 00 	movabs rax,0x5400000017ffbff9
    27e0:	00 00 54 
    27e3:	48 d3 e8             	shr    rax,cl
    27e6:	48 f7 d0             	not    rax
    27e9:	83 e0 01             	and    eax,0x1
    27ec:	3c 01                	cmp    al,0x1
    27ee:	19 c0                	sbb    eax,eax
    27f0:	83 e0 18             	and    eax,0x18
    27f3:	83 c0 01             	add    eax,0x1
    27f6:	5d                   	pop    rbp
    27f7:	c3                   	ret    
    27f8:	b8 1c 00 00 00       	mov    eax,0x1c
    27fd:	5d                   	pop    rbp
    27fe:	c3                   	ret    
    27ff:	b8 1f 00 00 00       	mov    eax,0x1f
    2804:	5d                   	pop    rbp
    2805:	c3                   	ret    
    2806:	b8 1a 00 00 00       	mov    eax,0x1a
    280b:	5d                   	pop    rbp
    280c:	c3                   	ret    
    280d:	0f 1f 00             	nop    DWORD PTR [rax]

0000000000002810 <http_message_needs_eof>:
    2810:	e8 00 00 00 00       	call   2815 <http_message_needs_eof+0x5>
    2815:	31 c0                	xor    eax,eax
    2817:	f6 07 03             	test   BYTE PTR [rdi],0x3
    281a:	55                   	push   rbp
    281b:	48 89 e5             	mov    rbp,rsp
    281e:	74 41                	je     2861 <http_message_needs_eof+0x51>
    2820:	0f b7 57 14          	movzx  edx,WORD PTR [rdi+0x14]
    2824:	66 81 fa cc 00       	cmp    dx,0xcc
    2829:	40 0f 94 c6          	sete   sil
    282d:	66 81 fa 30 01       	cmp    dx,0x130
    2832:	0f 94 c1             	sete   cl
    2835:	40 08 ce             	or     sil,cl
    2838:	75 29                	jne    2863 <http_message_needs_eof+0x53>
    283a:	83 ea 64             	sub    edx,0x64
    283d:	66 83 fa 63          	cmp    dx,0x63
    2841:	76 20                	jbe    2863 <http_message_needs_eof+0x53>
    2843:	0f b7 17             	movzx  edx,WORD PTR [rdi]
    2846:	66 c1 ea 02          	shr    dx,0x2
    284a:	f6 c2 40             	test   dl,0x40
    284d:	75 12                	jne    2861 <http_message_needs_eof+0x51>
    284f:	89 d1                	mov    ecx,edx
    2851:	83 e1 01             	and    ecx,0x1
    2854:	f6 47 03 20          	test   BYTE PTR [rdi+0x3],0x20
    2858:	74 0d                	je     2867 <http_message_needs_eof+0x57>
    285a:	89 d0                	mov    eax,edx
    285c:	f7 d0                	not    eax
    285e:	83 e0 01             	and    eax,0x1
    2861:	5d                   	pop    rbp
    2862:	c3                   	ret    
    2863:	31 c0                	xor    eax,eax
    2865:	5d                   	pop    rbp
    2866:	c3                   	ret    
    2867:	84 c9                	test   cl,cl
    2869:	75 f6                	jne    2861 <http_message_needs_eof+0x51>
    286b:	31 c0                	xor    eax,eax
    286d:	48 83 7f 08 ff       	cmp    QWORD PTR [rdi+0x8],0xffffffffffffffff
    2872:	5d                   	pop    rbp
    2873:	0f 94 c0             	sete   al
    2876:	c3                   	ret    
    2877:	66 0f 1f 84 00 00 00 	nop    WORD PTR [rax+rax*1+0x0]
    287e:	00 00 

0000000000002880 <http_should_keep_alive>:
    2880:	e8 00 00 00 00       	call   2885 <http_should_keep_alive+0x5>
    2885:	0f b7 17             	movzx  edx,WORD PTR [rdi]
    2888:	31 c0                	xor    eax,eax
    288a:	66 c1 ea 02          	shr    dx,0x2
    288e:	66 83 7f 10 00       	cmp    WORD PTR [rdi+0x10],0x0
    2893:	74 1f                	je     28b4 <http_should_keep_alive+0x34>
    2895:	66 83 7f 12 00       	cmp    WORD PTR [rdi+0x12],0x0
    289a:	74 18                	je     28b4 <http_should_keep_alive+0x34>
    289c:	83 e2 04             	and    edx,0x4
    289f:	75 1a                	jne    28bb <http_should_keep_alive+0x3b>
    28a1:	55                   	push   rbp
    28a2:	48 89 e5             	mov    rbp,rsp
    28a5:	e8 00 00 00 00       	call   28aa <http_should_keep_alive+0x2a>
    28aa:	85 c0                	test   eax,eax
    28ac:	0f 94 c0             	sete   al
    28af:	0f b6 c0             	movzx  eax,al
    28b2:	5d                   	pop    rbp
    28b3:	c3                   	ret    
    28b4:	83 e2 02             	and    edx,0x2
    28b7:	75 e8                	jne    28a1 <http_should_keep_alive+0x21>
    28b9:	f3 c3                	repz ret 
    28bb:	f3 c3                	repz ret 
    28bd:	0f 1f 00             	nop    DWORD PTR [rax]

00000000000028c0 <http_parser_execute>:
    28c0:	e8 00 00 00 00       	call   28c5 <http_parser_execute+0x5>
    28c5:	44 0f b6 4f 17       	movzx  r9d,BYTE PTR [rdi+0x17]
    28ca:	41 f6 c1 7f          	test   r9b,0x7f
    28ce:	0f 85 de 00 00 00    	jne    29b2 <http_parser_execute+0xf2>
    28d4:	55                   	push   rbp
    28d5:	48 89 e5             	mov    rbp,rsp
    28d8:	41 57                	push   r15
    28da:	41 56                	push   r14
    28dc:	41 55                	push   r13
    28de:	41 54                	push   r12
    28e0:	49 89 fd             	mov    r13,rdi
    28e3:	53                   	push   rbx
    28e4:	48 89 cb             	mov    rbx,rcx
    28e7:	48 83 ec 70          	sub    rsp,0x70
    28eb:	8b 07                	mov    eax,DWORD PTR [rdi]
    28ed:	48 89 4d c0          	mov    QWORD PTR [rbp-0x40],rcx
    28f1:	48 89 55 d0          	mov    QWORD PTR [rbp-0x30],rdx
    28f5:	48 89 75 c8          	mov    QWORD PTR [rbp-0x38],rsi
    28f9:	45 8b 7d 04          	mov    r15d,DWORD PTR [r13+0x4]
    28fd:	c1 e8 0a             	shr    eax,0xa
    2900:	89 c1                	mov    ecx,eax
    2902:	83 e1 7f             	and    ecx,0x7f
    2905:	48 85 db             	test   rbx,rbx
    2908:	0f b6 f9             	movzx  edi,cl
    290b:	75 5a                	jne    2967 <http_parser_execute+0xa7>
    290d:	80 f9 3f             	cmp    cl,0x3f
    2910:	0f 87 9f 00 00 00    	ja     29b5 <http_parser_execute+0xf5>
    2916:	b8 01 00 00 00       	mov    eax,0x1
    291b:	48 d3 e0             	shl    rax,cl
    291e:	a9 16 00 04 00       	test   eax,0x40016
    2923:	75 31                	jne    2956 <http_parser_execute+0x96>
    2925:	48 85 c0             	test   rax,rax
    2928:	0f 89 87 00 00 00    	jns    29b5 <http_parser_execute+0xf5>
    292e:	48 8b 46 38          	mov    rax,QWORD PTR [rsi+0x38]
    2932:	48 85 c0             	test   rax,rax
    2935:	74 1f                	je     2956 <http_parser_execute+0x96>
    2937:	4c 89 ef             	mov    rdi,r13
    293a:	e8 00 00 00 00       	call   293f <http_parser_execute+0x7f>
    293f:	85 c0                	test   eax,eax
    2941:	74 13                	je     2956 <http_parser_execute+0x96>
    2943:	41 0f b6 45 17       	movzx  eax,BYTE PTR [r13+0x17]
    2948:	45 89 7d 04          	mov    DWORD PTR [r13+0x4],r15d
    294c:	83 e0 80             	and    eax,0xffffff80
    294f:	83 c8 07             	or     eax,0x7
    2952:	41 88 45 17          	mov    BYTE PTR [r13+0x17],al
    2956:	48 83 c4 70          	add    rsp,0x70
    295a:	31 c0                	xor    eax,eax
    295c:	5b                   	pop    rbx
    295d:	41 5c                	pop    r12
    295f:	41 5d                	pop    r13
    2961:	41 5e                	pop    r14
    2963:	41 5f                	pop    r15
    2965:	5d                   	pop    rbp
    2966:	c3                   	ret    
    2967:	83 ff 2d             	cmp    edi,0x2d
    296a:	74 6c                	je     29d8 <http_parser_execute+0x118>
    296c:	83 ff 32             	cmp    edi,0x32
    296f:	0f 84 96 06 00 00    	je     300b <http_parser_execute+0x74b>
    2975:	80 f9 10             	cmp    cl,0x10
    2978:	0f 84 54 0a 00 00    	je     33d2 <http_parser_execute+0xb12>
    297e:	0f 82 4c 38 00 00    	jb     61d0 <http_parser_execute+0x3910>
    2984:	83 e9 15             	sub    ecx,0x15
    2987:	80 f9 0a             	cmp    cl,0xa
    298a:	0f 87 40 38 00 00    	ja     61d0 <http_parser_execute+0x3910>
    2990:	48 8b 45 d0          	mov    rax,QWORD PTR [rbp-0x30]
    2994:	48 c7 45 90 00 00 00 	mov    QWORD PTR [rbp-0x70],0x0
    299b:	00 
    299c:	48 c7 45 a8 00 00 00 	mov    QWORD PTR [rbp-0x58],0x0
    29a3:	00 
    29a4:	48 c7 45 a0 00 00 00 	mov    QWORD PTR [rbp-0x60],0x0
    29ab:	00 
    29ac:	48 89 45 98          	mov    QWORD PTR [rbp-0x68],rax
    29b0:	eb 46                	jmp    29f8 <http_parser_execute+0x138>
    29b2:	31 c0                	xor    eax,eax
    29b4:	c3                   	ret    
    29b5:	41 0f b6 45 17       	movzx  eax,BYTE PTR [r13+0x17]
    29ba:	83 e0 80             	and    eax,0xffffff80
    29bd:	83 c8 0b             	or     eax,0xb
    29c0:	41 88 45 17          	mov    BYTE PTR [r13+0x17],al
    29c4:	b8 01 00 00 00       	mov    eax,0x1
    29c9:	48 83 c4 70          	add    rsp,0x70
    29cd:	5b                   	pop    rbx
    29ce:	41 5c                	pop    r12
    29d0:	41 5d                	pop    r13
    29d2:	41 5e                	pop    r14
    29d4:	41 5f                	pop    r15
    29d6:	5d                   	pop    rbp
    29d7:	c3                   	ret    
    29d8:	48 8b 45 d0          	mov    rax,QWORD PTR [rbp-0x30]
    29dc:	48 c7 45 a8 00 00 00 	mov    QWORD PTR [rbp-0x58],0x0
    29e3:	00 
    29e4:	48 89 45 90          	mov    QWORD PTR [rbp-0x70],rax
    29e8:	48 c7 45 a0 00 00 00 	mov    QWORD PTR [rbp-0x60],0x0
    29ef:	00 
    29f0:	48 c7 45 98 00 00 00 	mov    QWORD PTR [rbp-0x68],0x0
    29f7:	00 
    29f8:	48 8b 45 d0          	mov    rax,QWORD PTR [rbp-0x30]
    29fc:	4c 8b 65 c0          	mov    r12,QWORD PTR [rbp-0x40]
    2a00:	49 01 c4             	add    r12,rax
    2a03:	4c 39 e0             	cmp    rax,r12
    2a06:	0f 84 04 26 00 00    	je     5010 <http_parser_execute+0x2750>
    2a0c:	45 0f b6 55 03       	movzx  r10d,BYTE PTR [r13+0x3]
    2a11:	4c 8b 5d d0          	mov    r11,QWORD PTR [rbp-0x30]
    2a15:	44 88 4d b0          	mov    BYTE PTR [rbp-0x50],r9b
    2a19:	48 c7 45 b8 00 00 00 	mov    QWORD PTR [rbp-0x48],0x0
    2a20:	00 
    2a21:	4d 89 e9             	mov    r9,r13
    2a24:	41 c0 ea 07          	shr    r10b,0x7
    2a28:	41 0f b6 c2          	movzx  eax,r10b
    2a2c:	45 89 d5             	mov    r13d,r10d
    2a2f:	4d 89 da             	mov    r10,r11
    2a32:	89 45 84             	mov    DWORD PTR [rbp-0x7c],eax
    2a35:	49 8d 44 24 ff       	lea    rax,[r12-0x1]
    2a3a:	4d 89 e3             	mov    r11,r12
    2a3d:	48 89 45 88          	mov    QWORD PTR [rbp-0x78],rax
    2a41:	83 ff 3a             	cmp    edi,0x3a
    2a44:	45 0f be 22          	movsx  r12d,BYTE PTR [r10]
    2a48:	77 11                	ja     2a5b <http_parser_execute+0x19b>
    2a4a:	41 83 c7 01          	add    r15d,0x1
    2a4e:	44 39 3d 00 00 00 00 	cmp    DWORD PTR [rip+0x0],r15d        # 2a55 <http_parser_execute+0x195>
    2a55:	0f 82 8d 06 00 00    	jb     30e8 <http_parser_execute+0x828>
    2a5b:	44 89 eb             	mov    ebx,r13d
    2a5e:	41 b8 1a 00 00 00    	mov    r8d,0x1a
    2a64:	83 f3 01             	xor    ebx,0x1
    2a67:	83 ff 24             	cmp    edi,0x24
    2a6a:	0f 84 15 13 00 00    	je     3d85 <http_parser_execute+0x14c5>
    2a70:	0f 87 e6 00 00 00    	ja     2b5c <http_parser_execute+0x29c>
    2a76:	83 ff 0e             	cmp    edi,0xe
    2a79:	0f 84 5e 16 00 00    	je     40dd <http_parser_execute+0x181d>
    2a7f:	0f 87 a0 01 00 00    	ja     2c25 <http_parser_execute+0x365>
    2a85:	83 ff 07             	cmp    edi,0x7
    2a88:	0f 84 fd 15 00 00    	je     408b <http_parser_execute+0x17cb>
    2a8e:	0f 87 e8 02 00 00    	ja     2d7c <http_parser_execute+0x4bc>
    2a94:	83 ff 03             	cmp    edi,0x3
    2a97:	0f 84 06 16 00 00    	je     40a3 <http_parser_execute+0x17e3>
    2a9d:	0f 86 a3 06 00 00    	jbe    3146 <http_parser_execute+0x886>
    2aa3:	83 ff 05             	cmp    edi,0x5
    2aa6:	0f 84 21 13 00 00    	je     3dcd <http_parser_execute+0x150d>
    2aac:	0f 87 5b 0c 00 00    	ja     370d <http_parser_execute+0xe4d>
    2ab2:	41 80 fc 0d          	cmp    r12b,0xd
    2ab6:	0f 84 90 1a 00 00    	je     454c <http_parser_execute+0x1c8c>
    2abc:	41 80 fc 0a          	cmp    r12b,0xa
    2ac0:	0f 84 86 1a 00 00    	je     454c <http_parser_execute+0x1c8c>
    2ac6:	66 41 81 21 03 fc    	and    WORD PTR [r9],0xfc03
    2acc:	41 80 61 03 9f       	and    BYTE PTR [r9+0x3],0x9f
    2ad1:	41 80 fc 48          	cmp    r12b,0x48
    2ad5:	49 c7 41 08 ff ff ff 	mov    QWORD PTR [r9+0x8],0xffffffffffffffff
    2adc:	ff 
    2add:	0f 85 60 34 00 00    	jne    5f43 <http_parser_execute+0x3683>
    2ae3:	48 8b 45 c8          	mov    rax,QWORD PTR [rbp-0x38]
    2ae7:	48 83 38 00          	cmp    QWORD PTR [rax],0x0
    2aeb:	0f 84 55 2c 00 00    	je     5746 <http_parser_execute+0x2e86>
    2af1:	4c 89 9d 70 ff ff ff 	mov    QWORD PTR [rbp-0x90],r11
    2af8:	4c 89 95 78 ff ff ff 	mov    QWORD PTR [rbp-0x88],r10
    2aff:	4c 89 cf             	mov    rdi,r9
    2b02:	41 8b 01             	mov    eax,DWORD PTR [r9]
    2b05:	25 ff 03 fe ff       	and    eax,0xfffe03ff
    2b0a:	80 cc 14             	or     ah,0x14
    2b0d:	41 89 01             	mov    DWORD PTR [r9],eax
    2b10:	48 8b 45 c8          	mov    rax,QWORD PTR [rbp-0x38]
    2b14:	4c 89 4d b0          	mov    QWORD PTR [rbp-0x50],r9
    2b18:	48 8b 00             	mov    rax,QWORD PTR [rax]
    2b1b:	e8 00 00 00 00       	call   2b20 <http_parser_execute+0x260>
    2b20:	85 c0                	test   eax,eax
    2b22:	4c 8b 4d b0          	mov    r9,QWORD PTR [rbp-0x50]
    2b26:	4c 8b 95 78 ff ff ff 	mov    r10,QWORD PTR [rbp-0x88]
    2b2d:	4c 8b 9d 70 ff ff ff 	mov    r11,QWORD PTR [rbp-0x90]
    2b34:	0f 85 a9 2c 00 00    	jne    57e3 <http_parser_execute+0x2f23>
    2b3a:	41 0f b6 41 17       	movzx  eax,BYTE PTR [r9+0x17]
    2b3f:	41 8b 39             	mov    edi,DWORD PTR [r9]
    2b42:	c1 ef 0a             	shr    edi,0xa
    2b45:	83 e7 7f             	and    edi,0x7f
    2b48:	a8 7f                	test   al,0x7f
    2b4a:	88 45 b0             	mov    BYTE PTR [rbp-0x50],al
    2b4d:	0f 85 a5 19 00 00    	jne    44f8 <http_parser_execute+0x1c38>
    2b53:	49 83 c2 01          	add    r10,0x1
    2b57:	e9 c3 02 00 00       	jmp    2e1f <http_parser_execute+0x55f>
    2b5c:	83 ff 32             	cmp    edi,0x32
    2b5f:	0f 84 d2 12 00 00    	je     3e37 <http_parser_execute+0x1577>
    2b65:	77 45                	ja     2bac <http_parser_execute+0x2ec>
    2b67:	83 ff 2b             	cmp    edi,0x2b
    2b6a:	0f 84 af 12 00 00    	je     3e1f <http_parser_execute+0x155f>
    2b70:	0f 87 78 02 00 00    	ja     2dee <http_parser_execute+0x52e>
    2b76:	83 ff 27             	cmp    edi,0x27
    2b79:	0f 84 ca 11 00 00    	je     3d49 <http_parser_execute+0x1489>
    2b7f:	0f 86 fb 06 00 00    	jbe    3280 <http_parser_execute+0x9c0>
    2b85:	83 ff 29             	cmp    edi,0x29
    2b88:	0f 84 97 11 00 00    	je     3d25 <http_parser_execute+0x1465>
    2b8e:	0f 87 37 0a 00 00    	ja     35cb <http_parser_execute+0xd0b>
    2b94:	41 80 fc 2e          	cmp    r12b,0x2e
    2b98:	0f 85 d3 27 00 00    	jne    5371 <http_parser_execute+0x2ab1>
    2b9e:	49 83 c2 01          	add    r10,0x1
    2ba2:	bf 29 00 00 00       	mov    edi,0x29
    2ba7:	e9 73 02 00 00       	jmp    2e1f <http_parser_execute+0x55f>
    2bac:	83 ff 39             	cmp    edi,0x39
    2baf:	0f 84 cc 2c 00 00    	je     5881 <http_parser_execute+0x2fc1>
    2bb5:	0f 87 07 01 00 00    	ja     2cc2 <http_parser_execute+0x402>
    2bbb:	83 ff 35             	cmp    edi,0x35
    2bbe:	0f 84 1e 10 00 00    	je     3be2 <http_parser_execute+0x1322>
    2bc4:	0f 86 16 07 00 00    	jbe    32e0 <http_parser_execute+0xa20>
    2bca:	83 ff 37             	cmp    edi,0x37
    2bcd:	0f 84 36 10 00 00    	je     3c09 <http_parser_execute+0x1349>
    2bd3:	0f 87 2c 09 00 00    	ja     3505 <http_parser_execute+0xc45>
    2bd9:	41 80 fc 0d          	cmp    r12b,0xd
    2bdd:	0f 84 e8 1c 00 00    	je     48cb <http_parser_execute+0x200b>
    2be3:	41 0f b6 c4          	movzx  eax,r12b
    2be7:	48 0f be 80 00 00 00 	movsx  rax,BYTE PTR [rax+0x0]
    2bee:	00 
    2bef:	3c ff                	cmp    al,0xff
    2bf1:	0f 84 61 22 00 00    	je     4e58 <http_parser_execute+0x2598>
    2bf7:	49 8b 51 08          	mov    rdx,QWORD PTR [r9+0x8]
    2bfb:	48 be fe ff ff ff ff 	movabs rsi,0xffffffffffffffe
    2c02:	ff ff 0f 
    2c05:	48 89 d1             	mov    rcx,rdx
    2c08:	48 c1 e1 04          	shl    rcx,0x4
    2c0c:	48 01 c8             	add    rax,rcx
    2c0f:	48 39 f2             	cmp    rdx,rsi
    2c12:	0f 87 90 2b 00 00    	ja     57a8 <http_parser_execute+0x2ee8>
    2c18:	49 89 41 08          	mov    QWORD PTR [r9+0x8],rax
    2c1c:	49 83 c2 01          	add    r10,0x1
    2c20:	e9 fa 01 00 00       	jmp    2e1f <http_parser_execute+0x55f>
    2c25:	83 ff 18             	cmp    edi,0x18
    2c28:	0f 87 8d 01 00 00    	ja     2dbb <http_parser_execute+0x4fb>
    2c2e:	83 ff 15             	cmp    edi,0x15
    2c31:	0f 83 8d 10 00 00    	jae    3cc4 <http_parser_execute+0x1404>
    2c37:	83 ff 11             	cmp    edi,0x11
    2c3a:	0f 84 75 11 00 00    	je     3db5 <http_parser_execute+0x14f5>
    2c40:	0f 86 71 0e 00 00    	jbe    3ab7 <http_parser_execute+0x11f7>
    2c46:	83 ff 13             	cmp    edi,0x13
    2c49:	0f 84 ad 07 00 00    	je     33fc <http_parser_execute+0xb3c>
    2c4f:	0f 86 92 32 00 00    	jbe    5ee7 <http_parser_execute+0x3627>
    2c55:	41 80 fc 20          	cmp    r12b,0x20
    2c59:	0f 84 7a 1c 00 00    	je     48d9 <http_parser_execute+0x2019>
    2c5f:	48 8b 45 98          	mov    rax,QWORD PTR [rbp-0x68]
    2c63:	41 0f be f4          	movsx  esi,r12b
    2c67:	4c 89 95 70 ff ff ff 	mov    QWORD PTR [rbp-0x90],r10
    2c6e:	4c 89 8d 78 ff ff ff 	mov    QWORD PTR [rbp-0x88],r9
    2c75:	4c 89 9d 68 ff ff ff 	mov    QWORD PTR [rbp-0x98],r11
    2c7c:	48 85 c0             	test   rax,rax
    2c7f:	49 0f 44 c2          	cmove  rax,r10
    2c83:	41 80 79 16 05       	cmp    BYTE PTR [r9+0x16],0x5
    2c88:	48 89 45 98          	mov    QWORD PTR [rbp-0x68],rax
    2c8c:	b8 18 00 00 00       	mov    eax,0x18
    2c91:	0f 44 f8             	cmove  edi,eax
    2c94:	e8 d7 f8 ff ff       	call   2570 <parse_url_char>
    2c99:	83 f8 01             	cmp    eax,0x1
    2c9c:	89 c7                	mov    edi,eax
    2c9e:	4c 8b 8d 78 ff ff ff 	mov    r9,QWORD PTR [rbp-0x88]
    2ca5:	4c 8b 95 70 ff ff ff 	mov    r10,QWORD PTR [rbp-0x90]
    2cac:	0f 84 2e 23 00 00    	je     4fe0 <http_parser_execute+0x2720>
    2cb2:	49 83 c2 01          	add    r10,0x1
    2cb6:	4c 8b 9d 68 ff ff ff 	mov    r11,QWORD PTR [rbp-0x98]
    2cbd:	e9 5d 01 00 00       	jmp    2e1f <http_parser_execute+0x55f>
    2cc2:	83 ff 3d             	cmp    edi,0x3d
    2cc5:	0f 84 60 14 00 00    	je     412b <http_parser_execute+0x186b>
    2ccb:	0f 87 4f 03 00 00    	ja     3020 <http_parser_execute+0x760>
    2cd1:	83 ff 3b             	cmp    edi,0x3b
    2cd4:	0f 84 0b 11 00 00    	je     3de5 <http_parser_execute+0x1525>
    2cda:	0f 86 66 0a 00 00    	jbe    3746 <http_parser_execute+0xe86>
    2ce0:	41 80 fc 0d          	cmp    r12b,0xd
    2ce4:	0f 85 30 31 00 00    	jne    5e1a <http_parser_execute+0x355a>
    2cea:	48 83 7d b8 00       	cmp    QWORD PTR [rbp-0x48],0x0
    2cef:	0f 84 c0 1d 00 00    	je     4ab5 <http_parser_execute+0x21f5>
    2cf5:	48 8b 45 c8          	mov    rax,QWORD PTR [rbp-0x38]
    2cf9:	48 83 78 30 00       	cmp    QWORD PTR [rax+0x30],0x0
    2cfe:	0f 84 ce 28 00 00    	je     55d2 <http_parser_execute+0x2d12>
    2d04:	4c 89 9d 78 ff ff ff 	mov    QWORD PTR [rbp-0x88],r11
    2d0b:	41 8b 01             	mov    eax,DWORD PTR [r9]
    2d0e:	4c 89 d2             	mov    rdx,r10
    2d11:	4c 89 cf             	mov    rdi,r9
    2d14:	25 ff 03 fe ff       	and    eax,0xfffe03ff
    2d19:	80 cc f4             	or     ah,0xf4
    2d1c:	41 89 01             	mov    DWORD PTR [r9],eax
    2d1f:	48 8b 75 b8          	mov    rsi,QWORD PTR [rbp-0x48]
    2d23:	48 8b 45 c8          	mov    rax,QWORD PTR [rbp-0x38]
    2d27:	4c 89 55 b0          	mov    QWORD PTR [rbp-0x50],r10
    2d2b:	4c 89 4d b8          	mov    QWORD PTR [rbp-0x48],r9
    2d2f:	48 29 f2             	sub    rdx,rsi
    2d32:	48 8b 40 30          	mov    rax,QWORD PTR [rax+0x30]
    2d36:	e8 00 00 00 00       	call   2d3b <http_parser_execute+0x47b>
    2d3b:	85 c0                	test   eax,eax
    2d3d:	4c 8b 4d b8          	mov    r9,QWORD PTR [rbp-0x48]
    2d41:	4c 8b 55 b0          	mov    r10,QWORD PTR [rbp-0x50]
    2d45:	4c 8b 9d 78 ff ff ff 	mov    r11,QWORD PTR [rbp-0x88]
    2d4c:	0f 85 36 29 00 00    	jne    5688 <http_parser_execute+0x2dc8>
    2d52:	41 0f b6 41 17       	movzx  eax,BYTE PTR [r9+0x17]
    2d57:	41 8b 39             	mov    edi,DWORD PTR [r9]
    2d5a:	c1 ef 0a             	shr    edi,0xa
    2d5d:	83 e7 7f             	and    edi,0x7f
    2d60:	a8 7f                	test   al,0x7f
    2d62:	88 45 b0             	mov    BYTE PTR [rbp-0x50],al
    2d65:	0f 85 8d 17 00 00    	jne    44f8 <http_parser_execute+0x1c38>
    2d6b:	49 83 c2 01          	add    r10,0x1
    2d6f:	48 c7 45 b8 00 00 00 	mov    QWORD PTR [rbp-0x48],0x0
    2d76:	00 
    2d77:	e9 a3 00 00 00       	jmp    2e1f <http_parser_execute+0x55f>
    2d7c:	83 ff 0a             	cmp    edi,0xa
    2d7f:	0f 84 18 10 00 00    	je     3d9d <http_parser_execute+0x14dd>
    2d85:	0f 86 1f 05 00 00    	jbe    32aa <http_parser_execute+0x9ea>
    2d8b:	83 ff 0c             	cmp    edi,0xc
    2d8e:	0f 84 d9 0f 00 00    	je     3d6d <http_parser_execute+0x14ad>
    2d94:	0f 87 32 07 00 00    	ja     34cc <http_parser_execute+0xc0c>
    2d9a:	41 8d 44 24 d0       	lea    eax,[r12-0x30]
    2d9f:	3c 09                	cmp    al,0x9
    2da1:	0f 87 47 25 00 00    	ja     52ee <http_parser_execute+0x2a2e>
    2da7:	41 83 ec 30          	sub    r12d,0x30
    2dab:	49 83 c2 01          	add    r10,0x1
    2daf:	bf 0c 00 00 00       	mov    edi,0xc
    2db4:	66 45 89 61 12       	mov    WORD PTR [r9+0x12],r12w
    2db9:	eb 64                	jmp    2e1f <http_parser_execute+0x55f>
    2dbb:	83 ff 20             	cmp    edi,0x20
    2dbe:	0f 84 bf 0e 00 00    	je     3c83 <http_parser_execute+0x13c3>
    2dc4:	0f 82 54 0e 00 00    	jb     3c1e <http_parser_execute+0x135e>
    2dca:	83 ff 22             	cmp    edi,0x22
    2dcd:	0f 84 50 0d 00 00    	je     3b23 <http_parser_execute+0x1263>
    2dd3:	0f 87 14 08 00 00    	ja     35ed <http_parser_execute+0xd2d>
    2dd9:	41 80 fc 54          	cmp    r12b,0x54
    2ddd:	0f 85 fc 2c 00 00    	jne    5adf <http_parser_execute+0x321f>
    2de3:	49 83 c2 01          	add    r10,0x1
    2de7:	bf 22 00 00 00       	mov    edi,0x22
    2dec:	eb 31                	jmp    2e1f <http_parser_execute+0x55f>
    2dee:	83 ff 2e             	cmp    edi,0x2e
    2df1:	0f 84 44 0d 00 00    	je     3b3b <http_parser_execute+0x127b>
    2df7:	0f 86 2e 0b 00 00    	jbe    392b <http_parser_execute+0x106b>
    2dfd:	83 ff 30             	cmp    edi,0x30
    2e00:	0f 84 ff 07 00 00    	je     3605 <http_parser_execute+0xd45>
    2e06:	0f 87 65 18 00 00    	ja     4671 <http_parser_execute+0x1db1>
    2e0c:	41 80 fc 0a          	cmp    r12b,0xa
    2e10:	0f 85 c8 2e 00 00    	jne    5cde <http_parser_execute+0x341e>
    2e16:	49 83 c2 01          	add    r10,0x1
    2e1a:	bf 30 00 00 00       	mov    edi,0x30
    2e1f:	4d 39 da             	cmp    r10,r11
    2e22:	0f 85 19 fc ff ff    	jne    2a41 <http_parser_execute+0x181>
    2e28:	4d 89 dc             	mov    r12,r11
    2e2b:	4d 89 cd             	mov    r13,r9
    2e2e:	48 8b 75 90          	mov    rsi,QWORD PTR [rbp-0x70]
    2e32:	83 e7 7f             	and    edi,0x7f
    2e35:	48 85 f6             	test   rsi,rsi
    2e38:	74 4f                	je     2e89 <http_parser_execute+0x5c9>
    2e3a:	48 8b 4d c8          	mov    rcx,QWORD PTR [rbp-0x38]
    2e3e:	48 83 79 18 00       	cmp    QWORD PTR [rcx+0x18],0x0
    2e43:	74 44                	je     2e89 <http_parser_execute+0x5c9>
    2e45:	41 8b 45 00          	mov    eax,DWORD PTR [r13+0x0]
    2e49:	83 e7 7f             	and    edi,0x7f
    2e4c:	4c 89 e2             	mov    rdx,r12
    2e4f:	c1 e7 0a             	shl    edi,0xa
    2e52:	48 29 f2             	sub    rdx,rsi
    2e55:	25 ff 03 fe ff       	and    eax,0xfffe03ff
    2e5a:	09 c7                	or     edi,eax
    2e5c:	41 89 7d 00          	mov    DWORD PTR [r13+0x0],edi
    2e60:	4c 89 ef             	mov    rdi,r13
    2e63:	48 8b 41 18          	mov    rax,QWORD PTR [rcx+0x18]
    2e67:	e8 00 00 00 00       	call   2e6c <http_parser_execute+0x5ac>
    2e6c:	85 c0                	test   eax,eax
    2e6e:	0f 85 74 27 00 00    	jne    55e8 <http_parser_execute+0x2d28>
    2e74:	41 8b 7d 00          	mov    edi,DWORD PTR [r13+0x0]
    2e78:	c1 ef 0a             	shr    edi,0xa
    2e7b:	83 e7 7f             	and    edi,0x7f
    2e7e:	41 f6 45 17 7f       	test   BYTE PTR [r13+0x17],0x7f
    2e83:	0f 85 3a 1c 00 00    	jne    4ac3 <http_parser_execute+0x2203>
    2e89:	48 8b 75 a8          	mov    rsi,QWORD PTR [rbp-0x58]
    2e8d:	48 85 f6             	test   rsi,rsi
    2e90:	74 4f                	je     2ee1 <http_parser_execute+0x621>
    2e92:	48 8b 4d c8          	mov    rcx,QWORD PTR [rbp-0x38]
    2e96:	48 83 79 20 00       	cmp    QWORD PTR [rcx+0x20],0x0
    2e9b:	74 44                	je     2ee1 <http_parser_execute+0x621>
    2e9d:	41 8b 45 00          	mov    eax,DWORD PTR [r13+0x0]
    2ea1:	83 e7 7f             	and    edi,0x7f
    2ea4:	4c 89 e2             	mov    rdx,r12
    2ea7:	c1 e7 0a             	shl    edi,0xa
    2eaa:	48 29 f2             	sub    rdx,rsi
    2ead:	25 ff 03 fe ff       	and    eax,0xfffe03ff
    2eb2:	09 c7                	or     edi,eax
    2eb4:	41 89 7d 00          	mov    DWORD PTR [r13+0x0],edi
    2eb8:	4c 89 ef             	mov    rdi,r13
    2ebb:	48 8b 41 20          	mov    rax,QWORD PTR [rcx+0x20]
    2ebf:	e8 00 00 00 00       	call   2ec4 <http_parser_execute+0x604>
    2ec4:	85 c0                	test   eax,eax
    2ec6:	0f 85 d4 27 00 00    	jne    56a0 <http_parser_execute+0x2de0>
    2ecc:	41 8b 7d 00          	mov    edi,DWORD PTR [r13+0x0]
    2ed0:	c1 ef 0a             	shr    edi,0xa
    2ed3:	83 e7 7f             	and    edi,0x7f
    2ed6:	41 f6 45 17 7f       	test   BYTE PTR [r13+0x17],0x7f
    2edb:	0f 85 e2 1b 00 00    	jne    4ac3 <http_parser_execute+0x2203>
    2ee1:	48 8b 75 98          	mov    rsi,QWORD PTR [rbp-0x68]
    2ee5:	48 85 f6             	test   rsi,rsi
    2ee8:	74 4f                	je     2f39 <http_parser_execute+0x679>
    2eea:	48 8b 4d c8          	mov    rcx,QWORD PTR [rbp-0x38]
    2eee:	48 83 79 08 00       	cmp    QWORD PTR [rcx+0x8],0x0
    2ef3:	74 44                	je     2f39 <http_parser_execute+0x679>
    2ef5:	41 8b 45 00          	mov    eax,DWORD PTR [r13+0x0]
    2ef9:	83 e7 7f             	and    edi,0x7f
    2efc:	4c 89 e2             	mov    rdx,r12
    2eff:	c1 e7 0a             	shl    edi,0xa
    2f02:	48 29 f2             	sub    rdx,rsi
    2f05:	25 ff 03 fe ff       	and    eax,0xfffe03ff
    2f0a:	09 c7                	or     edi,eax
    2f0c:	41 89 7d 00          	mov    DWORD PTR [r13+0x0],edi
    2f10:	4c 89 ef             	mov    rdi,r13
    2f13:	48 8b 41 08          	mov    rax,QWORD PTR [rcx+0x8]
    2f17:	e8 00 00 00 00       	call   2f1c <http_parser_execute+0x65c>
    2f1c:	85 c0                	test   eax,eax
    2f1e:	0f 85 e4 27 00 00    	jne    5708 <http_parser_execute+0x2e48>
    2f24:	41 8b 7d 00          	mov    edi,DWORD PTR [r13+0x0]
    2f28:	c1 ef 0a             	shr    edi,0xa
    2f2b:	83 e7 7f             	and    edi,0x7f
    2f2e:	41 f6 45 17 7f       	test   BYTE PTR [r13+0x17],0x7f
    2f33:	0f 85 8a 1b 00 00    	jne    4ac3 <http_parser_execute+0x2203>
    2f39:	48 8b 75 b8          	mov    rsi,QWORD PTR [rbp-0x48]
    2f3d:	48 85 f6             	test   rsi,rsi
    2f40:	74 4f                	je     2f91 <http_parser_execute+0x6d1>
    2f42:	48 8b 4d c8          	mov    rcx,QWORD PTR [rbp-0x38]
    2f46:	48 83 79 30 00       	cmp    QWORD PTR [rcx+0x30],0x0
    2f4b:	74 44                	je     2f91 <http_parser_execute+0x6d1>
    2f4d:	41 8b 45 00          	mov    eax,DWORD PTR [r13+0x0]
    2f51:	83 e7 7f             	and    edi,0x7f
    2f54:	4c 89 e2             	mov    rdx,r12
    2f57:	c1 e7 0a             	shl    edi,0xa
    2f5a:	48 29 f2             	sub    rdx,rsi
    2f5d:	25 ff 03 fe ff       	and    eax,0xfffe03ff
    2f62:	09 c7                	or     edi,eax
    2f64:	41 89 7d 00          	mov    DWORD PTR [r13+0x0],edi
    2f68:	4c 89 ef             	mov    rdi,r13
    2f6b:	48 8b 41 30          	mov    rax,QWORD PTR [rcx+0x30]
    2f6f:	e8 00 00 00 00       	call   2f74 <http_parser_execute+0x6b4>
    2f74:	85 c0                	test   eax,eax
    2f76:	0f 85 5c 27 00 00    	jne    56d8 <http_parser_execute+0x2e18>
    2f7c:	41 8b 7d 00          	mov    edi,DWORD PTR [r13+0x0]
    2f80:	c1 ef 0a             	shr    edi,0xa
    2f83:	83 e7 7f             	and    edi,0x7f
    2f86:	41 f6 45 17 7f       	test   BYTE PTR [r13+0x17],0x7f
    2f8b:	0f 85 32 1b 00 00    	jne    4ac3 <http_parser_execute+0x2203>
    2f91:	48 8b 75 a0          	mov    rsi,QWORD PTR [rbp-0x60]
    2f95:	48 85 f6             	test   rsi,rsi
    2f98:	74 4f                	je     2fe9 <http_parser_execute+0x729>
    2f9a:	48 8b 4d c8          	mov    rcx,QWORD PTR [rbp-0x38]
    2f9e:	48 83 79 10 00       	cmp    QWORD PTR [rcx+0x10],0x0
    2fa3:	74 44                	je     2fe9 <http_parser_execute+0x729>
    2fa5:	41 8b 45 00          	mov    eax,DWORD PTR [r13+0x0]
    2fa9:	83 e7 7f             	and    edi,0x7f
    2fac:	4c 89 e2             	mov    rdx,r12
    2faf:	c1 e7 0a             	shl    edi,0xa
    2fb2:	48 29 f2             	sub    rdx,rsi
    2fb5:	25 ff 03 fe ff       	and    eax,0xfffe03ff
    2fba:	09 c7                	or     edi,eax
    2fbc:	41 89 7d 00          	mov    DWORD PTR [r13+0x0],edi
    2fc0:	4c 89 ef             	mov    rdi,r13
    2fc3:	48 8b 41 10          	mov    rax,QWORD PTR [rcx+0x10]
    2fc7:	e8 00 00 00 00       	call   2fcc <http_parser_execute+0x70c>
    2fcc:	85 c0                	test   eax,eax
    2fce:	0f 85 1c 27 00 00    	jne    56f0 <http_parser_execute+0x2e30>
    2fd4:	41 8b 7d 00          	mov    edi,DWORD PTR [r13+0x0]
    2fd8:	c1 ef 0a             	shr    edi,0xa
    2fdb:	83 e7 7f             	and    edi,0x7f
    2fde:	41 f6 45 17 7f       	test   BYTE PTR [r13+0x17],0x7f
    2fe3:	0f 85 da 1a 00 00    	jne    4ac3 <http_parser_execute+0x2203>
    2fe9:	41 8b 45 00          	mov    eax,DWORD PTR [r13+0x0]
    2fed:	83 e7 7f             	and    edi,0x7f
    2ff0:	45 89 7d 04          	mov    DWORD PTR [r13+0x4],r15d
    2ff4:	c1 e7 0a             	shl    edi,0xa
    2ff7:	25 ff 03 fe ff       	and    eax,0xfffe03ff
    2ffc:	09 c7                	or     edi,eax
    2ffe:	41 89 7d 00          	mov    DWORD PTR [r13+0x0],edi
    3002:	48 8b 45 c0          	mov    rax,QWORD PTR [rbp-0x40]
    3006:	e9 be f9 ff ff       	jmp    29c9 <http_parser_execute+0x109>
    300b:	48 8b 45 d0          	mov    rax,QWORD PTR [rbp-0x30]
    300f:	48 c7 45 90 00 00 00 	mov    QWORD PTR [rbp-0x70],0x0
    3016:	00 
    3017:	48 89 45 a8          	mov    QWORD PTR [rbp-0x58],rax
    301b:	e9 c8 f9 ff ff       	jmp    29e8 <http_parser_execute+0x128>
    3020:	83 ff 3f             	cmp    edi,0x3f
    3023:	0f 84 dd 0a 00 00    	je     3b06 <http_parser_execute+0x1246>
    3029:	0f 83 22 08 00 00    	jae    3851 <http_parser_execute+0xf91>
    302f:	49 8b 41 08          	mov    rax,QWORD PTR [r9+0x8]
    3033:	4c 89 da             	mov    rdx,r11
    3036:	4c 29 d2             	sub    rdx,r10
    3039:	48 39 c2             	cmp    rdx,rax
    303c:	48 0f 47 d0          	cmova  rdx,rax
    3040:	48 29 d0             	sub    rax,rdx
    3043:	48 83 7d b8 00       	cmp    QWORD PTR [rbp-0x48],0x0
    3048:	4d 8d 74 12 ff       	lea    r14,[r10+rdx*1-0x1]
    304d:	49 89 41 08          	mov    QWORD PTR [r9+0x8],rax
    3051:	0f 84 33 1a 00 00    	je     4a8a <http_parser_execute+0x21ca>
    3057:	48 85 c0             	test   rax,rax
    305a:	0f 85 b7 2e 00 00    	jne    5f17 <http_parser_execute+0x3657>
    3060:	48 8b 4d c8          	mov    rcx,QWORD PTR [rbp-0x38]
    3064:	44 89 85 78 ff ff ff 	mov    DWORD PTR [rbp-0x88],r8d
    306b:	48 83 79 30 00       	cmp    QWORD PTR [rcx+0x30],0x0
    3070:	0f 84 8a 25 00 00    	je     5600 <http_parser_execute+0x2d40>
    3076:	4c 89 5d b0          	mov    QWORD PTR [rbp-0x50],r11
    307a:	41 8b 01             	mov    eax,DWORD PTR [r9]
    307d:	4c 89 f2             	mov    rdx,r14
    3080:	4c 89 cf             	mov    rdi,r9
    3083:	25 ff 03 fe ff       	and    eax,0xfffe03ff
    3088:	0d 00 00 01 00       	or     eax,0x10000
    308d:	41 89 01             	mov    DWORD PTR [r9],eax
    3090:	48 8b 75 b8          	mov    rsi,QWORD PTR [rbp-0x48]
    3094:	48 8b 41 30          	mov    rax,QWORD PTR [rcx+0x30]
    3098:	4c 89 4d b8          	mov    QWORD PTR [rbp-0x48],r9
    309c:	48 29 f2             	sub    rdx,rsi
    309f:	48 83 c2 01          	add    rdx,0x1
    30a3:	e8 00 00 00 00       	call   30a8 <http_parser_execute+0x7e8>
    30a8:	85 c0                	test   eax,eax
    30aa:	4c 8b 4d b8          	mov    r9,QWORD PTR [rbp-0x48]
    30ae:	4c 8b 5d b0          	mov    r11,QWORD PTR [rbp-0x50]
    30b2:	44 8b 85 78 ff ff ff 	mov    r8d,DWORD PTR [rbp-0x88]
    30b9:	0f 85 f9 25 00 00    	jne    56b8 <http_parser_execute+0x2df8>
    30bf:	41 0f b6 41 17       	movzx  eax,BYTE PTR [r9+0x17]
    30c4:	41 8b 39             	mov    edi,DWORD PTR [r9]
    30c7:	c1 ef 0a             	shr    edi,0xa
    30ca:	83 e7 7f             	and    edi,0x7f
    30cd:	a8 7f                	test   al,0x7f
    30cf:	88 45 b0             	mov    BYTE PTR [rbp-0x50],al
    30d2:	0f 85 89 25 00 00    	jne    5661 <http_parser_execute+0x2da1>
    30d8:	4d 89 f2             	mov    r10,r14
    30db:	48 c7 45 b8 00 00 00 	mov    QWORD PTR [rbp-0x48],0x0
    30e2:	00 
    30e3:	e9 7f f9 ff ff       	jmp    2a67 <http_parser_execute+0x1a7>
    30e8:	41 0f b6 41 17       	movzx  eax,BYTE PTR [r9+0x17]
    30ed:	4d 89 cd             	mov    r13,r9
    30f0:	45 89 79 04          	mov    DWORD PTR [r9+0x4],r15d
    30f4:	83 e7 7f             	and    edi,0x7f
    30f7:	4d 89 d6             	mov    r14,r10
    30fa:	83 e0 80             	and    eax,0xffffff80
    30fd:	83 c8 0c             	or     eax,0xc
    3100:	41 88 41 17          	mov    BYTE PTR [r9+0x17],al
    3104:	41 0f b6 45 17       	movzx  eax,BYTE PTR [r13+0x17]
    3109:	a8 7f                	test   al,0x7f
    310b:	75 0a                	jne    3117 <http_parser_execute+0x857>
    310d:	83 e0 80             	and    eax,0xffffff80
    3110:	83 c8 20             	or     eax,0x20
    3113:	41 88 45 17          	mov    BYTE PTR [r13+0x17],al
    3117:	41 8b 45 00          	mov    eax,DWORD PTR [r13+0x0]
    311b:	83 e7 7f             	and    edi,0x7f
    311e:	45 89 7d 04          	mov    DWORD PTR [r13+0x4],r15d
    3122:	c1 e7 0a             	shl    edi,0xa
    3125:	25 ff 03 fe ff       	and    eax,0xfffe03ff
    312a:	09 c7                	or     edi,eax
    312c:	4c 89 f0             	mov    rax,r14
    312f:	41 89 7d 00          	mov    DWORD PTR [r13+0x0],edi
    3133:	48 2b 45 d0          	sub    rax,QWORD PTR [rbp-0x30]
    3137:	48 83 c4 70          	add    rsp,0x70
    313b:	5b                   	pop    rbx
    313c:	41 5c                	pop    r12
    313e:	41 5d                	pop    r13
    3140:	41 5e                	pop    r14
    3142:	41 5f                	pop    r15
    3144:	5d                   	pop    rbp
    3145:	c3                   	ret    
    3146:	83 ff 01             	cmp    edi,0x1
    3149:	0f 84 9d 03 00 00    	je     34ec <http_parser_execute+0xc2c>
    314f:	83 ff 02             	cmp    edi,0x2
    3152:	0f 85 47 15 00 00    	jne    469f <http_parser_execute+0x1ddf>
    3158:	41 80 fc 0d          	cmp    r12b,0xd
    315c:	0f 84 69 2b 00 00    	je     5ccb <http_parser_execute+0x340b>
    3162:	41 80 fc 0a          	cmp    r12b,0xa
    3166:	0f 84 5f 2b 00 00    	je     5ccb <http_parser_execute+0x340b>
    316c:	41 0f b6 41 03       	movzx  eax,BYTE PTR [r9+0x3]
    3171:	66 41 81 21 03 fc    	and    WORD PTR [r9],0xfc03
    3177:	49 c7 41 08 ff ff ff 	mov    QWORD PTR [r9+0x8],0xffffffffffffffff
    317e:	ff 
    317f:	83 e0 9f             	and    eax,0xffffff9f
    3182:	41 80 fc 48          	cmp    r12b,0x48
    3186:	41 88 41 03          	mov    BYTE PTR [r9+0x3],al
    318a:	0f 84 f9 27 00 00    	je     5989 <http_parser_execute+0x30c9>
    3190:	41 80 21 fc          	and    BYTE PTR [r9],0xfc
    3194:	89 c2                	mov    edx,eax
    3196:	66 41 81 21 03 fc    	and    WORD PTR [r9],0xfc03
    319c:	49 c7 41 08 ff ff ff 	mov    QWORD PTR [r9+0x8],0xffffffffffffffff
    31a3:	ff 
    31a4:	83 e2 9f             	and    edx,0xffffff9f
    31a7:	41 88 51 03          	mov    BYTE PTR [r9+0x3],dl
    31ab:	44 89 e2             	mov    edx,r12d
    31ae:	83 ca 20             	or     edx,0x20
    31b1:	83 ea 61             	sub    edx,0x61
    31b4:	80 fa 19             	cmp    dl,0x19
    31b7:	0f 87 2d 23 00 00    	ja     54ea <http_parser_execute+0x2c2a>
    31bd:	83 e0 80             	and    eax,0xffffff80
    31c0:	41 c6 41 16 00       	mov    BYTE PTR [r9+0x16],0x0
    31c5:	83 c8 01             	or     eax,0x1
    31c8:	41 80 fc 4d          	cmp    r12b,0x4d
    31cc:	41 88 41 03          	mov    BYTE PTR [r9+0x3],al
    31d0:	0f 84 d8 26 00 00    	je     58ae <http_parser_execute+0x2fee>
    31d6:	0f 8f 32 1d 00 00    	jg     4f0e <http_parser_execute+0x264e>
    31dc:	41 80 fc 44          	cmp    r12b,0x44
    31e0:	74 25                	je     3207 <http_parser_execute+0x947>
    31e2:	0f 8f e4 22 00 00    	jg     54cc <http_parser_execute+0x2c0c>
    31e8:	41 80 fc 42          	cmp    r12b,0x42
    31ec:	0f 84 3a 27 00 00    	je     592c <http_parser_execute+0x306c>
    31f2:	0f 8f 3e 27 00 00    	jg     5936 <http_parser_execute+0x3076>
    31f8:	41 80 fc 41          	cmp    r12b,0x41
    31fc:	0f 85 e8 22 00 00    	jne    54ea <http_parser_execute+0x2c2a>
    3202:	41 c6 41 16 13       	mov    BYTE PTR [r9+0x16],0x13
    3207:	48 8b 45 c8          	mov    rax,QWORD PTR [rbp-0x38]
    320b:	48 83 38 00          	cmp    QWORD PTR [rax],0x0
    320f:	0f 84 85 25 00 00    	je     579a <http_parser_execute+0x2eda>
    3215:	4c 89 9d 70 ff ff ff 	mov    QWORD PTR [rbp-0x90],r11
    321c:	4c 89 95 78 ff ff ff 	mov    QWORD PTR [rbp-0x88],r10
    3223:	4c 89 cf             	mov    rdi,r9
    3226:	41 8b 01             	mov    eax,DWORD PTR [r9]
    3229:	25 ff 03 fe ff       	and    eax,0xfffe03ff
    322e:	80 cc 4c             	or     ah,0x4c
    3231:	41 89 01             	mov    DWORD PTR [r9],eax
    3234:	48 8b 45 c8          	mov    rax,QWORD PTR [rbp-0x38]
    3238:	4c 89 4d b0          	mov    QWORD PTR [rbp-0x50],r9
    323c:	48 8b 00             	mov    rax,QWORD PTR [rax]
    323f:	e8 00 00 00 00       	call   3244 <http_parser_execute+0x984>
    3244:	85 c0                	test   eax,eax
    3246:	4c 8b 4d b0          	mov    r9,QWORD PTR [rbp-0x50]
    324a:	4c 8b 95 78 ff ff ff 	mov    r10,QWORD PTR [rbp-0x88]
    3251:	4c 8b 9d 70 ff ff ff 	mov    r11,QWORD PTR [rbp-0x90]
    3258:	0f 85 e6 25 00 00    	jne    5844 <http_parser_execute+0x2f84>
    325e:	41 0f b6 41 17       	movzx  eax,BYTE PTR [r9+0x17]
    3263:	41 8b 39             	mov    edi,DWORD PTR [r9]
    3266:	c1 ef 0a             	shr    edi,0xa
    3269:	83 e7 7f             	and    edi,0x7f
    326c:	a8 7f                	test   al,0x7f
    326e:	88 45 b0             	mov    BYTE PTR [rbp-0x50],al
    3271:	0f 85 81 12 00 00    	jne    44f8 <http_parser_execute+0x1c38>
    3277:	49 83 c2 01          	add    r10,0x1
    327b:	e9 9f fb ff ff       	jmp    2e1f <http_parser_execute+0x55f>
    3280:	83 ff 25             	cmp    edi,0x25
    3283:	0f 84 6c 04 00 00    	je     36f5 <http_parser_execute+0xe35>
    3289:	83 ff 26             	cmp    edi,0x26
    328c:	0f 85 0d 14 00 00    	jne    469f <http_parser_execute+0x1ddf>
    3292:	41 80 fc 45          	cmp    r12b,0x45
    3296:	0f 85 ac 28 00 00    	jne    5b48 <http_parser_execute+0x3288>
    329c:	49 83 c2 01          	add    r10,0x1
    32a0:	bf 24 00 00 00       	mov    edi,0x24
    32a5:	e9 75 fb ff ff       	jmp    2e1f <http_parser_execute+0x55f>
    32aa:	83 ff 08             	cmp    edi,0x8
    32ad:	0f 84 2a 04 00 00    	je     36dd <http_parser_execute+0xe1d>
    32b3:	83 ff 09             	cmp    edi,0x9
    32b6:	0f 85 e3 13 00 00    	jne    469f <http_parser_execute+0x1ddf>
    32bc:	41 8d 44 24 d0       	lea    eax,[r12-0x30]
    32c1:	3c 09                	cmp    al,0x9
    32c3:	0f 87 cb 20 00 00    	ja     5394 <http_parser_execute+0x2ad4>
    32c9:	41 83 ec 30          	sub    r12d,0x30
    32cd:	49 83 c2 01          	add    r10,0x1
    32d1:	bf 0a 00 00 00       	mov    edi,0xa
    32d6:	66 45 89 61 10       	mov    WORD PTR [r9+0x10],r12w
    32db:	e9 3f fb ff ff       	jmp    2e1f <http_parser_execute+0x55f>
    32e0:	83 ff 33             	cmp    edi,0x33
    32e3:	0f 85 3c 04 00 00    	jne    3725 <http_parser_execute+0xe65>
    32e9:	41 80 fc 20          	cmp    r12b,0x20
    32ed:	41 0f b6 41 02       	movzx  eax,BYTE PTR [r9+0x2]
    32f2:	0f 84 66 12 00 00    	je     455e <http_parser_execute+0x1c9e>
    32f8:	41 80 fc 09          	cmp    r12b,0x9
    32fc:	0f 84 5c 12 00 00    	je     455e <http_parser_execute+0x1c9e>
    3302:	d0 e8                	shr    al,1
    3304:	3c 18                	cmp    al,0x18
    3306:	0f 84 33 1f 00 00    	je     523f <http_parser_execute+0x297f>
    330c:	0f 86 e9 1d 00 00    	jbe    50fb <http_parser_execute+0x283b>
    3312:	3c 19                	cmp    al,0x19
    3314:	0f 84 39 1f 00 00    	je     5253 <http_parser_execute+0x2993>
    331a:	3c 1a                	cmp    al,0x1a
    331c:	75 05                	jne    3323 <http_parser_execute+0xa63>
    331e:	66 41 83 09 20       	or     WORD PTR [r9],0x20
    3323:	41 80 fc 0d          	cmp    r12b,0xd
    3327:	0f 84 a4 27 00 00    	je     5ad1 <http_parser_execute+0x3211>
    332d:	41 80 fc 0a          	cmp    r12b,0xa
    3331:	0f 85 2c 27 00 00    	jne    5a63 <http_parser_execute+0x31a3>
    3337:	41 0f b7 01          	movzx  eax,WORD PTR [r9]
    333b:	44 89 85 78 ff ff ff 	mov    DWORD PTR [rbp-0x88],r8d
    3342:	66 c1 e8 02          	shr    ax,0x2
    3346:	a8 10                	test   al,0x10
    3348:	89 c2                	mov    edx,eax
    334a:	0f 84 5f 12 00 00    	je     45af <http_parser_execute+0x1cef>
    3350:	48 8b 75 c8          	mov    rsi,QWORD PTR [rbp-0x38]
    3354:	48 83 7e 48 00       	cmp    QWORD PTR [rsi+0x48],0x0
    3359:	0f 84 fb 04 00 00    	je     385a <http_parser_execute+0xf9a>
    335f:	4c 89 9d 68 ff ff ff 	mov    QWORD PTR [rbp-0x98],r11
    3366:	4c 89 95 70 ff ff ff 	mov    QWORD PTR [rbp-0x90],r10
    336d:	4c 89 cf             	mov    rdi,r9
    3370:	41 8b 01             	mov    eax,DWORD PTR [r9]
    3373:	25 ff 03 fe ff       	and    eax,0xfffe03ff
    3378:	0d 00 00 01 00       	or     eax,0x10000
    337d:	41 89 01             	mov    DWORD PTR [r9],eax
    3380:	4c 89 4d b0          	mov    QWORD PTR [rbp-0x50],r9
    3384:	48 8b 46 48          	mov    rax,QWORD PTR [rsi+0x48]
    3388:	e8 00 00 00 00       	call   338d <http_parser_execute+0xacd>
    338d:	85 c0                	test   eax,eax
    338f:	4c 8b 4d b0          	mov    r9,QWORD PTR [rbp-0x50]
    3393:	4c 8b 95 70 ff ff ff 	mov    r10,QWORD PTR [rbp-0x90]
    339a:	4c 8b 9d 68 ff ff ff 	mov    r11,QWORD PTR [rbp-0x98]
    33a1:	44 8b 85 78 ff ff ff 	mov    r8d,DWORD PTR [rbp-0x88]
    33a8:	0f 85 1d 24 00 00    	jne    57cb <http_parser_execute+0x2f0b>
    33ae:	41 0f b6 41 17       	movzx  eax,BYTE PTR [r9+0x17]
    33b3:	41 8b 39             	mov    edi,DWORD PTR [r9]
    33b6:	c1 ef 0a             	shr    edi,0xa
    33b9:	83 e7 7f             	and    edi,0x7f
    33bc:	a8 7f                	test   al,0x7f
    33be:	88 45 b0             	mov    BYTE PTR [rbp-0x50],al
    33c1:	0f 85 46 21 00 00    	jne    550d <http_parser_execute+0x2c4d>
    33c7:	41 bc 0a 00 00 00    	mov    r12d,0xa
    33cd:	e9 95 f6 ff ff       	jmp    2a67 <http_parser_execute+0x1a7>
    33d2:	48 8b 45 d0          	mov    rax,QWORD PTR [rbp-0x30]
    33d6:	48 c7 45 90 00 00 00 	mov    QWORD PTR [rbp-0x70],0x0
    33dd:	00 
    33de:	bf 10 00 00 00       	mov    edi,0x10
    33e3:	48 c7 45 a8 00 00 00 	mov    QWORD PTR [rbp-0x58],0x0
    33ea:	00 
    33eb:	48 c7 45 98 00 00 00 	mov    QWORD PTR [rbp-0x68],0x0
    33f2:	00 
    33f3:	48 89 45 a0          	mov    QWORD PTR [rbp-0x60],rax
    33f7:	e9 fc f5 ff ff       	jmp    29f8 <http_parser_execute+0x138>
    33fc:	45 84 e4             	test   r12b,r12b
    33ff:	0f 84 a4 1c 00 00    	je     50a9 <http_parser_execute+0x27e9>
    3405:	41 0f b6 71 16       	movzx  esi,BYTE PTR [r9+0x16]
    340a:	41 0f b6 41 03       	movzx  eax,BYTE PTR [r9+0x3]
    340f:	48 89 f2             	mov    rdx,rsi
    3412:	48 8b 34 f5 00 00 00 	mov    rsi,QWORD PTR [rsi*8+0x0]
    3419:	00 
    341a:	83 e0 1f             	and    eax,0x1f
    341d:	0f b6 c8             	movzx  ecx,al
    3420:	41 80 fc 20          	cmp    r12b,0x20
    3424:	0f b6 0c 0e          	movzx  ecx,BYTE PTR [rsi+rcx*1]
    3428:	0f 84 4a 16 00 00    	je     4a78 <http_parser_execute+0x21b8>
    342e:	41 38 cc             	cmp    r12b,cl
    3431:	74 7a                	je     34ad <http_parser_execute+0xbed>
    3433:	41 8d 4c 24 bf       	lea    ecx,[r12-0x41]
    3438:	80 f9 19             	cmp    cl,0x19
    343b:	76 0a                	jbe    3447 <http_parser_execute+0xb87>
    343d:	41 80 fc 2d          	cmp    r12b,0x2d
    3441:	0f 85 62 1c 00 00    	jne    50a9 <http_parser_execute+0x27e9>
    3447:	0f b6 c8             	movzx  ecx,al
    344a:	c1 e2 10             	shl    edx,0x10
    344d:	c1 e1 08             	shl    ecx,0x8
    3450:	09 ca                	or     edx,ecx
    3452:	41 09 d4             	or     r12d,edx
    3455:	41 81 fc 4f 01 0a 00 	cmp    r12d,0xa014f
    345c:	0f 84 0b 29 00 00    	je     5d6d <http_parser_execute+0x34ad>
    3462:	0f 8f a6 19 00 00    	jg     4e0e <http_parser_execute+0x254e>
    3468:	41 81 fc 48 01 05 00 	cmp    r12d,0x50148
    346f:	0f 84 e4 25 00 00    	je     5a59 <http_parser_execute+0x3199>
    3475:	0f 8f e2 1d 00 00    	jg     525d <http_parser_execute+0x299d>
    347b:	41 81 fc 52 01 03 00 	cmp    r12d,0x30152
    3482:	0f 84 79 28 00 00    	je     5d01 <http_parser_execute+0x3441>
    3488:	0f 8e b2 24 00 00    	jle    5940 <http_parser_execute+0x3080>
    348e:	41 81 fc 55 01 03 00 	cmp    r12d,0x30155
    3495:	0f 84 39 28 00 00    	je     5cd4 <http_parser_execute+0x3414>
    349b:	41 81 fc 52 02 04 00 	cmp    r12d,0x40252
    34a2:	0f 85 01 1c 00 00    	jne    50a9 <http_parser_execute+0x27e9>
    34a8:	41 c6 41 16 1d       	mov    BYTE PTR [r9+0x16],0x1d
    34ad:	83 c0 01             	add    eax,0x1
    34b0:	49 83 c2 01          	add    r10,0x1
    34b4:	83 e0 1f             	and    eax,0x1f
    34b7:	89 c2                	mov    edx,eax
    34b9:	41 0f b6 41 03       	movzx  eax,BYTE PTR [r9+0x3]
    34be:	83 e0 e0             	and    eax,0xffffffe0
    34c1:	09 d0                	or     eax,edx
    34c3:	41 88 41 03          	mov    BYTE PTR [r9+0x3],al
    34c7:	e9 53 f9 ff ff       	jmp    2e1f <http_parser_execute+0x55f>
    34cc:	41 8d 44 24 d0       	lea    eax,[r12-0x30]
    34d1:	3c 09                	cmp    al,0x9
    34d3:	0f 86 bb 10 00 00    	jbe    4594 <http_parser_execute+0x1cd4>
    34d9:	41 80 fc 20          	cmp    r12b,0x20
    34dd:	0f 85 bc 2a 00 00    	jne    5f9f <http_parser_execute+0x36df>
    34e3:	49 83 c2 01          	add    r10,0x1
    34e7:	e9 33 f9 ff ff       	jmp    2e1f <http_parser_execute+0x55f>
    34ec:	41 80 fc 0d          	cmp    r12b,0xd
    34f0:	74 0a                	je     34fc <http_parser_execute+0xc3c>
    34f2:	41 80 fc 0a          	cmp    r12b,0xa
    34f6:	0f 85 cf 1d 00 00    	jne    52cb <http_parser_execute+0x2a0b>
    34fc:	49 83 c2 01          	add    r10,0x1
    3500:	e9 1a f9 ff ff       	jmp    2e1f <http_parser_execute+0x55f>
    3505:	41 0f b7 01          	movzx  eax,WORD PTR [r9]
    3509:	89 c2                	mov    edx,eax
    350b:	66 c1 ea 02          	shr    dx,0x2
    350f:	41 80 fc 0a          	cmp    r12b,0xa
    3513:	0f 85 75 26 00 00    	jne    5b8e <http_parser_execute+0x32ce>
    3519:	49 83 79 08 00       	cmp    QWORD PTR [r9+0x8],0x0
    351e:	41 c7 41 04 00 00 00 	mov    DWORD PTR [r9+0x4],0x0
    3525:	00 
    3526:	bf 3b 00 00 00       	mov    edi,0x3b
    352b:	75 18                	jne    3545 <http_parser_execute+0xc85>
    352d:	83 ca 10             	or     edx,0x10
    3530:	66 25 03 fc          	and    ax,0xfc03
    3534:	bf 2c 00 00 00       	mov    edi,0x2c
    3539:	0f b6 d2             	movzx  edx,dl
    353c:	c1 e2 02             	shl    edx,0x2
    353f:	09 d0                	or     eax,edx
    3541:	66 41 89 01          	mov    WORD PTR [r9],ax
    3545:	48 8b 45 c8          	mov    rax,QWORD PTR [rbp-0x38]
    3549:	48 83 78 40 00       	cmp    QWORD PTR [rax+0x40],0x0
    354e:	0f 84 bd 1d 00 00    	je     5311 <http_parser_execute+0x2a51>
    3554:	83 e7 7f             	and    edi,0x7f
    3557:	4c 89 9d 70 ff ff ff 	mov    QWORD PTR [rbp-0x90],r11
    355e:	4c 89 95 78 ff ff ff 	mov    QWORD PTR [rbp-0x88],r10
    3565:	89 f8                	mov    eax,edi
    3567:	41 8b 39             	mov    edi,DWORD PTR [r9]
    356a:	c1 e0 0a             	shl    eax,0xa
    356d:	81 e7 ff 03 fe ff    	and    edi,0xfffe03ff
    3573:	09 c7                	or     edi,eax
    3575:	41 89 39             	mov    DWORD PTR [r9],edi
    3578:	48 8b 45 c8          	mov    rax,QWORD PTR [rbp-0x38]
    357c:	4c 89 cf             	mov    rdi,r9
    357f:	4c 89 4d b0          	mov    QWORD PTR [rbp-0x50],r9
    3583:	48 8b 40 40          	mov    rax,QWORD PTR [rax+0x40]
    3587:	e8 00 00 00 00       	call   358c <http_parser_execute+0xccc>
    358c:	85 c0                	test   eax,eax
    358e:	4c 8b 4d b0          	mov    r9,QWORD PTR [rbp-0x50]
    3592:	4c 8b 95 78 ff ff ff 	mov    r10,QWORD PTR [rbp-0x88]
    3599:	4c 8b 9d 70 ff ff ff 	mov    r11,QWORD PTR [rbp-0x90]
    35a0:	0f 85 e4 1f 00 00    	jne    558a <http_parser_execute+0x2cca>
    35a6:	41 0f b6 41 17       	movzx  eax,BYTE PTR [r9+0x17]
    35ab:	41 8b 39             	mov    edi,DWORD PTR [r9]
    35ae:	c1 ef 0a             	shr    edi,0xa
    35b1:	83 e7 7f             	and    edi,0x7f
    35b4:	a8 7f                	test   al,0x7f
    35b6:	88 45 b0             	mov    BYTE PTR [rbp-0x50],al
    35b9:	0f 85 39 0f 00 00    	jne    44f8 <http_parser_execute+0x1c38>
    35bf:	49 83 c2 01          	add    r10,0x1
    35c3:	45 31 ff             	xor    r15d,r15d
    35c6:	e9 54 f8 ff ff       	jmp    2e1f <http_parser_execute+0x55f>
    35cb:	41 80 fc 0d          	cmp    r12b,0xd
    35cf:	0f 84 0d 13 00 00    	je     48e2 <http_parser_execute+0x2022>
    35d5:	41 80 fc 0a          	cmp    r12b,0xa
    35d9:	0f 85 b6 2a 00 00    	jne    6095 <http_parser_execute+0x37d5>
    35df:	49 83 c2 01          	add    r10,0x1
    35e3:	bf 2c 00 00 00       	mov    edi,0x2c
    35e8:	e9 32 f8 ff ff       	jmp    2e1f <http_parser_execute+0x55f>
    35ed:	41 80 fc 50          	cmp    r12b,0x50
    35f1:	0f 85 00 28 00 00    	jne    5df7 <http_parser_execute+0x3537>
    35f7:	49 83 c2 01          	add    r10,0x1
    35fb:	bf 24 00 00 00       	mov    edi,0x24
    3600:	e9 1a f8 ff ff       	jmp    2e1f <http_parser_execute+0x55f>
    3605:	41 80 fc 20          	cmp    r12b,0x20
    3609:	0f 84 30 27 00 00    	je     5d3f <http_parser_execute+0x347f>
    360f:	41 80 fc 09          	cmp    r12b,0x9
    3613:	0f 84 26 27 00 00    	je     5d3f <http_parser_execute+0x347f>
    3619:	41 0f b6 41 02       	movzx  eax,BYTE PTR [r9+0x2]
    361e:	d0 e8                	shr    al,1
    3620:	3c 18                	cmp    al,0x18
    3622:	0f 84 6e 1a 00 00    	je     5096 <http_parser_execute+0x27d6>
    3628:	0f 87 a3 10 00 00    	ja     46d1 <http_parser_execute+0x1e11>
    362e:	3c 0a                	cmp    al,0xa
    3630:	0f 84 3d 1a 00 00    	je     5073 <http_parser_execute+0x27b3>
    3636:	3c 17                	cmp    al,0x17
    3638:	75 05                	jne    363f <http_parser_execute+0xd7f>
    363a:	66 41 83 09 04       	or     WORD PTR [r9],0x4
    363f:	48 83 7d a8 00       	cmp    QWORD PTR [rbp-0x58],0x0
    3644:	0f 84 ae 15 00 00    	je     4bf8 <http_parser_execute+0x2338>
    364a:	48 8b 4d c8          	mov    rcx,QWORD PTR [rbp-0x38]
    364e:	48 83 79 20 00       	cmp    QWORD PTR [rcx+0x20],0x0
    3653:	0f 84 4f 14 00 00    	je     4aa8 <http_parser_execute+0x21e8>
    3659:	4c 89 9d 68 ff ff ff 	mov    QWORD PTR [rbp-0x98],r11
    3660:	44 89 85 70 ff ff ff 	mov    DWORD PTR [rbp-0x90],r8d
    3667:	4c 89 d2             	mov    rdx,r10
    366a:	41 8b 01             	mov    eax,DWORD PTR [r9]
    366d:	4c 89 cf             	mov    rdi,r9
    3670:	25 ff 03 fe ff       	and    eax,0xfffe03ff
    3675:	80 cc b0             	or     ah,0xb0
    3678:	41 89 01             	mov    DWORD PTR [r9],eax
    367b:	48 8b 75 a8          	mov    rsi,QWORD PTR [rbp-0x58]
    367f:	4c 89 95 78 ff ff ff 	mov    QWORD PTR [rbp-0x88],r10
    3686:	4c 89 4d b0          	mov    QWORD PTR [rbp-0x50],r9
    368a:	48 8b 41 20          	mov    rax,QWORD PTR [rcx+0x20]
    368e:	48 29 f2             	sub    rdx,rsi
    3691:	e8 00 00 00 00       	call   3696 <http_parser_execute+0xdd6>
    3696:	85 c0                	test   eax,eax
    3698:	4c 8b 4d b0          	mov    r9,QWORD PTR [rbp-0x50]
    369c:	4c 8b 95 78 ff ff ff 	mov    r10,QWORD PTR [rbp-0x88]
    36a3:	44 8b 85 70 ff ff ff 	mov    r8d,DWORD PTR [rbp-0x90]
    36aa:	4c 8b 9d 68 ff ff ff 	mov    r11,QWORD PTR [rbp-0x98]
    36b1:	0f 85 77 20 00 00    	jne    572e <http_parser_execute+0x2e6e>
    36b7:	41 0f b6 41 17       	movzx  eax,BYTE PTR [r9+0x17]
    36bc:	41 8b 39             	mov    edi,DWORD PTR [r9]
    36bf:	c1 ef 0a             	shr    edi,0xa
    36c2:	83 e7 7f             	and    edi,0x7f
    36c5:	a8 7f                	test   al,0x7f
    36c7:	88 45 b0             	mov    BYTE PTR [rbp-0x50],al
    36ca:	0f 85 3d 1e 00 00    	jne    550d <http_parser_execute+0x2c4d>
    36d0:	48 c7 45 a8 00 00 00 	mov    QWORD PTR [rbp-0x58],0x0
    36d7:	00 
    36d8:	e9 8a f3 ff ff       	jmp    2a67 <http_parser_execute+0x1a7>
    36dd:	41 80 fc 2f          	cmp    r12b,0x2f
    36e1:	0f 85 1b 24 00 00    	jne    5b02 <http_parser_execute+0x3242>
    36e7:	49 83 c2 01          	add    r10,0x1
    36eb:	bf 09 00 00 00       	mov    edi,0x9
    36f0:	e9 2a f7 ff ff       	jmp    2e1f <http_parser_execute+0x55f>
    36f5:	41 80 fc 43          	cmp    r12b,0x43
    36f9:	0f 85 98 25 00 00    	jne    5c97 <http_parser_execute+0x33d7>
    36ff:	49 83 c2 01          	add    r10,0x1
    3703:	bf 26 00 00 00       	mov    edi,0x26
    3708:	e9 12 f7 ff ff       	jmp    2e1f <http_parser_execute+0x55f>
    370d:	41 80 fc 54          	cmp    r12b,0x54
    3711:	0f 85 0e 24 00 00    	jne    5b25 <http_parser_execute+0x3265>
    3717:	49 83 c2 01          	add    r10,0x1
    371b:	bf 07 00 00 00       	mov    edi,0x7
    3720:	e9 fa f6 ff ff       	jmp    2e1f <http_parser_execute+0x55f>
    3725:	83 ff 34             	cmp    edi,0x34
    3728:	0f 85 71 0f 00 00    	jne    469f <http_parser_execute+0x1ddf>
    372e:	41 80 fc 0a          	cmp    r12b,0xa
    3732:	0f 85 b3 1c 00 00    	jne    53eb <http_parser_execute+0x2b2b>
    3738:	49 83 c2 01          	add    r10,0x1
    373c:	bf 33 00 00 00       	mov    edi,0x33
    3741:	e9 d9 f6 ff ff       	jmp    2e1f <http_parser_execute+0x55f>
    3746:	41 80 fc 0a          	cmp    r12b,0xa
    374a:	0f 85 1b 24 00 00    	jne    5b6b <http_parser_execute+0x32ab>
    3750:	41 0f b7 01          	movzx  eax,WORD PTR [r9]
    3754:	41 c7 41 04 00 00 00 	mov    DWORD PTR [r9+0x4],0x0
    375b:	00 
    375c:	ba 01 00 00 00       	mov    edx,0x1
    3761:	66 c1 e8 02          	shr    ax,0x2
    3765:	89 c1                	mov    ecx,eax
    3767:	83 e1 01             	and    ecx,0x1
    376a:	0f 84 ad 18 00 00    	je     501d <http_parser_execute+0x275d>
    3770:	80 7d b0 00          	cmp    BYTE PTR [rbp-0x50],0x0
    3774:	0f 88 d8 0f 00 00    	js     4752 <http_parser_execute+0x1e92>
    377a:	a8 40                	test   al,0x40
    377c:	0f 84 fb 0e 00 00    	je     467d <http_parser_execute+0x1dbd>
    3782:	4c 89 cf             	mov    rdi,r9
    3785:	4c 89 9d 68 ff ff ff 	mov    QWORD PTR [rbp-0x98],r11
    378c:	4c 89 95 70 ff ff ff 	mov    QWORD PTR [rbp-0x90],r10
    3793:	4c 89 8d 78 ff ff ff 	mov    QWORD PTR [rbp-0x88],r9
    379a:	e8 00 00 00 00       	call   379f <http_parser_execute+0xedf>
    379f:	85 c0                	test   eax,eax
    37a1:	bf 01 00 00 00       	mov    edi,0x1
    37a6:	4c 8b 8d 78 ff ff ff 	mov    r9,QWORD PTR [rbp-0x88]
    37ad:	4c 8b 95 70 ff ff ff 	mov    r10,QWORD PTR [rbp-0x90]
    37b4:	4c 8b 9d 68 ff ff ff 	mov    r11,QWORD PTR [rbp-0x98]
    37bb:	74 11                	je     37ce <http_parser_execute+0xf0e>
    37bd:	41 0f b6 01          	movzx  eax,BYTE PTR [r9]
    37c1:	83 e0 03             	and    eax,0x3
    37c4:	3c 01                	cmp    al,0x1
    37c6:	19 ff                	sbb    edi,edi
    37c8:	83 e7 0e             	and    edi,0xe
    37cb:	83 c7 04             	add    edi,0x4
    37ce:	48 8b 45 c8          	mov    rax,QWORD PTR [rbp-0x38]
    37d2:	48 83 78 38 00       	cmp    QWORD PTR [rax+0x38],0x0
    37d7:	0f 84 77 1f 00 00    	je     5754 <http_parser_execute+0x2e94>
    37dd:	4c 89 9d 70 ff ff ff 	mov    QWORD PTR [rbp-0x90],r11
    37e4:	4c 89 95 78 ff ff ff 	mov    QWORD PTR [rbp-0x88],r10
    37eb:	83 e7 7f             	and    edi,0x7f
    37ee:	41 8b 01             	mov    eax,DWORD PTR [r9]
    37f1:	c1 e7 0a             	shl    edi,0xa
    37f4:	25 ff 03 fe ff       	and    eax,0xfffe03ff
    37f9:	09 f8                	or     eax,edi
    37fb:	4c 89 cf             	mov    rdi,r9
    37fe:	41 89 01             	mov    DWORD PTR [r9],eax
    3801:	48 8b 45 c8          	mov    rax,QWORD PTR [rbp-0x38]
    3805:	4c 89 4d b0          	mov    QWORD PTR [rbp-0x50],r9
    3809:	48 8b 40 38          	mov    rax,QWORD PTR [rax+0x38]
    380d:	e8 00 00 00 00       	call   3812 <http_parser_execute+0xf52>
    3812:	85 c0                	test   eax,eax
    3814:	4c 8b 4d b0          	mov    r9,QWORD PTR [rbp-0x50]
    3818:	4c 8b 95 78 ff ff ff 	mov    r10,QWORD PTR [rbp-0x88]
    381f:	4c 8b 9d 70 ff ff ff 	mov    r11,QWORD PTR [rbp-0x90]
    3826:	0f 85 34 1f 00 00    	jne    5760 <http_parser_execute+0x2ea0>
    382c:	41 0f b6 41 17       	movzx  eax,BYTE PTR [r9+0x17]
    3831:	41 8b 39             	mov    edi,DWORD PTR [r9]
    3834:	c1 ef 0a             	shr    edi,0xa
    3837:	83 e7 7f             	and    edi,0x7f
    383a:	a8 7f                	test   al,0x7f
    383c:	88 45 b0             	mov    BYTE PTR [rbp-0x50],al
    383f:	0f 85 b3 0c 00 00    	jne    44f8 <http_parser_execute+0x1c38>
    3845:	49 83 c2 01          	add    r10,0x1
    3849:	45 31 ff             	xor    r15d,r15d
    384c:	e9 ce f5 ff ff       	jmp    2e1f <http_parser_execute+0x55f>
    3851:	83 ff 40             	cmp    edi,0x40
    3854:	0f 85 45 0e 00 00    	jne    469f <http_parser_execute+0x1ddf>
    385a:	4c 89 cf             	mov    rdi,r9
    385d:	4c 89 9d 68 ff ff ff 	mov    QWORD PTR [rbp-0x98],r11
    3864:	4c 89 95 70 ff ff ff 	mov    QWORD PTR [rbp-0x90],r10
    386b:	4c 89 8d 78 ff ff ff 	mov    QWORD PTR [rbp-0x88],r9
    3872:	e8 00 00 00 00       	call   3877 <http_parser_execute+0xfb7>
    3877:	85 c0                	test   eax,eax
    3879:	bf 01 00 00 00       	mov    edi,0x1
    387e:	4c 8b 8d 78 ff ff ff 	mov    r9,QWORD PTR [rbp-0x88]
    3885:	4c 8b 95 70 ff ff ff 	mov    r10,QWORD PTR [rbp-0x90]
    388c:	4c 8b 9d 68 ff ff ff 	mov    r11,QWORD PTR [rbp-0x98]
    3893:	74 11                	je     38a6 <http_parser_execute+0xfe6>
    3895:	41 0f b6 01          	movzx  eax,BYTE PTR [r9]
    3899:	83 e0 03             	and    eax,0x3
    389c:	3c 01                	cmp    al,0x1
    389e:	19 ff                	sbb    edi,edi
    38a0:	83 e7 0e             	and    edi,0xe
    38a3:	83 c7 04             	add    edi,0x4
    38a6:	48 8b 75 c8          	mov    rsi,QWORD PTR [rbp-0x38]
    38aa:	48 83 7e 38 00       	cmp    QWORD PTR [rsi+0x38],0x0
    38af:	74 67                	je     3918 <http_parser_execute+0x1058>
    38b1:	83 e7 7f             	and    edi,0x7f
    38b4:	4c 89 9d 70 ff ff ff 	mov    QWORD PTR [rbp-0x90],r11
    38bb:	4c 89 95 78 ff ff ff 	mov    QWORD PTR [rbp-0x88],r10
    38c2:	89 f8                	mov    eax,edi
    38c4:	41 8b 39             	mov    edi,DWORD PTR [r9]
    38c7:	c1 e0 0a             	shl    eax,0xa
    38ca:	81 e7 ff 03 fe ff    	and    edi,0xfffe03ff
    38d0:	09 c7                	or     edi,eax
    38d2:	41 89 39             	mov    DWORD PTR [r9],edi
    38d5:	4c 89 cf             	mov    rdi,r9
    38d8:	4c 89 4d b0          	mov    QWORD PTR [rbp-0x50],r9
    38dc:	48 8b 46 38          	mov    rax,QWORD PTR [rsi+0x38]
    38e0:	e8 00 00 00 00       	call   38e5 <http_parser_execute+0x1025>
    38e5:	85 c0                	test   eax,eax
    38e7:	4c 8b 4d b0          	mov    r9,QWORD PTR [rbp-0x50]
    38eb:	4c 8b 95 78 ff ff ff 	mov    r10,QWORD PTR [rbp-0x88]
    38f2:	4c 8b 9d 70 ff ff ff 	mov    r11,QWORD PTR [rbp-0x90]
    38f9:	0f 85 1a 1c 00 00    	jne    5519 <http_parser_execute+0x2c59>
    38ff:	41 0f b6 41 17       	movzx  eax,BYTE PTR [r9+0x17]
    3904:	41 8b 39             	mov    edi,DWORD PTR [r9]
    3907:	c1 ef 0a             	shr    edi,0xa
    390a:	83 e7 7f             	and    edi,0x7f
    390d:	a8 7f                	test   al,0x7f
    390f:	88 45 b0             	mov    BYTE PTR [rbp-0x50],al
    3912:	0f 85 e0 0b 00 00    	jne    44f8 <http_parser_execute+0x1c38>
    3918:	80 7d b0 00          	cmp    BYTE PTR [rbp-0x50],0x0
    391c:	0f 88 66 25 00 00    	js     5e88 <http_parser_execute+0x35c8>
    3922:	49 83 c2 01          	add    r10,0x1
    3926:	e9 f4 f4 ff ff       	jmp    2e1f <http_parser_execute+0x55f>
    392b:	83 ff 2c             	cmp    edi,0x2c
    392e:	0f 84 ef f9 ff ff    	je     3323 <http_parser_execute+0xa63>
    3934:	83 ff 2d             	cmp    edi,0x2d
    3937:	0f 85 62 0d 00 00    	jne    469f <http_parser_execute+0x1ddf>
    393d:	4d 39 da             	cmp    r10,r11
    3940:	44 8b 25 00 00 00 00 	mov    r12d,DWORD PTR [rip+0x0]        # 3947 <http_parser_execute+0x1087>
    3947:	4c 89 95 78 ff ff ff 	mov    QWORD PTR [rbp-0x88],r10
    394e:	0f 84 c4 0d 00 00    	je     4718 <http_parser_execute+0x1e58>
    3954:	41 0f b6 12          	movzx  edx,BYTE PTR [r10]
    3958:	80 fa 20             	cmp    dl,0x20
    395b:	0f 84 9a 1e 00 00    	je     57fb <http_parser_execute+0x2f3b>
    3961:	0f b6 c2             	movzx  eax,dl
    3964:	48 c7 c6 00 00 00 00 	mov    rsi,0x0
    396b:	0f b6 88 00 00 00 00 	movzx  ecx,BYTE PTR [rax+0x0]
    3972:	84 c9                	test   cl,cl
    3974:	0f 84 a9 1e 00 00    	je     5823 <http_parser_execute+0x2f63>
    397a:	44 89 e0             	mov    eax,r12d
    397d:	48 89 85 70 ff ff ff 	mov    QWORD PTR [rbp-0x90],rax
    3984:	eb 7c                	jmp    3a02 <http_parser_execute+0x1142>
    3986:	80 fa 02             	cmp    dl,0x2
    3989:	0f 84 02 0a 00 00    	je     4391 <http_parser_execute+0x1ad1>
    398f:	0f 86 e1 00 00 00    	jbe    3a76 <http_parser_execute+0x11b6>
    3995:	80 fa 04             	cmp    dl,0x4
    3998:	0f 84 75 0a 00 00    	je     4413 <http_parser_execute+0x1b53>
    399e:	0f 87 1f 0a 00 00    	ja     43c3 <http_parser_execute+0x1b03>
    39a4:	41 0f b6 51 03       	movzx  edx,BYTE PTR [r9+0x3]
    39a9:	41 83 e0 01          	and    r8d,0x1
    39ad:	44 8d 72 01          	lea    r14d,[rdx+0x1]
    39b1:	83 e2 e0             	and    edx,0xffffffe0
    39b4:	41 83 e6 1f          	and    r14d,0x1f
    39b8:	44 09 f2             	or     edx,r14d
    39bb:	80 f9 6e             	cmp    cl,0x6e
    39be:	41 88 51 03          	mov    BYTE PTR [r9+0x3],dl
    39c2:	0f 84 3b 16 00 00    	je     5003 <http_parser_execute+0x2743>
    39c8:	44 89 c2             	mov    edx,r8d
    39cb:	83 ca 0c             	or     edx,0xc
    39ce:	80 f9 74             	cmp    cl,0x74
    39d1:	44 0f 44 c2          	cmove  r8d,edx
    39d5:	45 88 41 02          	mov    BYTE PTR [r9+0x2],r8b
    39d9:	4c 39 d8             	cmp    rax,r11
    39dc:	0f 84 33 0d 00 00    	je     4715 <http_parser_execute+0x1e55>
    39e2:	41 0f b6 52 01       	movzx  edx,BYTE PTR [r10+0x1]
    39e7:	80 fa 20             	cmp    dl,0x20
    39ea:	0f 84 dc 10 00 00    	je     4acc <http_parser_execute+0x220c>
    39f0:	0f b6 ca             	movzx  ecx,dl
    39f3:	49 89 c2             	mov    r10,rax
    39f6:	0f b6 0c 0e          	movzx  ecx,BYTE PTR [rsi+rcx*1]
    39fa:	84 c9                	test   cl,cl
    39fc:	0f 84 11 11 00 00    	je     4b13 <http_parser_execute+0x2253>
    3a02:	45 0f b6 41 02       	movzx  r8d,BYTE PTR [r9+0x2]
    3a07:	49 8d 42 01          	lea    rax,[r10+0x1]
    3a0b:	48 89 c3             	mov    rbx,rax
    3a0e:	44 89 c2             	mov    edx,r8d
    3a11:	d0 ea                	shr    dl,1
    3a13:	80 fa 06             	cmp    dl,0x6
    3a16:	0f 84 37 0a 00 00    	je     4453 <http_parser_execute+0x1b93>
    3a1c:	0f 86 64 ff ff ff    	jbe    3986 <http_parser_execute+0x10c6>
    3a22:	80 fa 0a             	cmp    dl,0xa
    3a25:	0f 87 95 0c 00 00    	ja     46c0 <http_parser_execute+0x1e00>
    3a2b:	80 fa 09             	cmp    dl,0x9
    3a2e:	73 3c                	jae    3a6c <http_parser_execute+0x11ac>
    3a30:	80 fa 07             	cmp    dl,0x7
    3a33:	0f 84 6a 0a 00 00    	je     44a3 <http_parser_execute+0x1be3>
    3a39:	80 fa 08             	cmp    dl,0x8
    3a3c:	75 9b                	jne    39d9 <http_parser_execute+0x1119>
    3a3e:	41 0f b6 51 03       	movzx  edx,BYTE PTR [r9+0x3]
    3a43:	44 8d 72 01          	lea    r14d,[rdx+0x1]
    3a47:	83 e2 e0             	and    edx,0xffffffe0
    3a4a:	41 83 e6 1f          	and    r14d,0x1f
    3a4e:	44 09 f2             	or     edx,r14d
    3a51:	41 80 fe 07          	cmp    r14b,0x7
    3a55:	41 88 51 03          	mov    BYTE PTR [r9+0x3],dl
    3a59:	77 11                	ja     3a6c <http_parser_execute+0x11ac>
    3a5b:	41 83 e6 1f          	and    r14d,0x1f
    3a5f:	41 38 8e 00 00 00 00 	cmp    BYTE PTR [r14+0x0],cl
    3a66:	0f 84 42 1a 00 00    	je     54ae <http_parser_execute+0x2bee>
    3a6c:	41 80 61 02 01       	and    BYTE PTR [r9+0x2],0x1
    3a71:	e9 63 ff ff ff       	jmp    39d9 <http_parser_execute+0x1119>
    3a76:	84 d2                	test   dl,dl
    3a78:	0f 84 8a 0a 00 00    	je     4508 <http_parser_execute+0x1c48>
    3a7e:	80 fa 01             	cmp    dl,0x1
    3a81:	0f 85 52 ff ff ff    	jne    39d9 <http_parser_execute+0x1119>
    3a87:	41 0f b6 51 03       	movzx  edx,BYTE PTR [r9+0x3]
    3a8c:	44 8d 72 01          	lea    r14d,[rdx+0x1]
    3a90:	83 e2 e0             	and    edx,0xffffffe0
    3a93:	41 83 e6 1f          	and    r14d,0x1f
    3a97:	44 09 f2             	or     edx,r14d
    3a9a:	80 f9 6f             	cmp    cl,0x6f
    3a9d:	41 88 51 03          	mov    BYTE PTR [r9+0x3],dl
    3aa1:	0f 94 c2             	sete   dl
    3aa4:	41 83 e0 01          	and    r8d,0x1
    3aa8:	c1 e2 02             	shl    edx,0x2
    3aab:	41 09 d0             	or     r8d,edx
    3aae:	45 88 41 02          	mov    BYTE PTR [r9+0x2],r8b
    3ab2:	e9 22 ff ff ff       	jmp    39d9 <http_parser_execute+0x1119>
    3ab7:	83 ff 0f             	cmp    edi,0xf
    3aba:	0f 85 d6 0b 00 00    	jne    4696 <http_parser_execute+0x1dd6>
    3ac0:	48 8b 45 a0          	mov    rax,QWORD PTR [rbp-0x60]
    3ac4:	48 85 c0             	test   rax,rax
    3ac7:	49 0f 44 c2          	cmove  rax,r10
    3acb:	41 80 61 03 e0       	and    BYTE PTR [r9+0x3],0xe0
    3ad0:	41 80 fc 0d          	cmp    r12b,0xd
    3ad4:	48 89 45 a0          	mov    QWORD PTR [rbp-0x60],rax
    3ad8:	74 0a                	je     3ae4 <http_parser_execute+0x1224>
    3ada:	41 80 fc 0a          	cmp    r12b,0xa
    3ade:	0f 85 24 21 00 00    	jne    5c08 <http_parser_execute+0x3348>
    3ae4:	41 80 fc 0d          	cmp    r12b,0xd
    3ae8:	0f 84 45 0d 00 00    	je     4833 <http_parser_execute+0x1f73>
    3aee:	41 80 fc 0a          	cmp    r12b,0xa
    3af2:	0f 84 7e 13 00 00    	je     4e76 <http_parser_execute+0x25b6>
    3af8:	49 83 c2 01          	add    r10,0x1
    3afc:	bf 10 00 00 00       	mov    edi,0x10
    3b01:	e9 19 f3 ff ff       	jmp    2e1f <http_parser_execute+0x55f>
    3b06:	48 8b 45 b8          	mov    rax,QWORD PTR [rbp-0x48]
    3b0a:	4d 89 dc             	mov    r12,r11
    3b0d:	4d 89 d3             	mov    r11,r10
    3b10:	4d 89 cd             	mov    r13,r9
    3b13:	48 85 c0             	test   rax,rax
    3b16:	4c 0f 45 d8          	cmovne r11,rax
    3b1a:	4c 89 5d b8          	mov    QWORD PTR [rbp-0x48],r11
    3b1e:	e9 0b f3 ff ff       	jmp    2e2e <http_parser_execute+0x56e>
    3b23:	41 80 fc 54          	cmp    r12b,0x54
    3b27:	0f 85 0c 21 00 00    	jne    5c39 <http_parser_execute+0x3379>
    3b2d:	49 83 c2 01          	add    r10,0x1
    3b31:	bf 23 00 00 00       	mov    edi,0x23
    3b36:	e9 e4 f2 ff ff       	jmp    2e1f <http_parser_execute+0x55f>
    3b3b:	41 80 fc 20          	cmp    r12b,0x20
    3b3f:	0f 84 10 0a 00 00    	je     4555 <http_parser_execute+0x1c95>
    3b45:	41 80 fc 09          	cmp    r12b,0x9
    3b49:	0f 84 06 0a 00 00    	je     4555 <http_parser_execute+0x1c95>
    3b4f:	41 80 fc 0d          	cmp    r12b,0xd
    3b53:	0f 84 f8 14 00 00    	je     5051 <http_parser_execute+0x2791>
    3b59:	41 80 fc 0a          	cmp    r12b,0xa
    3b5d:	0f 84 ce 16 00 00    	je     5231 <http_parser_execute+0x2971>
    3b63:	41 0f b6 41 02       	movzx  eax,BYTE PTR [r9+0x2]
    3b68:	d0 e8                	shr    al,1
    3b6a:	48 8b 75 a8          	mov    rsi,QWORD PTR [rbp-0x58]
    3b6e:	44 89 e2             	mov    edx,r12d
    3b71:	48 85 f6             	test   rsi,rsi
    3b74:	49 0f 44 f2          	cmove  rsi,r10
    3b78:	41 80 61 03 e0       	and    BYTE PTR [r9+0x3],0xe0
    3b7d:	83 ca 20             	or     edx,0x20
    3b80:	3c 0d                	cmp    al,0xd
    3b82:	48 89 75 a8          	mov    QWORD PTR [rbp-0x58],rsi
    3b86:	0f 84 2e 14 00 00    	je     4fba <http_parser_execute+0x26fa>
    3b8c:	0f 87 b6 0e 00 00    	ja     4a48 <http_parser_execute+0x2188>
    3b92:	3c 0a                	cmp    al,0xa
    3b94:	0f 84 a8 13 00 00    	je     4f42 <http_parser_execute+0x2682>
    3b9a:	3c 0c                	cmp    al,0xc
    3b9c:	0f 84 e4 09 00 00    	je     4586 <http_parser_execute+0x1cc6>
    3ba2:	3c 09                	cmp    al,0x9
    3ba4:	0f 85 fd 13 00 00    	jne    4fa7 <http_parser_execute+0x26e7>
    3baa:	41 0f b6 41 02       	movzx  eax,BYTE PTR [r9+0x2]
    3baf:	49 83 c2 01          	add    r10,0x1
    3bb3:	83 e0 01             	and    eax,0x1
    3bb6:	80 fa 6b             	cmp    dl,0x6b
    3bb9:	0f 84 51 1a 00 00    	je     5610 <http_parser_execute+0x2d50>
    3bbf:	80 fa 63             	cmp    dl,0x63
    3bc2:	0f 84 4a 1c 00 00    	je     5812 <http_parser_execute+0x2f52>
    3bc8:	80 fa 75             	cmp    dl,0x75
    3bcb:	0f 84 4a 1d 00 00    	je     591b <http_parser_execute+0x305b>
    3bd1:	83 c8 2c             	or     eax,0x2c
    3bd4:	bf 32 00 00 00       	mov    edi,0x32
    3bd9:	41 88 41 02          	mov    BYTE PTR [r9+0x2],al
    3bdd:	e9 3d f2 ff ff       	jmp    2e1f <http_parser_execute+0x55f>
    3be2:	45 0f b6 e4          	movzx  r12d,r12b
    3be6:	49 0f be 84 24 00 00 	movsx  rax,BYTE PTR [r12+0x0]
    3bed:	00 00 
    3bef:	3c ff                	cmp    al,0xff
    3bf1:	0f 84 3a 18 00 00    	je     5431 <http_parser_execute+0x2b71>
    3bf7:	49 89 41 08          	mov    QWORD PTR [r9+0x8],rax
    3bfb:	49 83 c2 01          	add    r10,0x1
    3bff:	bf 36 00 00 00       	mov    edi,0x36
    3c04:	e9 16 f2 ff ff       	jmp    2e1f <http_parser_execute+0x55f>
    3c09:	49 83 c2 01          	add    r10,0x1
    3c0d:	b8 38 00 00 00       	mov    eax,0x38
    3c12:	41 80 fc 0d          	cmp    r12b,0xd
    3c16:	0f 44 f8             	cmove  edi,eax
    3c19:	e9 01 f2 ff ff       	jmp    2e1f <http_parser_execute+0x55f>
    3c1e:	41 80 fc 0d          	cmp    r12b,0xd
    3c22:	0f 84 60 0d 00 00    	je     4988 <http_parser_execute+0x20c8>
    3c28:	41 80 fc 20          	cmp    r12b,0x20
    3c2c:	0f 84 be 0c 00 00    	je     48f0 <http_parser_execute+0x2030>
    3c32:	41 80 fc 0a          	cmp    r12b,0xa
    3c36:	0f 84 4c 0d 00 00    	je     4988 <http_parser_execute+0x20c8>
    3c3c:	41 0f be f4          	movsx  esi,r12b
    3c40:	4c 89 8d 70 ff ff ff 	mov    QWORD PTR [rbp-0x90],r9
    3c47:	4c 89 95 78 ff ff ff 	mov    QWORD PTR [rbp-0x88],r10
    3c4e:	4c 89 9d 68 ff ff ff 	mov    QWORD PTR [rbp-0x98],r11
    3c55:	e8 16 e9 ff ff       	call   2570 <parse_url_char>
    3c5a:	83 f8 01             	cmp    eax,0x1
    3c5d:	89 c7                	mov    edi,eax
    3c5f:	4c 8b 95 78 ff ff ff 	mov    r10,QWORD PTR [rbp-0x88]
    3c66:	4c 8b 8d 70 ff ff ff 	mov    r9,QWORD PTR [rbp-0x90]
    3c6d:	0f 84 6d 13 00 00    	je     4fe0 <http_parser_execute+0x2720>
    3c73:	49 83 c2 01          	add    r10,0x1
    3c77:	4c 8b 9d 68 ff ff ff 	mov    r11,QWORD PTR [rbp-0x98]
    3c7e:	e9 9c f1 ff ff       	jmp    2e1f <http_parser_execute+0x55f>
    3c83:	41 80 fc 48          	cmp    r12b,0x48
    3c87:	0f 84 5d 0f 00 00    	je     4bea <http_parser_execute+0x232a>
    3c8d:	41 80 fc 49          	cmp    r12b,0x49
    3c91:	0f 84 3a 0f 00 00    	je     4bd1 <http_parser_execute+0x2311>
    3c97:	41 80 fc 20          	cmp    r12b,0x20
    3c9b:	0f 84 27 0f 00 00    	je     4bc8 <http_parser_execute+0x2308>
    3ca1:	41 0f b6 41 17       	movzx  eax,BYTE PTR [r9+0x17]
    3ca6:	4d 89 cd             	mov    r13,r9
    3ca9:	45 89 79 04          	mov    DWORD PTR [r9+0x4],r15d
    3cad:	4d 89 d6             	mov    r14,r10
    3cb0:	bf 20 00 00 00       	mov    edi,0x20
    3cb5:	83 e0 80             	and    eax,0xffffff80
    3cb8:	83 c8 1c             	or     eax,0x1c
    3cbb:	41 88 41 17          	mov    BYTE PTR [r9+0x17],al
    3cbf:	e9 40 f4 ff ff       	jmp    3104 <http_parser_execute+0x844>
    3cc4:	41 80 fc 20          	cmp    r12b,0x20
    3cc8:	41 0f be f4          	movsx  esi,r12b
    3ccc:	77 14                	ja     3ce2 <http_parser_execute+0x1422>
    3cce:	48 b8 00 24 00 00 01 	movabs rax,0x100002400
    3cd5:	00 00 00 
    3cd8:	4c 0f a3 e0          	bt     rax,r12
    3cdc:	0f 82 9c 22 00 00    	jb     5f7e <http_parser_execute+0x36be>
    3ce2:	4c 89 8d 70 ff ff ff 	mov    QWORD PTR [rbp-0x90],r9
    3ce9:	4c 89 95 78 ff ff ff 	mov    QWORD PTR [rbp-0x88],r10
    3cf0:	4c 89 9d 68 ff ff ff 	mov    QWORD PTR [rbp-0x98],r11
    3cf7:	e8 74 e8 ff ff       	call   2570 <parse_url_char>
    3cfc:	83 f8 01             	cmp    eax,0x1
    3cff:	89 c7                	mov    edi,eax
    3d01:	4c 8b 95 78 ff ff ff 	mov    r10,QWORD PTR [rbp-0x88]
    3d08:	4c 8b 8d 70 ff ff ff 	mov    r9,QWORD PTR [rbp-0x90]
    3d0f:	0f 84 cb 12 00 00    	je     4fe0 <http_parser_execute+0x2720>
    3d15:	49 83 c2 01          	add    r10,0x1
    3d19:	4c 8b 9d 68 ff ff ff 	mov    r11,QWORD PTR [rbp-0x98]
    3d20:	e9 fa f0 ff ff       	jmp    2e1f <http_parser_execute+0x55f>
    3d25:	41 8d 44 24 d0       	lea    eax,[r12-0x30]
    3d2a:	3c 09                	cmp    al,0x9
    3d2c:	0f 87 eb 15 00 00    	ja     531d <http_parser_execute+0x2a5d>
    3d32:	41 83 ec 30          	sub    r12d,0x30
    3d36:	49 83 c2 01          	add    r10,0x1
    3d3a:	bf 2a 00 00 00       	mov    edi,0x2a
    3d3f:	66 45 89 61 12       	mov    WORD PTR [r9+0x12],r12w
    3d44:	e9 d6 f0 ff ff       	jmp    2e1f <http_parser_execute+0x55f>
    3d49:	41 8d 44 24 d0       	lea    eax,[r12-0x30]
    3d4e:	3c 09                	cmp    al,0x9
    3d50:	0f 87 f8 15 00 00    	ja     534e <http_parser_execute+0x2a8e>
    3d56:	41 83 ec 30          	sub    r12d,0x30
    3d5a:	49 83 c2 01          	add    r10,0x1
    3d5e:	bf 28 00 00 00       	mov    edi,0x28
    3d63:	66 45 89 61 10       	mov    WORD PTR [r9+0x10],r12w
    3d68:	e9 b2 f0 ff ff       	jmp    2e1f <http_parser_execute+0x55f>
    3d6d:	41 80 fc 20          	cmp    r12b,0x20
    3d71:	0f 85 40 16 00 00    	jne    53b7 <http_parser_execute+0x2af7>
    3d77:	49 83 c2 01          	add    r10,0x1
    3d7b:	bf 0d 00 00 00       	mov    edi,0xd
    3d80:	e9 9a f0 ff ff       	jmp    2e1f <http_parser_execute+0x55f>
    3d85:	41 80 fc 2f          	cmp    r12b,0x2f
    3d89:	0f 85 e5 1e 00 00    	jne    5c74 <http_parser_execute+0x33b4>
    3d8f:	49 83 c2 01          	add    r10,0x1
    3d93:	bf 27 00 00 00       	mov    edi,0x27
    3d98:	e9 82 f0 ff ff       	jmp    2e1f <http_parser_execute+0x55f>
    3d9d:	41 80 fc 2e          	cmp    r12b,0x2e
    3da1:	0f 85 ad 16 00 00    	jne    5454 <http_parser_execute+0x2b94>
    3da7:	49 83 c2 01          	add    r10,0x1
    3dab:	bf 0b 00 00 00       	mov    edi,0xb
    3db0:	e9 6a f0 ff ff       	jmp    2e1f <http_parser_execute+0x55f>
    3db5:	41 80 fc 0a          	cmp    r12b,0xa
    3db9:	0f 85 f2 1d 00 00    	jne    5bb1 <http_parser_execute+0x32f1>
    3dbf:	49 83 c2 01          	add    r10,0x1
    3dc3:	bf 2c 00 00 00       	mov    edi,0x2c
    3dc8:	e9 52 f0 ff ff       	jmp    2e1f <http_parser_execute+0x55f>
    3dcd:	41 80 fc 54          	cmp    r12b,0x54
    3dd1:	0f 85 3f 1e 00 00    	jne    5c16 <http_parser_execute+0x3356>
    3dd7:	49 83 c2 01          	add    r10,0x1
    3ddb:	bf 06 00 00 00       	mov    edi,0x6
    3de0:	e9 3a f0 ff ff       	jmp    2e1f <http_parser_execute+0x55f>
    3de5:	49 8b 41 08          	mov    rax,QWORD PTR [r9+0x8]
    3de9:	48 8b 75 b8          	mov    rsi,QWORD PTR [rbp-0x48]
    3ded:	4c 89 da             	mov    rdx,r11
    3df0:	4c 29 d2             	sub    rdx,r10
    3df3:	48 39 c2             	cmp    rdx,rax
    3df6:	48 0f 47 d0          	cmova  rdx,rax
    3dfa:	48 85 f6             	test   rsi,rsi
    3dfd:	49 0f 44 f2          	cmove  rsi,r10
    3e01:	48 29 d0             	sub    rax,rdx
    3e04:	49 01 d2             	add    r10,rdx
    3e07:	49 89 41 08          	mov    QWORD PTR [r9+0x8],rax
    3e0b:	48 85 c0             	test   rax,rax
    3e0e:	b8 3c 00 00 00       	mov    eax,0x3c
    3e13:	48 89 75 b8          	mov    QWORD PTR [rbp-0x48],rsi
    3e17:	0f 44 f8             	cmove  edi,eax
    3e1a:	e9 00 f0 ff ff       	jmp    2e1f <http_parser_execute+0x55f>
    3e1f:	41 80 fc 0a          	cmp    r12b,0xa
    3e23:	0f 85 e5 15 00 00    	jne    540e <http_parser_execute+0x2b4e>
    3e29:	49 83 c2 01          	add    r10,0x1
    3e2d:	bf 2c 00 00 00       	mov    edi,0x2c
    3e32:	e9 e8 ef ff ff       	jmp    2e1f <http_parser_execute+0x55f>
    3e37:	41 0f b6 41 02       	movzx  eax,BYTE PTR [r9+0x2]
    3e3c:	d0 e8                	shr    al,1
    3e3e:	4d 39 da             	cmp    r10,r11
    3e41:	0f b6 c0             	movzx  eax,al
    3e44:	0f 84 70 1e 00 00    	je     5cba <http_parser_execute+0x33fa>
    3e4a:	41 0f b6 0a          	movzx  ecx,BYTE PTR [r10]
    3e4e:	80 f9 0d             	cmp    cl,0xd
    3e51:	0f 84 e8 0d 00 00    	je     4c3f <http_parser_execute+0x237f>
    3e57:	8b 35 00 00 00 00    	mov    esi,DWORD PTR [rip+0x0]        # 3e5d <http_parser_execute+0x159d>
    3e5d:	80 f9 0a             	cmp    cl,0xa
    3e60:	89 b5 78 ff ff ff    	mov    DWORD PTR [rbp-0x88],esi
    3e66:	0f 84 d8 0e 00 00    	je     4d44 <http_parser_execute+0x2484>
    3e6c:	8b b5 78 ff ff ff    	mov    esi,DWORD PTR [rbp-0x88]
    3e72:	4d 89 d6             	mov    r14,r10
    3e75:	48 89 b5 70 ff ff ff 	mov    QWORD PTR [rbp-0x90],rsi
    3e7c:	e9 84 00 00 00       	jmp    3f05 <http_parser_execute+0x1645>
    3e81:	83 f8 0b             	cmp    eax,0xb
    3e84:	0f 84 f0 04 00 00    	je     437a <http_parser_execute+0x1aba>
    3e8a:	0f 86 3a 01 00 00    	jbe    3fca <http_parser_execute+0x170a>
    3e90:	83 f8 0d             	cmp    eax,0xd
    3e93:	0f 84 28 01 00 00    	je     3fc1 <http_parser_execute+0x1701>
    3e99:	0f 82 73 04 00 00    	jb     4312 <http_parser_execute+0x1a52>
    3e9f:	83 f8 0f             	cmp    eax,0xf
    3ea2:	0f 84 a2 03 00 00    	je     424a <http_parser_execute+0x198a>
    3ea8:	83 f8 10             	cmp    eax,0x10
    3eab:	0f 85 57 03 00 00    	jne    4208 <http_parser_execute+0x1948>
    3eb1:	41 0f b6 71 03       	movzx  esi,BYTE PTR [r9+0x3]
    3eb6:	4d 8d 66 01          	lea    r12,[r14+0x1]
    3eba:	8d 4e 01             	lea    ecx,[rsi+0x1]
    3ebd:	83 e6 e0             	and    esi,0xffffffe0
    3ec0:	83 e1 1f             	and    ecx,0x1f
    3ec3:	09 ce                	or     esi,ecx
    3ec5:	80 f9 07             	cmp    cl,0x7
    3ec8:	41 88 71 03          	mov    BYTE PTR [r9+0x3],sil
    3ecc:	77 0f                	ja     3edd <http_parser_execute+0x161d>
    3ece:	83 e1 1f             	and    ecx,0x1f
    3ed1:	38 91 00 00 00 00    	cmp    BYTE PTR [rcx+0x0],dl
    3ed7:	0f 84 30 12 00 00    	je     510d <http_parser_execute+0x284d>
    3edd:	b8 11 00 00 00       	mov    eax,0x11
    3ee2:	4d 39 e3             	cmp    r11,r12
    3ee5:	0f 84 69 01 00 00    	je     4054 <http_parser_execute+0x1794>
    3eeb:	41 0f b6 4e 01       	movzx  ecx,BYTE PTR [r14+0x1]
    3ef0:	80 f9 0d             	cmp    cl,0xd
    3ef3:	0f 84 49 0d 00 00    	je     4c42 <http_parser_execute+0x2382>
    3ef9:	80 f9 0a             	cmp    cl,0xa
    3efc:	4d 89 e6             	mov    r14,r12
    3eff:	0f 84 42 0e 00 00    	je     4d47 <http_parser_execute+0x2487>
    3f05:	80 f9 09             	cmp    cl,0x9
    3f08:	74 16                	je     3f20 <http_parser_execute+0x1660>
    3f0a:	84 db                	test   bl,bl
    3f0c:	74 12                	je     3f20 <http_parser_execute+0x1660>
    3f0e:	80 f9 1f             	cmp    cl,0x1f
    3f11:	0f 86 1a 12 00 00    	jbe    5131 <http_parser_execute+0x2871>
    3f17:	80 f9 7f             	cmp    cl,0x7f
    3f1a:	0f 84 11 12 00 00    	je     5131 <http_parser_execute+0x2871>
    3f20:	89 ca                	mov    edx,ecx
    3f22:	83 ca 20             	or     edx,0x20
    3f25:	83 f8 11             	cmp    eax,0x11
    3f28:	0f 84 48 03 00 00    	je     4276 <http_parser_execute+0x19b6>
    3f2e:	0f 86 4d ff ff ff    	jbe    3e81 <http_parser_execute+0x15c1>
    3f34:	83 f8 15             	cmp    eax,0x15
    3f37:	0f 84 d6 02 00 00    	je     4213 <http_parser_execute+0x1953>
    3f3d:	77 4d                	ja     3f8c <http_parser_execute+0x16cc>
    3f3f:	83 f8 13             	cmp    eax,0x13
    3f42:	0f 84 86 03 00 00    	je     42ce <http_parser_execute+0x1a0e>
    3f48:	0f 87 44 03 00 00    	ja     4292 <http_parser_execute+0x19d2>
    3f4e:	80 fa 6b             	cmp    dl,0x6b
    3f51:	4d 8d 66 01          	lea    r12,[r14+0x1]
    3f55:	0f 84 da 0c 00 00    	je     4c35 <http_parser_execute+0x2375>
    3f5b:	80 fa 63             	cmp    dl,0x63
    3f5e:	0f 84 fb 10 00 00    	je     505f <http_parser_execute+0x279f>
    3f64:	80 fa 75             	cmp    dl,0x75
    3f67:	0f 84 dc 12 00 00    	je     5249 <http_parser_execute+0x2989>
    3f6d:	80 fa 20             	cmp    dl,0x20
    3f70:	0f 84 6c ff ff ff    	je     3ee2 <http_parser_execute+0x1622>
    3f76:	0f b6 d2             	movzx  edx,dl
    3f79:	80 ba 00 00 00 00 01 	cmp    BYTE PTR [rdx+0x0],0x1
    3f80:	19 c0                	sbb    eax,eax
    3f82:	f7 d0                	not    eax
    3f84:	83 e0 16             	and    eax,0x16
    3f87:	e9 56 ff ff ff       	jmp    3ee2 <http_parser_execute+0x1622>
    3f8c:	83 f8 17             	cmp    eax,0x17
    3f8f:	0f 84 d1 03 00 00    	je     4366 <http_parser_execute+0x1aa6>
    3f95:	0f 82 af 03 00 00    	jb     434a <http_parser_execute+0x1a8a>
    3f9b:	83 f8 1a             	cmp    eax,0x1a
    3f9e:	0f 87 64 02 00 00    	ja     4208 <http_parser_execute+0x1948>
    3fa4:	80 f9 2c             	cmp    cl,0x2c
    3fa7:	4d 8d 66 01          	lea    r12,[r14+0x1]
    3fab:	0f 84 4e 0d 00 00    	je     4cff <http_parser_execute+0x243f>
    3fb1:	80 f9 20             	cmp    cl,0x20
    3fb4:	be 16 00 00 00       	mov    esi,0x16
    3fb9:	0f 45 c6             	cmovne eax,esi
    3fbc:	e9 21 ff ff ff       	jmp    3ee2 <http_parser_execute+0x1622>
    3fc1:	4d 8d 66 01          	lea    r12,[r14+0x1]
    3fc5:	e9 18 ff ff ff       	jmp    3ee2 <http_parser_execute+0x1622>
    3fca:	83 f8 09             	cmp    eax,0x9
    3fcd:	74 f2                	je     3fc1 <http_parser_execute+0x1701>
    3fcf:	0f 87 e6 01 00 00    	ja     41bb <http_parser_execute+0x18fb>
    3fd5:	85 c0                	test   eax,eax
    3fd7:	0f 85 2b 02 00 00    	jne    4208 <http_parser_execute+0x1948>
    3fdd:	48 8b b5 70 ff ff ff 	mov    rsi,QWORD PTR [rbp-0x90]
    3fe4:	4c 89 da             	mov    rdx,r11
    3fe7:	4c 29 f2             	sub    rdx,r14
    3fea:	48 39 f2             	cmp    rdx,rsi
    3fed:	48 0f 47 d6          	cmova  rdx,rsi
    3ff1:	49 8d 0c 16          	lea    rcx,[r14+rdx*1]
    3ff5:	4c 39 f1             	cmp    rcx,r14
    3ff8:	74 51                	je     404b <http_parser_execute+0x178b>
    3ffa:	41 0f b6 16          	movzx  edx,BYTE PTR [r14]
    3ffe:	80 fa 0a             	cmp    dl,0xa
    4001:	0f 84 68 0a 00 00    	je     4a6f <http_parser_execute+0x21af>
    4007:	80 fa 0d             	cmp    dl,0xd
    400a:	75 1b                	jne    4027 <http_parser_execute+0x1767>
    400c:	e9 5e 0a 00 00       	jmp    4a6f <http_parser_execute+0x21af>
    4011:	41 0f b6 16          	movzx  edx,BYTE PTR [r14]
    4015:	80 fa 0d             	cmp    dl,0xd
    4018:	0f 84 51 0a 00 00    	je     4a6f <http_parser_execute+0x21af>
    401e:	80 fa 0a             	cmp    dl,0xa
    4021:	0f 84 48 0a 00 00    	je     4a6f <http_parser_execute+0x21af>
    4027:	80 fa 09             	cmp    dl,0x9
    402a:	74 16                	je     4042 <http_parser_execute+0x1782>
    402c:	84 db                	test   bl,bl
    402e:	74 12                	je     4042 <http_parser_execute+0x1782>
    4030:	80 fa 1f             	cmp    dl,0x1f
    4033:	0f 86 f8 10 00 00    	jbe    5131 <http_parser_execute+0x2871>
    4039:	80 fa 7f             	cmp    dl,0x7f
    403c:	0f 84 ef 10 00 00    	je     5131 <http_parser_execute+0x2871>
    4042:	49 83 c6 01          	add    r14,0x1
    4046:	4c 39 f1             	cmp    rcx,r14
    4049:	75 c6                	jne    4011 <http_parser_execute+0x1751>
    404b:	4d 39 de             	cmp    r14,r11
    404e:	0f 85 6d ff ff ff    	jne    3fc1 <http_parser_execute+0x1701>
    4054:	41 0f b6 51 02       	movzx  edx,BYTE PTR [r9+0x2]
    4059:	4c 8b 75 88          	mov    r14,QWORD PTR [rbp-0x78]
    405d:	01 c0                	add    eax,eax
    405f:	4d 89 f4             	mov    r12,r14
    4062:	83 e2 01             	and    edx,0x1
    4065:	09 d0                	or     eax,edx
    4067:	41 88 41 02          	mov    BYTE PTR [r9+0x2],al
    406b:	4c 89 e0             	mov    rax,r12
    406e:	4c 29 d0             	sub    rax,r10
    4071:	41 01 c7             	add    r15d,eax
    4074:	44 3b bd 78 ff ff ff 	cmp    r15d,DWORD PTR [rbp-0x88]
    407b:	0f 87 fb 16 00 00    	ja     577c <http_parser_execute+0x2ebc>
    4081:	4d 8d 54 24 01       	lea    r10,[r12+0x1]
    4086:	e9 94 ed ff ff       	jmp    2e1f <http_parser_execute+0x55f>
    408b:	41 80 fc 50          	cmp    r12b,0x50
    408f:	0f 85 3f 1b 00 00    	jne    5bd4 <http_parser_execute+0x3314>
    4095:	49 83 c2 01          	add    r10,0x1
    4099:	bf 08 00 00 00       	mov    edi,0x8
    409e:	e9 7c ed ff ff       	jmp    2e1f <http_parser_execute+0x55f>
    40a3:	41 80 fc 54          	cmp    r12b,0x54
    40a7:	0f 84 6b 07 00 00    	je     4818 <http_parser_execute+0x1f58>
    40ad:	41 80 fc 45          	cmp    r12b,0x45
    40b1:	0f 85 78 15 00 00    	jne    562f <http_parser_execute+0x2d6f>
    40b7:	41 0f b6 41 03       	movzx  eax,BYTE PTR [r9+0x3]
    40bc:	41 80 21 fc          	and    BYTE PTR [r9],0xfc
    40c0:	49 83 c2 01          	add    r10,0x1
    40c4:	41 c6 41 16 02       	mov    BYTE PTR [r9+0x16],0x2
    40c9:	bf 13 00 00 00       	mov    edi,0x13
    40ce:	83 e0 e0             	and    eax,0xffffffe0
    40d1:	83 c8 02             	or     eax,0x2
    40d4:	41 88 41 03          	mov    BYTE PTR [r9+0x3],al
    40d8:	e9 42 ed ff ff       	jmp    2e1f <http_parser_execute+0x55f>
    40dd:	41 8d 44 24 d0       	lea    eax,[r12-0x30]
    40e2:	3c 09                	cmp    al,0x9
    40e4:	0f 86 d2 1c 00 00    	jbe    5dbc <http_parser_execute+0x34fc>
    40ea:	41 80 fc 0d          	cmp    r12b,0xd
    40ee:	0f 84 cc f9 ff ff    	je     3ac0 <http_parser_execute+0x1200>
    40f4:	41 80 fc 20          	cmp    r12b,0x20
    40f8:	0f 84 3c 09 00 00    	je     4a3a <http_parser_execute+0x217a>
    40fe:	41 80 fc 0a          	cmp    r12b,0xa
    4102:	0f 84 b8 f9 ff ff    	je     3ac0 <http_parser_execute+0x1200>
    4108:	41 0f b6 41 17       	movzx  eax,BYTE PTR [r9+0x17]
    410d:	4d 89 cd             	mov    r13,r9
    4110:	45 89 79 04          	mov    DWORD PTR [r9+0x4],r15d
    4114:	4d 89 d6             	mov    r14,r10
    4117:	bf 0e 00 00 00       	mov    edi,0xe
    411c:	83 e0 80             	and    eax,0xffffff80
    411f:	83 c8 0f             	or     eax,0xf
    4122:	41 88 41 17          	mov    BYTE PTR [r9+0x17],al
    4126:	e9 d9 ef ff ff       	jmp    3104 <http_parser_execute+0x844>
    412b:	41 80 fc 0a          	cmp    r12b,0xa
    412f:	0f 85 cd 18 00 00    	jne    5a02 <http_parser_execute+0x3142>
    4135:	48 8b 45 c8          	mov    rax,QWORD PTR [rbp-0x38]
    4139:	41 c7 41 04 00 00 00 	mov    DWORD PTR [r9+0x4],0x0
    4140:	00 
    4141:	48 83 78 48 00       	cmp    QWORD PTR [rax+0x48],0x0
    4146:	0f 84 8e 12 00 00    	je     53da <http_parser_execute+0x2b1a>
    414c:	4c 89 9d 70 ff ff ff 	mov    QWORD PTR [rbp-0x90],r11
    4153:	4c 89 95 78 ff ff ff 	mov    QWORD PTR [rbp-0x88],r10
    415a:	4c 89 cf             	mov    rdi,r9
    415d:	41 8b 01             	mov    eax,DWORD PTR [r9]
    4160:	25 ff 03 fe ff       	and    eax,0xfffe03ff
    4165:	80 cc d4             	or     ah,0xd4
    4168:	41 89 01             	mov    DWORD PTR [r9],eax
    416b:	48 8b 45 c8          	mov    rax,QWORD PTR [rbp-0x38]
    416f:	4c 89 4d b0          	mov    QWORD PTR [rbp-0x50],r9
    4173:	48 8b 40 48          	mov    rax,QWORD PTR [rax+0x48]
    4177:	e8 00 00 00 00       	call   417c <http_parser_execute+0x18bc>
    417c:	85 c0                	test   eax,eax
    417e:	4c 8b 4d b0          	mov    r9,QWORD PTR [rbp-0x50]
    4182:	4c 8b 95 78 ff ff ff 	mov    r10,QWORD PTR [rbp-0x88]
    4189:	4c 8b 9d 70 ff ff ff 	mov    r11,QWORD PTR [rbp-0x90]
    4190:	0f 85 d8 13 00 00    	jne    556e <http_parser_execute+0x2cae>
    4196:	41 0f b6 41 17       	movzx  eax,BYTE PTR [r9+0x17]
    419b:	41 8b 39             	mov    edi,DWORD PTR [r9]
    419e:	c1 ef 0a             	shr    edi,0xa
    41a1:	83 e7 7f             	and    edi,0x7f
    41a4:	a8 7f                	test   al,0x7f
    41a6:	88 45 b0             	mov    BYTE PTR [rbp-0x50],al
    41a9:	0f 85 49 03 00 00    	jne    44f8 <http_parser_execute+0x1c38>
    41af:	49 83 c2 01          	add    r10,0x1
    41b3:	45 31 ff             	xor    r15d,r15d
    41b6:	e9 64 ec ff ff       	jmp    2e1f <http_parser_execute+0x55f>
    41bb:	80 f9 20             	cmp    cl,0x20
    41be:	0f 84 fd fd ff ff    	je     3fc1 <http_parser_execute+0x1701>
    41c4:	8d 41 d0             	lea    eax,[rcx-0x30]
    41c7:	3c 09                	cmp    al,0x9
    41c9:	0f 87 fd 0e 00 00    	ja     50cc <http_parser_execute+0x280c>
    41cf:	49 8b 51 08          	mov    rdx,QWORD PTR [r9+0x8]
    41d3:	0f be c1             	movsx  eax,cl
    41d6:	83 e8 30             	sub    eax,0x30
    41d9:	48 98                	cdqe   
    41db:	48 8d 34 92          	lea    rsi,[rdx+rdx*4]
    41df:	48 8d 04 70          	lea    rax,[rax+rsi*2]
    41e3:	48 be 98 99 99 99 99 	movabs rsi,0x1999999999999998
    41ea:	99 99 19 
    41ed:	48 39 f2             	cmp    rdx,rsi
    41f0:	0f 87 d6 0e 00 00    	ja     50cc <http_parser_execute+0x280c>
    41f6:	49 89 41 08          	mov    QWORD PTR [r9+0x8],rax
    41fa:	4d 8d 66 01          	lea    r12,[r14+0x1]
    41fe:	b8 0b 00 00 00       	mov    eax,0xb
    4203:	e9 da fc ff ff       	jmp    3ee2 <http_parser_execute+0x1622>
    4208:	4d 8d 66 01          	lea    r12,[r14+0x1]
    420c:	31 c0                	xor    eax,eax
    420e:	e9 cf fc ff ff       	jmp    3ee2 <http_parser_execute+0x1622>
    4213:	41 0f b6 49 03       	movzx  ecx,BYTE PTR [r9+0x3]
    4218:	4d 8d 66 01          	lea    r12,[r14+0x1]
    421c:	8d 71 01             	lea    esi,[rcx+0x1]
    421f:	83 e1 e0             	and    ecx,0xffffffe0
    4222:	83 e6 1f             	and    esi,0x1f
    4225:	09 f1                	or     ecx,esi
    4227:	40 80 fe 07          	cmp    sil,0x7
    422b:	41 88 49 03          	mov    BYTE PTR [r9+0x3],cl
    422f:	77 0f                	ja     4240 <http_parser_execute+0x1980>
    4231:	83 e6 1f             	and    esi,0x1f
    4234:	38 96 00 00 00 00    	cmp    BYTE PTR [rsi+0x0],dl
    423a:	0f 84 e2 0e 00 00    	je     5122 <http_parser_execute+0x2862>
    4240:	b8 16 00 00 00       	mov    eax,0x16
    4245:	e9 98 fc ff ff       	jmp    3ee2 <http_parser_execute+0x1622>
    424a:	80 fa 63             	cmp    dl,0x63
    424d:	4d 8d 66 01          	lea    r12,[r14+0x1]
    4251:	0f 84 e3 0a 00 00    	je     4d3a <http_parser_execute+0x247a>
    4257:	80 fa 20             	cmp    dl,0x20
    425a:	0f 84 82 fc ff ff    	je     3ee2 <http_parser_execute+0x1622>
    4260:	0f b6 d2             	movzx  edx,dl
    4263:	80 ba 00 00 00 00 01 	cmp    BYTE PTR [rdx+0x0],0x1
    426a:	19 c0                	sbb    eax,eax
    426c:	f7 d0                	not    eax
    426e:	83 e0 11             	and    eax,0x11
    4271:	e9 6c fc ff ff       	jmp    3ee2 <http_parser_execute+0x1622>
    4276:	80 f9 2c             	cmp    cl,0x2c
    4279:	4d 8d 66 01          	lea    r12,[r14+0x1]
    427d:	0f 85 5f fc ff ff    	jne    3ee2 <http_parser_execute+0x1622>
    4283:	41 80 61 03 e0       	and    BYTE PTR [r9+0x3],0xe0
    4288:	b8 0f 00 00 00       	mov    eax,0xf
    428d:	e9 50 fc ff ff       	jmp    3ee2 <http_parser_execute+0x1622>
    4292:	41 0f b6 49 03       	movzx  ecx,BYTE PTR [r9+0x3]
    4297:	4d 8d 66 01          	lea    r12,[r14+0x1]
    429b:	8d 71 01             	lea    esi,[rcx+0x1]
    429e:	83 e1 e0             	and    ecx,0xffffffe0
    42a1:	83 e6 1f             	and    esi,0x1f
    42a4:	09 f1                	or     ecx,esi
    42a6:	40 80 fe 05          	cmp    sil,0x5
    42aa:	41 88 49 03          	mov    BYTE PTR [r9+0x3],cl
    42ae:	77 90                	ja     4240 <http_parser_execute+0x1980>
    42b0:	83 e6 1f             	and    esi,0x1f
    42b3:	38 96 00 00 00 00    	cmp    BYTE PTR [rsi+0x0],dl
    42b9:	75 85                	jne    4240 <http_parser_execute+0x1980>
    42bb:	83 e1 1f             	and    ecx,0x1f
    42be:	be 19 00 00 00       	mov    esi,0x19
    42c3:	80 f9 04             	cmp    cl,0x4
    42c6:	0f 44 c6             	cmove  eax,esi
    42c9:	e9 14 fc ff ff       	jmp    3ee2 <http_parser_execute+0x1622>
    42ce:	41 0f b6 49 03       	movzx  ecx,BYTE PTR [r9+0x3]
    42d3:	4d 8d 66 01          	lea    r12,[r14+0x1]
    42d7:	8d 71 01             	lea    esi,[rcx+0x1]
    42da:	83 e1 e0             	and    ecx,0xffffffe0
    42dd:	83 e6 1f             	and    esi,0x1f
    42e0:	09 f1                	or     ecx,esi
    42e2:	40 80 fe 0a          	cmp    sil,0xa
    42e6:	41 88 49 03          	mov    BYTE PTR [r9+0x3],cl
    42ea:	0f 87 50 ff ff ff    	ja     4240 <http_parser_execute+0x1980>
    42f0:	83 e6 1f             	and    esi,0x1f
    42f3:	38 96 00 00 00 00    	cmp    BYTE PTR [rsi+0x0],dl
    42f9:	0f 85 41 ff ff ff    	jne    4240 <http_parser_execute+0x1980>
    42ff:	83 e1 1f             	and    ecx,0x1f
    4302:	be 18 00 00 00       	mov    esi,0x18
    4307:	80 f9 09             	cmp    cl,0x9
    430a:	0f 44 c6             	cmove  eax,esi
    430d:	e9 d0 fb ff ff       	jmp    3ee2 <http_parser_execute+0x1622>
    4312:	80 f9 20             	cmp    cl,0x20
    4315:	0f 84 a6 fc ff ff    	je     3fc1 <http_parser_execute+0x1701>
    431b:	41 0f b6 41 17       	movzx  eax,BYTE PTR [r9+0x17]
    4320:	4d 89 cd             	mov    r13,r9
    4323:	45 89 79 04          	mov    DWORD PTR [r9+0x4],r15d
    4327:	bf 32 00 00 00       	mov    edi,0x32
    432c:	83 e0 80             	and    eax,0xffffff80
    432f:	83 c8 19             	or     eax,0x19
    4332:	41 88 41 17          	mov    BYTE PTR [r9+0x17],al
    4336:	41 0f b6 41 02       	movzx  eax,BYTE PTR [r9+0x2]
    433b:	83 e0 01             	and    eax,0x1
    433e:	83 c8 18             	or     eax,0x18
    4341:	41 88 41 02          	mov    BYTE PTR [r9+0x2],al
    4345:	e9 ba ed ff ff       	jmp    3104 <http_parser_execute+0x844>
    434a:	80 f9 2c             	cmp    cl,0x2c
    434d:	4d 8d 66 01          	lea    r12,[r14+0x1]
    4351:	0f 85 8b fb ff ff    	jne    3ee2 <http_parser_execute+0x1622>
    4357:	41 80 61 03 e0       	and    BYTE PTR [r9+0x3],0xe0
    435c:	b8 12 00 00 00       	mov    eax,0x12
    4361:	e9 7c fb ff ff       	jmp    3ee2 <http_parser_execute+0x1622>
    4366:	80 f9 20             	cmp    cl,0x20
    4369:	be 11 00 00 00       	mov    esi,0x11
    436e:	4d 8d 66 01          	lea    r12,[r14+0x1]
    4372:	0f 45 c6             	cmovne eax,esi
    4375:	e9 68 fb ff ff       	jmp    3ee2 <http_parser_execute+0x1622>
    437a:	80 f9 20             	cmp    cl,0x20
    437d:	0f 85 41 fe ff ff    	jne    41c4 <http_parser_execute+0x1904>
    4383:	4d 8d 66 01          	lea    r12,[r14+0x1]
    4387:	b8 0c 00 00 00       	mov    eax,0xc
    438c:	e9 51 fb ff ff       	jmp    3ee2 <http_parser_execute+0x1622>
    4391:	41 0f b6 51 03       	movzx  edx,BYTE PTR [r9+0x3]
    4396:	44 8d 72 01          	lea    r14d,[rdx+0x1]
    439a:	83 e2 e0             	and    edx,0xffffffe0
    439d:	41 83 e6 1f          	and    r14d,0x1f
    43a1:	44 09 f2             	or     edx,r14d
    43a4:	80 f9 6e             	cmp    cl,0x6e
    43a7:	41 88 51 03          	mov    BYTE PTR [r9+0x3],dl
    43ab:	0f 94 c2             	sete   dl
    43ae:	41 83 e0 01          	and    r8d,0x1
    43b2:	8d 14 52             	lea    edx,[rdx+rdx*2]
    43b5:	01 d2                	add    edx,edx
    43b7:	44 09 c2             	or     edx,r8d
    43ba:	41 88 51 02          	mov    BYTE PTR [r9+0x2],dl
    43be:	e9 16 f6 ff ff       	jmp    39d9 <http_parser_execute+0x1119>
    43c3:	41 0f b6 51 03       	movzx  edx,BYTE PTR [r9+0x3]
    43c8:	44 8d 72 01          	lea    r14d,[rdx+0x1]
    43cc:	83 e2 e0             	and    edx,0xffffffe0
    43cf:	41 83 e6 1f          	and    r14d,0x1f
    43d3:	44 09 f2             	or     edx,r14d
    43d6:	41 80 fe 10          	cmp    r14b,0x10
    43da:	41 88 51 03          	mov    BYTE PTR [r9+0x3],dl
    43de:	0f 87 88 f6 ff ff    	ja     3a6c <http_parser_execute+0x11ac>
    43e4:	41 83 e6 1f          	and    r14d,0x1f
    43e8:	41 38 8e 00 00 00 00 	cmp    BYTE PTR [r14+0x0],cl
    43ef:	0f 85 77 f6 ff ff    	jne    3a6c <http_parser_execute+0x11ac>
    43f5:	83 e2 1f             	and    edx,0x1f
    43f8:	80 fa 0f             	cmp    dl,0xf
    43fb:	0f 85 d8 f5 ff ff    	jne    39d9 <http_parser_execute+0x1119>
    4401:	44 89 c2             	mov    edx,r8d
    4404:	83 e2 01             	and    edx,0x1
    4407:	83 ca 12             	or     edx,0x12
    440a:	41 88 51 02          	mov    BYTE PTR [r9+0x2],dl
    440e:	e9 c6 f5 ff ff       	jmp    39d9 <http_parser_execute+0x1119>
    4413:	41 0f b6 51 03       	movzx  edx,BYTE PTR [r9+0x3]
    4418:	44 8d 72 01          	lea    r14d,[rdx+0x1]
    441c:	83 e2 e0             	and    edx,0xffffffe0
    441f:	41 83 e6 1f          	and    r14d,0x1f
    4423:	44 09 f2             	or     edx,r14d
    4426:	41 80 fe 0a          	cmp    r14b,0xa
    442a:	41 88 51 03          	mov    BYTE PTR [r9+0x3],dl
    442e:	0f 87 38 f6 ff ff    	ja     3a6c <http_parser_execute+0x11ac>
    4434:	41 83 e6 1f          	and    r14d,0x1f
    4438:	41 38 8e 00 00 00 00 	cmp    BYTE PTR [r14+0x0],cl
    443f:	0f 85 27 f6 ff ff    	jne    3a6c <http_parser_execute+0x11ac>
    4445:	83 e2 1f             	and    edx,0x1f
    4448:	80 fa 09             	cmp    dl,0x9
    444b:	0f 85 88 f5 ff ff    	jne    39d9 <http_parser_execute+0x1119>
    4451:	eb ae                	jmp    4401 <http_parser_execute+0x1b41>
    4453:	41 0f b6 51 03       	movzx  edx,BYTE PTR [r9+0x3]
    4458:	44 8d 72 01          	lea    r14d,[rdx+0x1]
    445c:	83 e2 e0             	and    edx,0xffffffe0
    445f:	41 83 e6 1f          	and    r14d,0x1f
    4463:	44 09 f2             	or     edx,r14d
    4466:	41 80 fe 0e          	cmp    r14b,0xe
    446a:	41 88 51 03          	mov    BYTE PTR [r9+0x3],dl
    446e:	0f 87 f8 f5 ff ff    	ja     3a6c <http_parser_execute+0x11ac>
    4474:	41 83 e6 1f          	and    r14d,0x1f
    4478:	41 38 8e 00 00 00 00 	cmp    BYTE PTR [r14+0x0],cl
    447f:	0f 85 e7 f5 ff ff    	jne    3a6c <http_parser_execute+0x11ac>
    4485:	83 e2 1f             	and    edx,0x1f
    4488:	80 fa 0d             	cmp    dl,0xd
    448b:	0f 85 48 f5 ff ff    	jne    39d9 <http_parser_execute+0x1119>
    4491:	44 89 c2             	mov    edx,r8d
    4494:	83 e2 01             	and    edx,0x1
    4497:	83 ca 14             	or     edx,0x14
    449a:	41 88 51 02          	mov    BYTE PTR [r9+0x2],dl
    449e:	e9 36 f5 ff ff       	jmp    39d9 <http_parser_execute+0x1119>
    44a3:	41 0f b6 51 03       	movzx  edx,BYTE PTR [r9+0x3]
    44a8:	44 8d 72 01          	lea    r14d,[rdx+0x1]
    44ac:	83 e2 e0             	and    edx,0xffffffe0
    44af:	41 83 e6 1f          	and    r14d,0x1f
    44b3:	44 09 f2             	or     edx,r14d
    44b6:	41 80 fe 11          	cmp    r14b,0x11
    44ba:	41 88 51 03          	mov    BYTE PTR [r9+0x3],dl
    44be:	0f 87 a8 f5 ff ff    	ja     3a6c <http_parser_execute+0x11ac>
    44c4:	41 83 e6 1f          	and    r14d,0x1f
    44c8:	41 38 8e 00 00 00 00 	cmp    BYTE PTR [r14+0x0],cl
    44cf:	0f 85 97 f5 ff ff    	jne    3a6c <http_parser_execute+0x11ac>
    44d5:	83 e2 1f             	and    edx,0x1f
    44d8:	80 fa 10             	cmp    dl,0x10
    44db:	0f 85 f8 f4 ff ff    	jne    39d9 <http_parser_execute+0x1119>
    44e1:	44 89 c2             	mov    edx,r8d
    44e4:	41 80 49 03 20       	or     BYTE PTR [r9+0x3],0x20
    44e9:	83 e2 01             	and    edx,0x1
    44ec:	83 ca 1a             	or     edx,0x1a
    44ef:	41 88 51 02          	mov    BYTE PTR [r9+0x2],dl
    44f3:	e9 e1 f4 ff ff       	jmp    39d9 <http_parser_execute+0x1119>
    44f8:	4d 89 d3             	mov    r11,r10
    44fb:	4c 2b 5d d0          	sub    r11,QWORD PTR [rbp-0x30]
    44ff:	49 8d 43 01          	lea    rax,[r11+0x1]
    4503:	e9 c1 e4 ff ff       	jmp    29c9 <http_parser_execute+0x109>
    4508:	48 8b 8d 70 ff ff ff 	mov    rcx,QWORD PTR [rbp-0x90]
    450f:	4c 89 da             	mov    rdx,r11
    4512:	4c 29 d2             	sub    rdx,r10
    4515:	48 39 ca             	cmp    rdx,rcx
    4518:	48 0f 47 d1          	cmova  rdx,rcx
    451c:	49 8d 0c 12          	lea    rcx,[r10+rdx*1]
    4520:	eb 1d                	jmp    453f <http_parser_execute+0x1c7f>
    4522:	0f b6 10             	movzx  edx,BYTE PTR [rax]
    4525:	80 fa 20             	cmp    dl,0x20
    4528:	0f 84 ab f4 ff ff    	je     39d9 <http_parser_execute+0x1119>
    452e:	80 3c 16 00          	cmp    BYTE PTR [rsi+rdx*1],0x0
    4532:	0f 84 a1 f4 ff ff    	je     39d9 <http_parser_execute+0x1119>
    4538:	49 89 c2             	mov    r10,rax
    453b:	48 83 c0 01          	add    rax,0x1
    453f:	48 39 c8             	cmp    rax,rcx
    4542:	48 89 c3             	mov    rbx,rax
    4545:	72 db                	jb     4522 <http_parser_execute+0x1c62>
    4547:	e9 8d f4 ff ff       	jmp    39d9 <http_parser_execute+0x1119>
    454c:	49 83 c2 01          	add    r10,0x1
    4550:	e9 ca e8 ff ff       	jmp    2e1f <http_parser_execute+0x55f>
    4555:	49 83 c2 01          	add    r10,0x1
    4559:	e9 c1 e8 ff ff       	jmp    2e1f <http_parser_execute+0x55f>
    455e:	89 c2                	mov    edx,eax
    4560:	83 e2 fe             	and    edx,0xfffffffe
    4563:	80 fa 16             	cmp    dl,0x16
    4566:	0f 85 fc f5 ff ff    	jne    3b68 <http_parser_execute+0x12a8>
    456c:	83 e0 01             	and    eax,0x1
    456f:	83 c8 18             	or     eax,0x18
    4572:	48 83 7d a8 00       	cmp    QWORD PTR [rbp-0x58],0x0
    4577:	41 88 41 02          	mov    BYTE PTR [r9+0x2],al
    457b:	0f 84 9f 11 00 00    	je     5720 <http_parser_execute+0x2e60>
    4581:	41 80 61 03 e0       	and    BYTE PTR [r9+0x3],0xe0
    4586:	49 83 c2 01          	add    r10,0x1
    458a:	bf 32 00 00 00       	mov    edi,0x32
    458f:	e9 8b e8 ff ff       	jmp    2e1f <http_parser_execute+0x55f>
    4594:	66 41 0f be c4       	movsx  ax,r12b
    4599:	49 83 c2 01          	add    r10,0x1
    459d:	bf 0e 00 00 00       	mov    edi,0xe
    45a2:	83 e8 30             	sub    eax,0x30
    45a5:	66 41 89 41 14       	mov    WORD PTR [r9+0x14],ax
    45aa:	e9 70 e8 ff ff       	jmp    2e1f <http_parser_execute+0x55f>
    45af:	41 f6 41 03 20       	test   BYTE PTR [r9+0x3],0x20
    45b4:	74 08                	je     45be <http_parser_execute+0x1cfe>
    45b6:	84 c0                	test   al,al
    45b8:	0f 88 73 0f 00 00    	js     5531 <http_parser_execute+0x2c71>
    45be:	83 e2 28             	and    edx,0x28
    45c1:	80 fa 28             	cmp    dl,0x28
    45c4:	0f 84 6a 0a 00 00    	je     5034 <http_parser_execute+0x2774>
    45ca:	41 80 79 16 05       	cmp    BYTE PTR [r9+0x16],0x5
    45cf:	0f 94 c0             	sete   al
    45d2:	c1 e0 07             	shl    eax,0x7
    45d5:	89 c2                	mov    edx,eax
    45d7:	41 0f b6 41 17       	movzx  eax,BYTE PTR [r9+0x17]
    45dc:	83 e0 7f             	and    eax,0x7f
    45df:	09 d0                	or     eax,edx
    45e1:	41 88 41 17          	mov    BYTE PTR [r9+0x17],al
    45e5:	48 8b 45 c8          	mov    rax,QWORD PTR [rbp-0x38]
    45e9:	48 8b 40 28          	mov    rax,QWORD PTR [rax+0x28]
    45ed:	48 85 c0             	test   rax,rax
    45f0:	0f 84 00 01 00 00    	je     46f6 <http_parser_execute+0x1e36>
    45f6:	4c 89 9d 70 ff ff ff 	mov    QWORD PTR [rbp-0x90],r11
    45fd:	4c 89 95 78 ff ff ff 	mov    QWORD PTR [rbp-0x88],r10
    4604:	4c 89 cf             	mov    rdi,r9
    4607:	4c 89 4d b0          	mov    QWORD PTR [rbp-0x50],r9
    460b:	e8 00 00 00 00       	call   4610 <http_parser_execute+0x1d50>
    4610:	83 f8 01             	cmp    eax,0x1
    4613:	4c 8b 4d b0          	mov    r9,QWORD PTR [rbp-0x50]
    4617:	4c 8b 95 78 ff ff ff 	mov    r10,QWORD PTR [rbp-0x88]
    461e:	4c 8b 9d 70 ff ff ff 	mov    r11,QWORD PTR [rbp-0x90]
    4625:	0f 84 c5 00 00 00    	je     46f0 <http_parser_execute+0x1e30>
    462b:	83 f8 02             	cmp    eax,0x2
    462e:	0f 84 b7 00 00 00    	je     46eb <http_parser_execute+0x1e2b>
    4634:	85 c0                	test   eax,eax
    4636:	0f 84 ba 00 00 00    	je     46f6 <http_parser_execute+0x1e36>
    463c:	41 0f b6 41 17       	movzx  eax,BYTE PTR [r9+0x17]
    4641:	4d 89 d3             	mov    r11,r10
    4644:	4d 89 cd             	mov    r13,r9
    4647:	45 89 79 04          	mov    DWORD PTR [r9+0x4],r15d
    464b:	83 e0 80             	and    eax,0xffffff80
    464e:	83 c8 05             	or     eax,0x5
    4651:	41 88 45 17          	mov    BYTE PTR [r13+0x17],al
    4655:	41 8b 45 00          	mov    eax,DWORD PTR [r13+0x0]
    4659:	25 ff 03 fe ff       	and    eax,0xfffe03ff
    465e:	80 cc e8             	or     ah,0xe8
    4661:	41 89 45 00          	mov    DWORD PTR [r13+0x0],eax
    4665:	4c 89 d8             	mov    rax,r11
    4668:	48 2b 45 d0          	sub    rax,QWORD PTR [rbp-0x30]
    466c:	e9 58 e3 ff ff       	jmp    29c9 <http_parser_execute+0x109>
    4671:	41 0f b6 41 02       	movzx  eax,BYTE PTR [r9+0x2]
    4676:	d0 e8                	shr    al,1
    4678:	e9 ed f4 ff ff       	jmp    3b6a <http_parser_execute+0x12aa>
    467d:	84 c9                	test   cl,cl
    467f:	0f 84 85 05 00 00    	je     4c0a <http_parser_execute+0x234a>
    4685:	49 83 c2 01          	add    r10,0x1
    4689:	45 31 ff             	xor    r15d,r15d
    468c:	bf 35 00 00 00       	mov    edi,0x35
    4691:	e9 89 e7 ff ff       	jmp    2e1f <http_parser_execute+0x55f>
    4696:	83 ff 10             	cmp    edi,0x10
    4699:	0f 84 45 f4 ff ff    	je     3ae4 <http_parser_execute+0x1224>
    469f:	41 0f b6 41 17       	movzx  eax,BYTE PTR [r9+0x17]
    46a4:	4d 89 cd             	mov    r13,r9
    46a7:	45 89 79 04          	mov    DWORD PTR [r9+0x4],r15d
    46ab:	83 e7 7f             	and    edi,0x7f
    46ae:	4d 89 d6             	mov    r14,r10
    46b1:	83 e0 80             	and    eax,0xffffff80
    46b4:	83 c8 1d             	or     eax,0x1d
    46b7:	41 88 41 17          	mov    BYTE PTR [r9+0x17],al
    46bb:	e9 44 ea ff ff       	jmp    3104 <http_parser_execute+0x844>
    46c0:	83 ea 0d             	sub    edx,0xd
    46c3:	80 fa 01             	cmp    dl,0x1
    46c6:	0f 86 a0 f3 ff ff    	jbe    3a6c <http_parser_execute+0x11ac>
    46cc:	e9 08 f3 ff ff       	jmp    39d9 <http_parser_execute+0x1119>
    46d1:	3c 19                	cmp    al,0x19
    46d3:	0f 84 90 09 00 00    	je     5069 <http_parser_execute+0x27a9>
    46d9:	3c 1a                	cmp    al,0x1a
    46db:	0f 85 5e ef ff ff    	jne    363f <http_parser_execute+0xd7f>
    46e1:	66 41 83 09 20       	or     WORD PTR [r9],0x20
    46e6:	e9 54 ef ff ff       	jmp    363f <http_parser_execute+0xd7f>
    46eb:	41 80 49 17 80       	or     BYTE PTR [r9+0x17],0x80
    46f0:	66 41 81 09 00 01    	or     WORD PTR [r9],0x100
    46f6:	41 0f b6 41 17       	movzx  eax,BYTE PTR [r9+0x17]
    46fb:	a8 7f                	test   al,0x7f
    46fd:	88 45 b0             	mov    BYTE PTR [rbp-0x50],al
    4700:	0f 84 4a f0 ff ff    	je     3750 <http_parser_execute+0xe90>
    4706:	4d 89 d3             	mov    r11,r10
    4709:	4d 89 cd             	mov    r13,r9
    470c:	45 89 79 04          	mov    DWORD PTR [r9+0x4],r15d
    4710:	e9 40 ff ff ff       	jmp    4655 <http_parser_execute+0x1d95>
    4715:	4d 89 da             	mov    r10,r11
    4718:	4d 8d 72 ff          	lea    r14,[r10-0x1]
    471c:	4c 89 f0             	mov    rax,r14
    471f:	48 2b 85 78 ff ff ff 	sub    rax,QWORD PTR [rbp-0x88]
    4726:	41 01 c7             	add    r15d,eax
    4729:	45 39 e7             	cmp    r15d,r12d
    472c:	0f 86 ed e6 ff ff    	jbe    2e1f <http_parser_execute+0x55f>
    4732:	4d 89 cd             	mov    r13,r9
    4735:	41 0f b6 45 17       	movzx  eax,BYTE PTR [r13+0x17]
    473a:	45 89 7d 04          	mov    DWORD PTR [r13+0x4],r15d
    473e:	bf 2d 00 00 00       	mov    edi,0x2d
    4743:	83 e0 80             	and    eax,0xffffff80
    4746:	83 c8 0c             	or     eax,0xc
    4749:	41 88 45 17          	mov    BYTE PTR [r13+0x17],al
    474d:	e9 b2 e9 ff ff       	jmp    3104 <http_parser_execute+0x844>
    4752:	41 80 79 16 05       	cmp    BYTE PTR [r9+0x16],0x5
    4757:	74 0c                	je     4765 <http_parser_execute+0x1ea5>
    4759:	a8 40                	test   al,0x40
    475b:	75 08                	jne    4765 <http_parser_execute+0x1ea5>
    475d:	85 d2                	test   edx,edx
    475f:	0f 85 18 ff ff ff    	jne    467d <http_parser_execute+0x1dbd>
    4765:	4c 89 cf             	mov    rdi,r9
    4768:	4c 89 55 c0          	mov    QWORD PTR [rbp-0x40],r10
    476c:	4d 89 cd             	mov    r13,r9
    476f:	e8 00 00 00 00       	call   4774 <http_parser_execute+0x1eb4>
    4774:	85 c0                	test   eax,eax
    4776:	ba 01 00 00 00       	mov    edx,0x1
    477b:	4c 8b 5d c0          	mov    r11,QWORD PTR [rbp-0x40]
    477f:	74 12                	je     4793 <http_parser_execute+0x1ed3>
    4781:	41 0f b6 45 00       	movzx  eax,BYTE PTR [r13+0x0]
    4786:	83 e0 03             	and    eax,0x3
    4789:	3c 01                	cmp    al,0x1
    478b:	19 d2                	sbb    edx,edx
    478d:	83 e2 0e             	and    edx,0xe
    4790:	83 c2 04             	add    edx,0x4
    4793:	48 8b 75 c8          	mov    rsi,QWORD PTR [rbp-0x38]
    4797:	89 d0                	mov    eax,edx
    4799:	83 e0 7f             	and    eax,0x7f
    479c:	48 83 7e 38 00       	cmp    QWORD PTR [rsi+0x38],0x0
    47a1:	74 48                	je     47eb <http_parser_execute+0x1f2b>
    47a3:	83 e0 7f             	and    eax,0x7f
    47a6:	4c 89 5d c8          	mov    QWORD PTR [rbp-0x38],r11
    47aa:	4c 89 ef             	mov    rdi,r13
    47ad:	c1 e0 0a             	shl    eax,0xa
    47b0:	89 c2                	mov    edx,eax
    47b2:	41 8b 45 00          	mov    eax,DWORD PTR [r13+0x0]
    47b6:	25 ff 03 fe ff       	and    eax,0xfffe03ff
    47bb:	09 d0                	or     eax,edx
    47bd:	41 89 45 00          	mov    DWORD PTR [r13+0x0],eax
    47c1:	48 8b 46 38          	mov    rax,QWORD PTR [rsi+0x38]
    47c5:	e8 00 00 00 00       	call   47ca <http_parser_execute+0x1f0a>
    47ca:	85 c0                	test   eax,eax
    47cc:	4c 8b 5d c8          	mov    r11,QWORD PTR [rbp-0x38]
    47d0:	0f 85 de 19 00 00    	jne    61b4 <http_parser_execute+0x38f4>
    47d6:	41 8b 55 00          	mov    edx,DWORD PTR [r13+0x0]
    47da:	c1 ea 0a             	shr    edx,0xa
    47dd:	83 e2 7f             	and    edx,0x7f
    47e0:	41 f6 45 17 7f       	test   BYTE PTR [r13+0x17],0x7f
    47e5:	0f 85 10 fd ff ff    	jne    44fb <http_parser_execute+0x1c3b>
    47eb:	89 d0                	mov    eax,edx
    47ed:	41 8b 55 00          	mov    edx,DWORD PTR [r13+0x0]
    47f1:	41 c7 45 04 00 00 00 	mov    DWORD PTR [r13+0x4],0x0
    47f8:	00 
    47f9:	83 e0 7f             	and    eax,0x7f
    47fc:	c1 e0 0a             	shl    eax,0xa
    47ff:	81 e2 ff 03 fe ff    	and    edx,0xfffe03ff
    4805:	09 d0                	or     eax,edx
    4807:	41 89 45 00          	mov    DWORD PTR [r13+0x0],eax
    480b:	4c 2b 5d d0          	sub    r11,QWORD PTR [rbp-0x30]
    480f:	49 8d 43 01          	lea    rax,[r11+0x1]
    4813:	e9 b1 e1 ff ff       	jmp    29c9 <http_parser_execute+0x109>
    4818:	41 0f b6 01          	movzx  eax,BYTE PTR [r9]
    481c:	49 83 c2 01          	add    r10,0x1
    4820:	bf 06 00 00 00       	mov    edi,0x6
    4825:	83 e0 fc             	and    eax,0xfffffffc
    4828:	83 c8 01             	or     eax,0x1
    482b:	41 88 01             	mov    BYTE PTR [r9],al
    482e:	e9 ec e5 ff ff       	jmp    2e1f <http_parser_execute+0x55f>
    4833:	48 83 7d a0 00       	cmp    QWORD PTR [rbp-0x60],0x0
    4838:	0f 84 42 0c 00 00    	je     5480 <http_parser_execute+0x2bc0>
    483e:	48 8b 45 c8          	mov    rax,QWORD PTR [rbp-0x38]
    4842:	48 83 78 10 00       	cmp    QWORD PTR [rax+0x10],0x0
    4847:	0f 84 f6 11 00 00    	je     5a43 <http_parser_execute+0x3183>
    484d:	4c 89 9d 70 ff ff ff 	mov    QWORD PTR [rbp-0x90],r11
    4854:	41 8b 01             	mov    eax,DWORD PTR [r9]
    4857:	4c 89 d2             	mov    rdx,r10
    485a:	4c 89 cf             	mov    rdi,r9
    485d:	25 ff 03 fe ff       	and    eax,0xfffe03ff
    4862:	80 cc 44             	or     ah,0x44
    4865:	41 89 01             	mov    DWORD PTR [r9],eax
    4868:	48 8b 75 a0          	mov    rsi,QWORD PTR [rbp-0x60]
    486c:	48 8b 45 c8          	mov    rax,QWORD PTR [rbp-0x38]
    4870:	4c 89 95 78 ff ff ff 	mov    QWORD PTR [rbp-0x88],r10
    4877:	4c 89 4d b0          	mov    QWORD PTR [rbp-0x50],r9
    487b:	48 29 f2             	sub    rdx,rsi
    487e:	48 8b 40 10          	mov    rax,QWORD PTR [rax+0x10]
    4882:	e8 00 00 00 00       	call   4887 <http_parser_execute+0x1fc7>
    4887:	85 c0                	test   eax,eax
    4889:	4c 8b 4d b0          	mov    r9,QWORD PTR [rbp-0x50]
    488d:	4c 8b 95 78 ff ff ff 	mov    r10,QWORD PTR [rbp-0x88]
    4894:	4c 8b 9d 70 ff ff ff 	mov    r11,QWORD PTR [rbp-0x90]
    489b:	0f 85 d6 14 00 00    	jne    5d77 <http_parser_execute+0x34b7>
    48a1:	41 0f b6 41 17       	movzx  eax,BYTE PTR [r9+0x17]
    48a6:	41 8b 39             	mov    edi,DWORD PTR [r9]
    48a9:	c1 ef 0a             	shr    edi,0xa
    48ac:	83 e7 7f             	and    edi,0x7f
    48af:	a8 7f                	test   al,0x7f
    48b1:	88 45 b0             	mov    BYTE PTR [rbp-0x50],al
    48b4:	0f 85 3e fc ff ff    	jne    44f8 <http_parser_execute+0x1c38>
    48ba:	49 83 c2 01          	add    r10,0x1
    48be:	48 c7 45 a0 00 00 00 	mov    QWORD PTR [rbp-0x60],0x0
    48c5:	00 
    48c6:	e9 54 e5 ff ff       	jmp    2e1f <http_parser_execute+0x55f>
    48cb:	49 83 c2 01          	add    r10,0x1
    48cf:	bf 38 00 00 00       	mov    edi,0x38
    48d4:	e9 46 e5 ff ff       	jmp    2e1f <http_parser_execute+0x55f>
    48d9:	49 83 c2 01          	add    r10,0x1
    48dd:	e9 3d e5 ff ff       	jmp    2e1f <http_parser_execute+0x55f>
    48e2:	49 83 c2 01          	add    r10,0x1
    48e6:	bf 2b 00 00 00       	mov    edi,0x2b
    48eb:	e9 2f e5 ff ff       	jmp    2e1f <http_parser_execute+0x55f>
    48f0:	48 83 7d 98 00       	cmp    QWORD PTR [rbp-0x68],0x0
    48f5:	0f 84 45 0a 00 00    	je     5340 <http_parser_execute+0x2a80>
    48fb:	48 8b 45 c8          	mov    rax,QWORD PTR [rbp-0x38]
    48ff:	48 83 78 08 00       	cmp    QWORD PTR [rax+0x8],0x0
    4904:	0f 84 4d 14 00 00    	je     5d57 <http_parser_execute+0x3497>
    490a:	4c 89 9d 70 ff ff ff 	mov    QWORD PTR [rbp-0x90],r11
    4911:	41 8b 01             	mov    eax,DWORD PTR [r9]
    4914:	4c 89 d2             	mov    rdx,r10
    4917:	4c 89 cf             	mov    rdi,r9
    491a:	25 ff 03 fe ff       	and    eax,0xfffe03ff
    491f:	80 cc 80             	or     ah,0x80
    4922:	41 89 01             	mov    DWORD PTR [r9],eax
    4925:	48 8b 75 98          	mov    rsi,QWORD PTR [rbp-0x68]
    4929:	48 8b 45 c8          	mov    rax,QWORD PTR [rbp-0x38]
    492d:	4c 89 95 78 ff ff ff 	mov    QWORD PTR [rbp-0x88],r10
    4934:	4c 89 4d b0          	mov    QWORD PTR [rbp-0x50],r9
    4938:	48 29 f2             	sub    rdx,rsi
    493b:	48 8b 40 08          	mov    rax,QWORD PTR [rax+0x8]
    493f:	e8 00 00 00 00       	call   4944 <http_parser_execute+0x2084>
    4944:	85 c0                	test   eax,eax
    4946:	4c 8b 4d b0          	mov    r9,QWORD PTR [rbp-0x50]
    494a:	4c 8b 95 78 ff ff ff 	mov    r10,QWORD PTR [rbp-0x88]
    4951:	4c 8b 9d 70 ff ff ff 	mov    r11,QWORD PTR [rbp-0x90]
    4958:	0f 85 fe 12 00 00    	jne    5c5c <http_parser_execute+0x339c>
    495e:	41 0f b6 41 17       	movzx  eax,BYTE PTR [r9+0x17]
    4963:	41 8b 39             	mov    edi,DWORD PTR [r9]
    4966:	c1 ef 0a             	shr    edi,0xa
    4969:	83 e7 7f             	and    edi,0x7f
    496c:	a8 7f                	test   al,0x7f
    496e:	88 45 b0             	mov    BYTE PTR [rbp-0x50],al
    4971:	0f 85 81 fb ff ff    	jne    44f8 <http_parser_execute+0x1c38>
    4977:	49 83 c2 01          	add    r10,0x1
    497b:	48 c7 45 98 00 00 00 	mov    QWORD PTR [rbp-0x68],0x0
    4982:	00 
    4983:	e9 97 e4 ff ff       	jmp    2e1f <http_parser_execute+0x55f>
    4988:	31 ff                	xor    edi,edi
    498a:	41 80 fc 0d          	cmp    r12b,0xd
    498e:	41 c7 41 10 00 00 09 	mov    DWORD PTR [r9+0x10],0x90000
    4995:	00 
    4996:	40 0f 95 c7          	setne  dil
    499a:	83 c7 2b             	add    edi,0x2b
    499d:	48 83 7d 98 00       	cmp    QWORD PTR [rbp-0x68],0x0
    49a2:	0f 84 cf 0a 00 00    	je     5477 <http_parser_execute+0x2bb7>
    49a8:	48 8b 45 c8          	mov    rax,QWORD PTR [rbp-0x38]
    49ac:	48 83 78 08 00       	cmp    QWORD PTR [rax+0x8],0x0
    49b1:	0f 84 40 12 00 00    	je     5bf7 <http_parser_execute+0x3337>
    49b7:	4c 89 9d 70 ff ff ff 	mov    QWORD PTR [rbp-0x90],r11
    49be:	41 8b 01             	mov    eax,DWORD PTR [r9]
    49c1:	83 e7 7f             	and    edi,0x7f
    49c4:	c1 e7 0a             	shl    edi,0xa
    49c7:	4c 89 d2             	mov    rdx,r10
    49ca:	25 ff 03 fe ff       	and    eax,0xfffe03ff
    49cf:	09 f8                	or     eax,edi
    49d1:	4c 89 cf             	mov    rdi,r9
    49d4:	41 89 01             	mov    DWORD PTR [r9],eax
    49d7:	48 8b 75 98          	mov    rsi,QWORD PTR [rbp-0x68]
    49db:	48 8b 45 c8          	mov    rax,QWORD PTR [rbp-0x38]
    49df:	4c 89 95 78 ff ff ff 	mov    QWORD PTR [rbp-0x88],r10
    49e6:	4c 89 4d b0          	mov    QWORD PTR [rbp-0x50],r9
    49ea:	48 29 f2             	sub    rdx,rsi
    49ed:	48 8b 40 08          	mov    rax,QWORD PTR [rax+0x8]
    49f1:	e8 00 00 00 00       	call   49f6 <http_parser_execute+0x2136>
    49f6:	85 c0                	test   eax,eax
    49f8:	4c 8b 4d b0          	mov    r9,QWORD PTR [rbp-0x50]
    49fc:	4c 8b 95 78 ff ff ff 	mov    r10,QWORD PTR [rbp-0x88]
    4a03:	4c 8b 9d 70 ff ff ff 	mov    r11,QWORD PTR [rbp-0x90]
    4a0a:	0f 85 cf 13 00 00    	jne    5ddf <http_parser_execute+0x351f>
    4a10:	41 0f b6 41 17       	movzx  eax,BYTE PTR [r9+0x17]
    4a15:	41 8b 39             	mov    edi,DWORD PTR [r9]
    4a18:	c1 ef 0a             	shr    edi,0xa
    4a1b:	83 e7 7f             	and    edi,0x7f
    4a1e:	a8 7f                	test   al,0x7f
    4a20:	88 45 b0             	mov    BYTE PTR [rbp-0x50],al
    4a23:	0f 85 cf fa ff ff    	jne    44f8 <http_parser_execute+0x1c38>
    4a29:	49 83 c2 01          	add    r10,0x1
    4a2d:	48 c7 45 98 00 00 00 	mov    QWORD PTR [rbp-0x68],0x0
    4a34:	00 
    4a35:	e9 e5 e3 ff ff       	jmp    2e1f <http_parser_execute+0x55f>
    4a3a:	49 83 c2 01          	add    r10,0x1
    4a3e:	bf 0f 00 00 00       	mov    edi,0xf
    4a43:	e9 d7 e3 ff ff       	jmp    2e1f <http_parser_execute+0x55f>
    4a48:	3c 0f                	cmp    al,0xf
    4a4a:	0f 84 36 fb ff ff    	je     4586 <http_parser_execute+0x1cc6>
    4a50:	0f 83 49 05 00 00    	jae    4f9f <http_parser_execute+0x26df>
    4a56:	66 41 81 09 80 00    	or     WORD PTR [r9],0x80
    4a5c:	41 80 61 02 01       	and    BYTE PTR [r9+0x2],0x1
    4a61:	49 83 c2 01          	add    r10,0x1
    4a65:	bf 32 00 00 00       	mov    edi,0x32
    4a6a:	e9 b0 e3 ff ff       	jmp    2e1f <http_parser_execute+0x55f>
    4a6f:	49 83 ee 01          	sub    r14,0x1
    4a73:	e9 d3 f5 ff ff       	jmp    404b <http_parser_execute+0x178b>
    4a78:	84 c9                	test   cl,cl
    4a7a:	0f 85 20 06 00 00    	jne    50a0 <http_parser_execute+0x27e0>
    4a80:	bf 14 00 00 00       	mov    edi,0x14
    4a85:	e9 23 ea ff ff       	jmp    34ad <http_parser_execute+0xbed>
    4a8a:	48 85 c0             	test   rax,rax
    4a8d:	4c 89 55 b8          	mov    QWORD PTR [rbp-0x48],r10
    4a91:	0f 85 a2 16 00 00    	jne    6139 <http_parser_execute+0x3879>
    4a97:	4d 85 d2             	test   r10,r10
    4a9a:	0f 85 c0 e5 ff ff    	jne    3060 <http_parser_execute+0x7a0>
    4aa0:	4d 89 f2             	mov    r10,r14
    4aa3:	e9 b2 ed ff ff       	jmp    385a <http_parser_execute+0xf9a>
    4aa8:	48 c7 45 a8 00 00 00 	mov    QWORD PTR [rbp-0x58],0x0
    4aaf:	00 
    4ab0:	e9 6e e8 ff ff       	jmp    3323 <http_parser_execute+0xa63>
    4ab5:	49 83 c2 01          	add    r10,0x1
    4ab9:	bf 3d 00 00 00       	mov    edi,0x3d
    4abe:	e9 5c e3 ff ff       	jmp    2e1f <http_parser_execute+0x55f>
    4ac3:	48 8b 45 c0          	mov    rax,QWORD PTR [rbp-0x40]
    4ac7:	e9 fd de ff ff       	jmp    29c9 <http_parser_execute+0x109>
    4acc:	48 89 c2             	mov    rdx,rax
    4acf:	48 2b 95 78 ff ff ff 	sub    rdx,QWORD PTR [rbp-0x88]
    4ad6:	4d 89 cd             	mov    r13,r9
    4ad9:	49 89 c6             	mov    r14,rax
    4adc:	41 01 d7             	add    r15d,edx
    4adf:	45 39 fc             	cmp    r12d,r15d
    4ae2:	0f 82 4d fc ff ff    	jb     4735 <http_parser_execute+0x1e75>
    4ae8:	48 89 85 78 ff ff ff 	mov    QWORD PTR [rbp-0x88],rax
    4aef:	41 0f b6 45 17       	movzx  eax,BYTE PTR [r13+0x17]
    4af4:	45 89 7d 04          	mov    DWORD PTR [r13+0x4],r15d
    4af8:	bf 2d 00 00 00       	mov    edi,0x2d
    4afd:	83 e0 80             	and    eax,0xffffff80
    4b00:	83 c8 18             	or     eax,0x18
    4b03:	41 88 45 17          	mov    BYTE PTR [r13+0x17],al
    4b07:	4c 8b b5 78 ff ff ff 	mov    r14,QWORD PTR [rbp-0x88]
    4b0e:	e9 f1 e5 ff ff       	jmp    3104 <http_parser_execute+0x844>
    4b13:	49 89 c6             	mov    r14,rax
    4b16:	4c 89 d0             	mov    rax,r10
    4b19:	48 2b 85 78 ff ff ff 	sub    rax,QWORD PTR [rbp-0x88]
    4b20:	41 01 c7             	add    r15d,eax
    4b23:	45 39 fc             	cmp    r12d,r15d
    4b26:	0f 82 06 fc ff ff    	jb     4732 <http_parser_execute+0x1e72>
    4b2c:	80 fa 3a             	cmp    dl,0x3a
    4b2f:	0f 85 e0 16 00 00    	jne    6215 <http_parser_execute+0x3955>
    4b35:	48 83 7d 90 00       	cmp    QWORD PTR [rbp-0x70],0x0
    4b3a:	4c 8d 53 01          	lea    r10,[rbx+0x1]
    4b3e:	bf 2e 00 00 00       	mov    edi,0x2e
    4b43:	0f 84 d6 e2 ff ff    	je     2e1f <http_parser_execute+0x55f>
    4b49:	48 8b 45 c8          	mov    rax,QWORD PTR [rbp-0x38]
    4b4d:	48 83 78 18 00       	cmp    QWORD PTR [rax+0x18],0x0
    4b52:	0f 84 d6 0c 00 00    	je     582e <http_parser_execute+0x2f6e>
    4b58:	4c 89 9d 78 ff ff ff 	mov    QWORD PTR [rbp-0x88],r11
    4b5f:	41 8b 01             	mov    eax,DWORD PTR [r9]
    4b62:	4c 89 f2             	mov    rdx,r14
    4b65:	4c 89 cf             	mov    rdi,r9
    4b68:	25 ff 03 fe ff       	and    eax,0xfffe03ff
    4b6d:	80 cc b8             	or     ah,0xb8
    4b70:	41 89 01             	mov    DWORD PTR [r9],eax
    4b73:	48 8b 75 90          	mov    rsi,QWORD PTR [rbp-0x70]
    4b77:	48 8b 45 c8          	mov    rax,QWORD PTR [rbp-0x38]
    4b7b:	4c 89 4d b0          	mov    QWORD PTR [rbp-0x50],r9
    4b7f:	48 29 f2             	sub    rdx,rsi
    4b82:	48 8b 40 18          	mov    rax,QWORD PTR [rax+0x18]
    4b86:	e8 00 00 00 00       	call   4b8b <http_parser_execute+0x22cb>
    4b8b:	85 c0                	test   eax,eax
    4b8d:	4c 8b 4d b0          	mov    r9,QWORD PTR [rbp-0x50]
    4b91:	4c 8b 9d 78 ff ff ff 	mov    r11,QWORD PTR [rbp-0x88]
    4b98:	0f 85 cb 0c 00 00    	jne    5869 <http_parser_execute+0x2fa9>
    4b9e:	41 0f b6 41 17       	movzx  eax,BYTE PTR [r9+0x17]
    4ba3:	41 8b 39             	mov    edi,DWORD PTR [r9]
    4ba6:	c1 ef 0a             	shr    edi,0xa
    4ba9:	83 e7 7f             	and    edi,0x7f
    4bac:	a8 7f                	test   al,0x7f
    4bae:	88 45 b0             	mov    BYTE PTR [rbp-0x50],al
    4bb1:	0f 85 a5 0c 00 00    	jne    585c <http_parser_execute+0x2f9c>
    4bb7:	4c 8d 53 01          	lea    r10,[rbx+0x1]
    4bbb:	48 c7 45 90 00 00 00 	mov    QWORD PTR [rbp-0x70],0x0
    4bc2:	00 
    4bc3:	e9 57 e2 ff ff       	jmp    2e1f <http_parser_execute+0x55f>
    4bc8:	49 83 c2 01          	add    r10,0x1
    4bcc:	e9 4e e2 ff ff       	jmp    2e1f <http_parser_execute+0x55f>
    4bd1:	41 80 79 16 21       	cmp    BYTE PTR [r9+0x16],0x21
    4bd6:	0f 85 c5 f0 ff ff    	jne    3ca1 <http_parser_execute+0x13e1>
    4bdc:	49 83 c2 01          	add    r10,0x1
    4be0:	bf 25 00 00 00       	mov    edi,0x25
    4be5:	e9 35 e2 ff ff       	jmp    2e1f <http_parser_execute+0x55f>
    4bea:	49 83 c2 01          	add    r10,0x1
    4bee:	bf 21 00 00 00       	mov    edi,0x21
    4bf3:	e9 27 e2 ff ff       	jmp    2e1f <http_parser_execute+0x55f>
    4bf8:	4d 85 d2             	test   r10,r10
    4bfb:	0f 84 a7 fe ff ff    	je     4aa8 <http_parser_execute+0x21e8>
    4c01:	4c 89 55 a8          	mov    QWORD PTR [rbp-0x58],r10
    4c05:	e9 40 ea ff ff       	jmp    364a <http_parser_execute+0xd8a>
    4c0a:	41 f6 41 03 20       	test   BYTE PTR [r9+0x3],0x20
    4c0f:	0f 84 3c 05 00 00    	je     5151 <http_parser_execute+0x2891>
    4c15:	41 f6 01 03          	test   BYTE PTR [r9],0x3
    4c19:	75 09                	jne    4c24 <http_parser_execute+0x2364>
    4c1b:	45 84 ed             	test   r13b,r13b
    4c1e:	0f 84 d1 15 00 00    	je     61f5 <http_parser_execute+0x3935>
    4c24:	49 83 c2 01          	add    r10,0x1
    4c28:	45 31 ff             	xor    r15d,r15d
    4c2b:	bf 3f 00 00 00       	mov    edi,0x3f
    4c30:	e9 ea e1 ff ff       	jmp    2e1f <http_parser_execute+0x55f>
    4c35:	b8 13 00 00 00       	mov    eax,0x13
    4c3a:	e9 a3 f2 ff ff       	jmp    3ee2 <http_parser_execute+0x1622>
    4c3f:	4d 89 d4             	mov    r12,r10
    4c42:	41 0f b6 51 02       	movzx  edx,BYTE PTR [r9+0x2]
    4c47:	89 c3                	mov    ebx,eax
    4c49:	48 8b 75 a8          	mov    rsi,QWORD PTR [rbp-0x58]
    4c4d:	83 e3 7f             	and    ebx,0x7f
    4c50:	4d 89 e6             	mov    r14,r12
    4c53:	8d 04 1b             	lea    eax,[rbx+rbx*1]
    4c56:	83 e2 01             	and    edx,0x1
    4c59:	09 c2                	or     edx,eax
    4c5b:	48 85 f6             	test   rsi,rsi
    4c5e:	41 88 51 02          	mov    BYTE PTR [r9+0x2],dl
    4c62:	0f 84 fc 08 00 00    	je     5564 <http_parser_execute+0x2ca4>
    4c68:	48 8b 4d c8          	mov    rcx,QWORD PTR [rbp-0x38]
    4c6c:	48 83 79 20 00       	cmp    QWORD PTR [rcx+0x20],0x0
    4c71:	0f 84 ed 08 00 00    	je     5564 <http_parser_execute+0x2ca4>
    4c77:	4c 89 9d 78 ff ff ff 	mov    QWORD PTR [rbp-0x88],r11
    4c7e:	4c 89 55 a8          	mov    QWORD PTR [rbp-0x58],r10
    4c82:	4c 89 e2             	mov    rdx,r12
    4c85:	41 8b 01             	mov    eax,DWORD PTR [r9]
    4c88:	48 29 f2             	sub    rdx,rsi
    4c8b:	4c 89 cf             	mov    rdi,r9
    4c8e:	25 ff 03 fe ff       	and    eax,0xfffe03ff
    4c93:	80 cc d0             	or     ah,0xd0
    4c96:	41 89 01             	mov    DWORD PTR [r9],eax
    4c99:	4c 89 4d b0          	mov    QWORD PTR [rbp-0x50],r9
    4c9d:	48 8b 41 20          	mov    rax,QWORD PTR [rcx+0x20]
    4ca1:	e8 00 00 00 00       	call   4ca6 <http_parser_execute+0x23e6>
    4ca6:	85 c0                	test   eax,eax
    4ca8:	4c 8b 4d b0          	mov    r9,QWORD PTR [rbp-0x50]
    4cac:	4c 8b 55 a8          	mov    r10,QWORD PTR [rbp-0x58]
    4cb0:	4c 8b 9d 78 ff ff ff 	mov    r11,QWORD PTR [rbp-0x88]
    4cb7:	0f 85 12 12 00 00    	jne    5ecf <http_parser_execute+0x360f>
    4cbd:	41 0f b6 41 17       	movzx  eax,BYTE PTR [r9+0x17]
    4cc2:	41 8b 39             	mov    edi,DWORD PTR [r9]
    4cc5:	c1 ef 0a             	shr    edi,0xa
    4cc8:	83 e7 7f             	and    edi,0x7f
    4ccb:	a8 7f                	test   al,0x7f
    4ccd:	88 45 b0             	mov    BYTE PTR [rbp-0x50],al
    4cd0:	0f 85 d3 11 00 00    	jne    5ea9 <http_parser_execute+0x35e9>
    4cd6:	41 0f b6 51 02       	movzx  edx,BYTE PTR [r9+0x2]
    4cdb:	8b 05 00 00 00 00    	mov    eax,DWORD PTR [rip+0x0]        # 4ce1 <http_parser_execute+0x2421>
    4ce1:	01 db                	add    ebx,ebx
    4ce3:	83 e2 01             	and    edx,0x1
    4ce6:	09 da                	or     edx,ebx
    4ce8:	48 c7 45 a8 00 00 00 	mov    QWORD PTR [rbp-0x58],0x0
    4cef:	00 
    4cf0:	41 88 51 02          	mov    BYTE PTR [r9+0x2],dl
    4cf4:	89 85 78 ff ff ff    	mov    DWORD PTR [rbp-0x88],eax
    4cfa:	e9 6c f3 ff ff       	jmp    406b <http_parser_execute+0x17ab>
    4cff:	41 0f b7 09          	movzx  ecx,WORD PTR [r9]
    4d03:	89 ca                	mov    edx,ecx
    4d05:	66 c1 ea 02          	shr    dx,0x2
    4d09:	83 f8 18             	cmp    eax,0x18
    4d0c:	0f 84 94 08 00 00    	je     55a6 <http_parser_execute+0x2ce6>
    4d12:	83 f8 19             	cmp    eax,0x19
    4d15:	89 d0                	mov    eax,edx
    4d17:	0f 84 b3 09 00 00    	je     56d0 <http_parser_execute+0x2e10>
    4d1d:	83 c8 08             	or     eax,0x8
    4d20:	41 0f b7 11          	movzx  edx,WORD PTR [r9]
    4d24:	0f b6 c0             	movzx  eax,al
    4d27:	c1 e0 02             	shl    eax,0x2
    4d2a:	66 81 e2 03 fc       	and    dx,0xfc03
    4d2f:	09 d0                	or     eax,edx
    4d31:	66 41 89 01          	mov    WORD PTR [r9],ax
    4d35:	e9 1d f6 ff ff       	jmp    4357 <http_parser_execute+0x1a97>
    4d3a:	b8 10 00 00 00       	mov    eax,0x10
    4d3f:	e9 9e f1 ff ff       	jmp    3ee2 <http_parser_execute+0x1622>
    4d44:	4d 89 d4             	mov    r12,r10
    4d47:	4c 89 e2             	mov    rdx,r12
    4d4a:	4d 89 e6             	mov    r14,r12
    4d4d:	4c 29 d2             	sub    rdx,r10
    4d50:	41 01 d7             	add    r15d,edx
    4d53:	44 39 bd 78 ff ff ff 	cmp    DWORD PTR [rbp-0x88],r15d
    4d5a:	0f 82 ab 0f 00 00    	jb     5d0b <http_parser_execute+0x344b>
    4d60:	8d 14 00             	lea    edx,[rax+rax*1]
    4d63:	41 0f b6 41 02       	movzx  eax,BYTE PTR [r9+0x2]
    4d68:	83 e0 01             	and    eax,0x1
    4d6b:	09 d0                	or     eax,edx
    4d6d:	48 83 7d a8 00       	cmp    QWORD PTR [rbp-0x58],0x0
    4d72:	41 88 41 02          	mov    BYTE PTR [r9+0x2],al
    4d76:	0f 84 d6 08 00 00    	je     5652 <http_parser_execute+0x2d92>
    4d7c:	48 8b 45 c8          	mov    rax,QWORD PTR [rbp-0x38]
    4d80:	48 83 78 20 00       	cmp    QWORD PTR [rax+0x20],0x0
    4d85:	0f 84 75 11 00 00    	je     5f00 <http_parser_execute+0x3640>
    4d8b:	4c 89 9d 70 ff ff ff 	mov    QWORD PTR [rbp-0x90],r11
    4d92:	44 89 85 78 ff ff ff 	mov    DWORD PTR [rbp-0x88],r8d
    4d99:	4c 89 e2             	mov    rdx,r12
    4d9c:	41 8b 01             	mov    eax,DWORD PTR [r9]
    4d9f:	4c 89 cf             	mov    rdi,r9
    4da2:	25 ff 03 fe ff       	and    eax,0xfffe03ff
    4da7:	80 cc d0             	or     ah,0xd0
    4daa:	41 89 01             	mov    DWORD PTR [r9],eax
    4dad:	48 8b 75 a8          	mov    rsi,QWORD PTR [rbp-0x58]
    4db1:	48 8b 45 c8          	mov    rax,QWORD PTR [rbp-0x38]
    4db5:	4c 89 4d b0          	mov    QWORD PTR [rbp-0x50],r9
    4db9:	48 29 f2             	sub    rdx,rsi
    4dbc:	48 8b 40 20          	mov    rax,QWORD PTR [rax+0x20]
    4dc0:	e8 00 00 00 00       	call   4dc5 <http_parser_execute+0x2505>
    4dc5:	85 c0                	test   eax,eax
    4dc7:	4c 8b 4d b0          	mov    r9,QWORD PTR [rbp-0x50]
    4dcb:	44 8b 85 78 ff ff ff 	mov    r8d,DWORD PTR [rbp-0x88]
    4dd2:	4c 8b 9d 70 ff ff ff 	mov    r11,QWORD PTR [rbp-0x90]
    4dd9:	0f 85 87 11 00 00    	jne    5f66 <http_parser_execute+0x36a6>
    4ddf:	41 0f b6 41 17       	movzx  eax,BYTE PTR [r9+0x17]
    4de4:	41 8b 39             	mov    edi,DWORD PTR [r9]
    4de7:	c1 ef 0a             	shr    edi,0xa
    4dea:	83 e7 7f             	and    edi,0x7f
    4ded:	a8 7f                	test   al,0x7f
    4def:	88 45 b0             	mov    BYTE PTR [rbp-0x50],al
    4df2:	0f 85 3f 11 00 00    	jne    5f37 <http_parser_execute+0x3677>
    4df8:	4d 89 e2             	mov    r10,r12
    4dfb:	48 c7 45 a8 00 00 00 	mov    QWORD PTR [rbp-0x58],0x0
    4e02:	00 
    4e03:	41 bc 0a 00 00 00    	mov    r12d,0xa
    4e09:	e9 59 dc ff ff       	jmp    2a67 <http_parser_execute+0x1a7>
    4e0e:	41 81 fc 53 02 0f 00 	cmp    r12d,0xf0253
    4e15:	0f 84 0a 0c 00 00    	je     5a25 <http_parser_execute+0x3165>
    4e1b:	0f 8f 73 04 00 00    	jg     5294 <http_parser_execute+0x29d4>
    4e21:	41 81 fc 41 03 0a 00 	cmp    r12d,0xa0341
    4e28:	0f 84 fd 0e 00 00    	je     5d2b <http_parser_execute+0x346b>
    4e2e:	0f 8e b9 0a 00 00    	jle    58ed <http_parser_execute+0x302d>
    4e34:	41 81 fc 50 04 0c 00 	cmp    r12d,0xc0450
    4e3b:	0f 84 4e 0f 00 00    	je     5d8f <http_parser_execute+0x34cf>
    4e41:	41 81 fc 42 02 0f 00 	cmp    r12d,0xf0242
    4e48:	0f 85 5b 02 00 00    	jne    50a9 <http_parser_execute+0x27e9>
    4e4e:	41 c6 41 16 12       	mov    BYTE PTR [r9+0x16],0x12
    4e53:	e9 55 e6 ff ff       	jmp    34ad <http_parser_execute+0xbed>
    4e58:	41 80 fc 3b          	cmp    r12b,0x3b
    4e5c:	74 0a                	je     4e68 <http_parser_execute+0x25a8>
    4e5e:	41 80 fc 20          	cmp    r12b,0x20
    4e62:	0f 85 d9 12 00 00    	jne    6141 <http_parser_execute+0x3881>
    4e68:	49 83 c2 01          	add    r10,0x1
    4e6c:	bf 37 00 00 00       	mov    edi,0x37
    4e71:	e9 a9 df ff ff       	jmp    2e1f <http_parser_execute+0x55f>
    4e76:	48 83 7d a0 00       	cmp    QWORD PTR [rbp-0x60],0x0
    4e7b:	0f 84 a0 07 00 00    	je     5621 <http_parser_execute+0x2d61>
    4e81:	48 8b 45 c8          	mov    rax,QWORD PTR [rbp-0x38]
    4e85:	48 83 78 10 00       	cmp    QWORD PTR [rax+0x10],0x0
    4e8a:	0f 84 29 10 00 00    	je     5eb9 <http_parser_execute+0x35f9>
    4e90:	4c 89 9d 70 ff ff ff 	mov    QWORD PTR [rbp-0x90],r11
    4e97:	41 8b 01             	mov    eax,DWORD PTR [r9]
    4e9a:	4c 89 d2             	mov    rdx,r10
    4e9d:	4c 89 cf             	mov    rdi,r9
    4ea0:	25 ff 03 fe ff       	and    eax,0xfffe03ff
    4ea5:	80 cc b0             	or     ah,0xb0
    4ea8:	41 89 01             	mov    DWORD PTR [r9],eax
    4eab:	48 8b 75 a0          	mov    rsi,QWORD PTR [rbp-0x60]
    4eaf:	48 8b 45 c8          	mov    rax,QWORD PTR [rbp-0x38]
    4eb3:	4c 89 95 78 ff ff ff 	mov    QWORD PTR [rbp-0x88],r10
    4eba:	4c 89 4d b0          	mov    QWORD PTR [rbp-0x50],r9
    4ebe:	48 29 f2             	sub    rdx,rsi
    4ec1:	48 8b 40 10          	mov    rax,QWORD PTR [rax+0x10]
    4ec5:	e8 00 00 00 00       	call   4eca <http_parser_execute+0x260a>
    4eca:	85 c0                	test   eax,eax
    4ecc:	4c 8b 4d b0          	mov    r9,QWORD PTR [rbp-0x50]
    4ed0:	4c 8b 95 78 ff ff ff 	mov    r10,QWORD PTR [rbp-0x88]
    4ed7:	4c 8b 9d 70 ff ff ff 	mov    r11,QWORD PTR [rbp-0x90]
    4ede:	0f 85 3b 10 00 00    	jne    5f1f <http_parser_execute+0x365f>
    4ee4:	41 0f b6 41 17       	movzx  eax,BYTE PTR [r9+0x17]
    4ee9:	41 8b 39             	mov    edi,DWORD PTR [r9]
    4eec:	c1 ef 0a             	shr    edi,0xa
    4eef:	83 e7 7f             	and    edi,0x7f
    4ef2:	a8 7f                	test   al,0x7f
    4ef4:	88 45 b0             	mov    BYTE PTR [rbp-0x50],al
    4ef7:	0f 85 fb f5 ff ff    	jne    44f8 <http_parser_execute+0x1c38>
    4efd:	49 83 c2 01          	add    r10,0x1
    4f01:	48 c7 45 a0 00 00 00 	mov    QWORD PTR [rbp-0x60],0x0
    4f08:	00 
    4f09:	e9 11 df ff ff       	jmp    2e1f <http_parser_execute+0x55f>
    4f0e:	41 80 fc 52          	cmp    r12b,0x52
    4f12:	0f 84 b7 09 00 00    	je     58cf <http_parser_execute+0x300f>
    4f18:	0f 8f 70 05 00 00    	jg     548e <http_parser_execute+0x2bce>
    4f1e:	41 80 fc 4f          	cmp    r12b,0x4f
    4f22:	0f 84 bb 09 00 00    	je     58e3 <http_parser_execute+0x3023>
    4f28:	0f 8c ab 09 00 00    	jl     58d9 <http_parser_execute+0x3019>
    4f2e:	41 80 fc 50          	cmp    r12b,0x50
    4f32:	0f 85 b2 05 00 00    	jne    54ea <http_parser_execute+0x2c2a>
    4f38:	41 c6 41 16 03       	mov    BYTE PTR [r9+0x16],0x3
    4f3d:	e9 c5 e2 ff ff       	jmp    3207 <http_parser_execute+0x947>
    4f42:	41 8d 44 24 d0       	lea    eax,[r12-0x30]
    4f47:	3c 09                	cmp    al,0x9
    4f49:	0f 87 4a 0e 00 00    	ja     5d99 <http_parser_execute+0x34d9>
    4f4f:	41 0f b7 11          	movzx  edx,WORD PTR [r9]
    4f53:	89 d0                	mov    eax,edx
    4f55:	66 c1 e8 02          	shr    ax,0x2
    4f59:	84 c0                	test   al,al
    4f5b:	0f 88 66 11 00 00    	js     60c7 <http_parser_execute+0x3807>
    4f61:	83 c8 80             	or     eax,0xffffff80
    4f64:	66 81 e2 03 fc       	and    dx,0xfc03
    4f69:	49 83 c2 01          	add    r10,0x1
    4f6d:	0f b6 c0             	movzx  eax,al
    4f70:	bf 32 00 00 00       	mov    edi,0x32
    4f75:	c1 e0 02             	shl    eax,0x2
    4f78:	09 d0                	or     eax,edx
    4f7a:	66 41 89 01          	mov    WORD PTR [r9],ax
    4f7e:	41 0f be c4          	movsx  eax,r12b
    4f82:	83 e8 30             	sub    eax,0x30
    4f85:	48 98                	cdqe   
    4f87:	49 89 41 08          	mov    QWORD PTR [r9+0x8],rax
    4f8b:	41 0f b6 41 02       	movzx  eax,BYTE PTR [r9+0x2]
    4f90:	83 e0 01             	and    eax,0x1
    4f93:	83 c8 16             	or     eax,0x16
    4f96:	41 88 41 02          	mov    BYTE PTR [r9+0x2],al
    4f9a:	e9 80 de ff ff       	jmp    2e1f <http_parser_execute+0x55f>
    4f9f:	3c 12                	cmp    al,0x12
    4fa1:	0f 84 df f5 ff ff    	je     4586 <http_parser_execute+0x1cc6>
    4fa7:	41 80 61 02 01       	and    BYTE PTR [r9+0x2],0x1
    4fac:	49 83 c2 01          	add    r10,0x1
    4fb0:	bf 32 00 00 00       	mov    edi,0x32
    4fb5:	e9 65 de ff ff       	jmp    2e1f <http_parser_execute+0x55f>
    4fba:	41 0f b6 41 02       	movzx  eax,BYTE PTR [r9+0x2]
    4fbf:	49 83 c2 01          	add    r10,0x1
    4fc3:	83 e0 01             	and    eax,0x1
    4fc6:	80 fa 63             	cmp    dl,0x63
    4fc9:	0f 84 f2 05 00 00    	je     55c1 <http_parser_execute+0x2d01>
    4fcf:	83 c8 22             	or     eax,0x22
    4fd2:	bf 32 00 00 00       	mov    edi,0x32
    4fd7:	41 88 41 02          	mov    BYTE PTR [r9+0x2],al
    4fdb:	e9 3f de ff ff       	jmp    2e1f <http_parser_execute+0x55f>
    4fe0:	41 0f b6 41 17       	movzx  eax,BYTE PTR [r9+0x17]
    4fe5:	4d 89 cd             	mov    r13,r9
    4fe8:	45 89 79 04          	mov    DWORD PTR [r9+0x4],r15d
    4fec:	4d 89 d6             	mov    r14,r10
    4fef:	bf 01 00 00 00       	mov    edi,0x1
    4ff4:	83 e0 80             	and    eax,0xffffff80
    4ff7:	83 c8 11             	or     eax,0x11
    4ffa:	41 88 41 17          	mov    BYTE PTR [r9+0x17],al
    4ffe:	e9 01 e1 ff ff       	jmp    3104 <http_parser_execute+0x844>
    5003:	41 83 c8 08          	or     r8d,0x8
    5007:	45 88 41 02          	mov    BYTE PTR [r9+0x2],r8b
    500b:	e9 c9 e9 ff ff       	jmp    39d9 <http_parser_execute+0x1119>
    5010:	48 c7 45 b8 00 00 00 	mov    QWORD PTR [rbp-0x48],0x0
    5017:	00 
    5018:	e9 11 de ff ff       	jmp    2e2e <http_parser_execute+0x56e>
    501d:	49 8b 71 08          	mov    rsi,QWORD PTR [r9+0x8]
    5021:	48 8d 56 ff          	lea    rdx,[rsi-0x1]
    5025:	48 83 fa fd          	cmp    rdx,0xfffffffffffffffd
    5029:	0f 96 c2             	setbe  dl
    502c:	0f b6 d2             	movzx  edx,dl
    502f:	e9 3c e7 ff ff       	jmp    3770 <http_parser_execute+0xeb0>
    5034:	41 f6 01 03          	test   BYTE PTR [r9],0x3
    5038:	b8 01 00 00 00       	mov    eax,0x1
    503d:	0f 84 8f f5 ff ff    	je     45d2 <http_parser_execute+0x1d12>
    5043:	66 41 83 79 14 65    	cmp    WORD PTR [r9+0x14],0x65
    5049:	0f 94 c0             	sete   al
    504c:	e9 81 f5 ff ff       	jmp    45d2 <http_parser_execute+0x1d12>
    5051:	49 83 c2 01          	add    r10,0x1
    5055:	bf 2f 00 00 00       	mov    edi,0x2f
    505a:	e9 c0 dd ff ff       	jmp    2e1f <http_parser_execute+0x55f>
    505f:	b8 14 00 00 00       	mov    eax,0x14
    5064:	e9 79 ee ff ff       	jmp    3ee2 <http_parser_execute+0x1622>
    5069:	66 41 83 09 10       	or     WORD PTR [r9],0x10
    506e:	e9 cc e5 ff ff       	jmp    363f <http_parser_execute+0xd7f>
    5073:	41 0f b6 41 17       	movzx  eax,BYTE PTR [r9+0x17]
    5078:	4d 89 cd             	mov    r13,r9
    507b:	45 89 79 04          	mov    DWORD PTR [r9+0x4],r15d
    507f:	4d 89 d6             	mov    r14,r10
    5082:	bf 30 00 00 00       	mov    edi,0x30
    5087:	83 e0 80             	and    eax,0xffffff80
    508a:	83 c8 19             	or     eax,0x19
    508d:	41 88 41 17          	mov    BYTE PTR [r9+0x17],al
    5091:	e9 6e e0 ff ff       	jmp    3104 <http_parser_execute+0x844>
    5096:	66 41 83 09 08       	or     WORD PTR [r9],0x8
    509b:	e9 9f e5 ff ff       	jmp    363f <http_parser_execute+0xd7f>
    50a0:	80 f9 20             	cmp    cl,0x20
    50a3:	0f 84 04 e4 ff ff    	je     34ad <http_parser_execute+0xbed>
    50a9:	41 0f b6 41 17       	movzx  eax,BYTE PTR [r9+0x17]
    50ae:	4d 89 cd             	mov    r13,r9
    50b1:	45 89 79 04          	mov    DWORD PTR [r9+0x4],r15d
    50b5:	4d 89 d6             	mov    r14,r10
    50b8:	bf 13 00 00 00       	mov    edi,0x13
    50bd:	83 e0 80             	and    eax,0xffffff80
    50c0:	83 c8 10             	or     eax,0x10
    50c3:	41 88 41 17          	mov    BYTE PTR [r9+0x17],al
    50c7:	e9 38 e0 ff ff       	jmp    3104 <http_parser_execute+0x844>
    50cc:	41 0f b6 41 17       	movzx  eax,BYTE PTR [r9+0x17]
    50d1:	4d 89 cd             	mov    r13,r9
    50d4:	45 89 79 04          	mov    DWORD PTR [r9+0x4],r15d
    50d8:	bf 32 00 00 00       	mov    edi,0x32
    50dd:	83 e0 80             	and    eax,0xffffff80
    50e0:	83 c8 19             	or     eax,0x19
    50e3:	41 88 41 17          	mov    BYTE PTR [r9+0x17],al
    50e7:	41 0f b6 41 02       	movzx  eax,BYTE PTR [r9+0x2]
    50ec:	83 e0 01             	and    eax,0x1
    50ef:	83 c8 16             	or     eax,0x16
    50f2:	41 88 41 02          	mov    BYTE PTR [r9+0x2],al
    50f6:	e9 09 e0 ff ff       	jmp    3104 <http_parser_execute+0x844>
    50fb:	3c 17                	cmp    al,0x17
    50fd:	0f 85 20 e2 ff ff    	jne    3323 <http_parser_execute+0xa63>
    5103:	66 41 83 09 04       	or     WORD PTR [r9],0x4
    5108:	e9 16 e2 ff ff       	jmp    3323 <http_parser_execute+0xa63>
    510d:	89 f2                	mov    edx,esi
    510f:	be 17 00 00 00       	mov    esi,0x17
    5114:	83 e2 1f             	and    edx,0x1f
    5117:	80 fa 06             	cmp    dl,0x6
    511a:	0f 44 c6             	cmove  eax,esi
    511d:	e9 c0 ed ff ff       	jmp    3ee2 <http_parser_execute+0x1622>
    5122:	83 e1 1f             	and    ecx,0x1f
    5125:	80 f9 06             	cmp    cl,0x6
    5128:	41 0f 44 c0          	cmove  eax,r8d
    512c:	e9 b1 ed ff ff       	jmp    3ee2 <http_parser_execute+0x1622>
    5131:	41 0f b6 41 17       	movzx  eax,BYTE PTR [r9+0x17]
    5136:	4d 89 cd             	mov    r13,r9
    5139:	45 89 79 04          	mov    DWORD PTR [r9+0x4],r15d
    513d:	bf 32 00 00 00       	mov    edi,0x32
    5142:	83 e0 80             	and    eax,0xffffff80
    5145:	83 c8 18             	or     eax,0x18
    5148:	41 88 41 17          	mov    BYTE PTR [r9+0x17],al
    514c:	e9 b3 df ff ff       	jmp    3104 <http_parser_execute+0x844>
    5151:	49 8b 41 08          	mov    rax,QWORD PTR [r9+0x8]
    5155:	48 85 c0             	test   rax,rax
    5158:	0f 85 0f 05 00 00    	jne    566d <http_parser_execute+0x2dad>
    515e:	4c 89 cf             	mov    rdi,r9
    5161:	4c 89 9d 68 ff ff ff 	mov    QWORD PTR [rbp-0x98],r11
    5168:	4c 89 95 70 ff ff ff 	mov    QWORD PTR [rbp-0x90],r10
    516f:	4c 89 8d 78 ff ff ff 	mov    QWORD PTR [rbp-0x88],r9
    5176:	e8 00 00 00 00       	call   517b <http_parser_execute+0x28bb>
    517b:	85 c0                	test   eax,eax
    517d:	bf 01 00 00 00       	mov    edi,0x1
    5182:	4c 8b 8d 78 ff ff ff 	mov    r9,QWORD PTR [rbp-0x88]
    5189:	4c 8b 95 70 ff ff ff 	mov    r10,QWORD PTR [rbp-0x90]
    5190:	4c 8b 9d 68 ff ff ff 	mov    r11,QWORD PTR [rbp-0x98]
    5197:	74 11                	je     51aa <http_parser_execute+0x28ea>
    5199:	41 0f b6 01          	movzx  eax,BYTE PTR [r9]
    519d:	83 e0 03             	and    eax,0x3
    51a0:	3c 01                	cmp    al,0x1
    51a2:	19 ff                	sbb    edi,edi
    51a4:	83 e7 0e             	and    edi,0xe
    51a7:	83 c7 04             	add    edi,0x4
    51aa:	48 8b 45 c8          	mov    rax,QWORD PTR [rbp-0x38]
    51ae:	48 83 78 38 00       	cmp    QWORD PTR [rax+0x38],0x0
    51b3:	0f 84 c7 0f 00 00    	je     6180 <http_parser_execute+0x38c0>
    51b9:	89 f8                	mov    eax,edi
    51bb:	4c 89 9d 70 ff ff ff 	mov    QWORD PTR [rbp-0x90],r11
    51c2:	4c 89 95 78 ff ff ff 	mov    QWORD PTR [rbp-0x88],r10
    51c9:	83 e0 7f             	and    eax,0x7f
    51cc:	4c 89 cf             	mov    rdi,r9
    51cf:	c1 e0 0a             	shl    eax,0xa
    51d2:	89 c2                	mov    edx,eax
    51d4:	41 8b 01             	mov    eax,DWORD PTR [r9]
    51d7:	25 ff 03 fe ff       	and    eax,0xfffe03ff
    51dc:	09 d0                	or     eax,edx
    51de:	41 89 01             	mov    DWORD PTR [r9],eax
    51e1:	48 8b 45 c8          	mov    rax,QWORD PTR [rbp-0x38]
    51e5:	4c 89 4d b0          	mov    QWORD PTR [rbp-0x50],r9
    51e9:	48 8b 40 38          	mov    rax,QWORD PTR [rax+0x38]
    51ed:	e8 00 00 00 00       	call   51f2 <http_parser_execute+0x2932>
    51f2:	85 c0                	test   eax,eax
    51f4:	4c 8b 4d b0          	mov    r9,QWORD PTR [rbp-0x50]
    51f8:	4c 8b 95 78 ff ff ff 	mov    r10,QWORD PTR [rbp-0x88]
    51ff:	4c 8b 9d 70 ff ff ff 	mov    r11,QWORD PTR [rbp-0x90]
    5206:	0f 85 58 0f 00 00    	jne    6164 <http_parser_execute+0x38a4>
    520c:	41 0f b6 41 17       	movzx  eax,BYTE PTR [r9+0x17]
    5211:	41 8b 39             	mov    edi,DWORD PTR [r9]
    5214:	c1 ef 0a             	shr    edi,0xa
    5217:	83 e7 7f             	and    edi,0x7f
    521a:	a8 7f                	test   al,0x7f
    521c:	88 45 b0             	mov    BYTE PTR [rbp-0x50],al
    521f:	0f 85 d3 f2 ff ff    	jne    44f8 <http_parser_execute+0x1c38>
    5225:	49 83 c2 01          	add    r10,0x1
    5229:	45 31 ff             	xor    r15d,r15d
    522c:	e9 ee db ff ff       	jmp    2e1f <http_parser_execute+0x55f>
    5231:	49 83 c2 01          	add    r10,0x1
    5235:	bf 30 00 00 00       	mov    edi,0x30
    523a:	e9 e0 db ff ff       	jmp    2e1f <http_parser_execute+0x55f>
    523f:	66 41 83 09 08       	or     WORD PTR [r9],0x8
    5244:	e9 da e0 ff ff       	jmp    3323 <http_parser_execute+0xa63>
    5249:	b8 15 00 00 00       	mov    eax,0x15
    524e:	e9 8f ec ff ff       	jmp    3ee2 <http_parser_execute+0x1622>
    5253:	66 41 83 09 10       	or     WORD PTR [r9],0x10
    5258:	e9 c6 e0 ff ff       	jmp    3323 <http_parser_execute+0xa63>
    525d:	41 81 fc 49 01 09 00 	cmp    r12d,0x90149
    5264:	0f 84 cf 07 00 00    	je     5a39 <http_parser_execute+0x3179>
    526a:	0f 8e 48 06 00 00    	jle    58b8 <http_parser_execute+0x2ff8>
    5270:	41 81 fc 2d 01 0a 00 	cmp    r12d,0xa012d
    5277:	0f 84 b2 07 00 00    	je     5a2f <http_parser_execute+0x316f>
    527d:	41 81 fc 45 01 0a 00 	cmp    r12d,0xa0145
    5284:	0f 85 1f fe ff ff    	jne    50a9 <http_parser_execute+0x27e9>
    528a:	41 c6 41 16 17       	mov    BYTE PTR [r9+0x16],0x17
    528f:	e9 19 e2 ff ff       	jmp    34ad <http_parser_execute+0xbed>
    5294:	41 81 fc 42 02 14 00 	cmp    r12d,0x140242
    529b:	0f 84 94 0a 00 00    	je     5d35 <http_parser_execute+0x3475>
    52a1:	0f 8e 5d 06 00 00    	jle    5904 <http_parser_execute+0x3044>
    52a7:	41 81 fc 45 01 1a 00 	cmp    r12d,0x1a0145
    52ae:	0f 84 99 0a 00 00    	je     5d4d <http_parser_execute+0x348d>
    52b4:	41 81 fc 4f 01 1a 00 	cmp    r12d,0x1a014f
    52bb:	0f 85 e8 fd ff ff    	jne    50a9 <http_parser_execute+0x27e9>
    52c1:	41 c6 41 16 21       	mov    BYTE PTR [r9+0x16],0x21
    52c6:	e9 e2 e1 ff ff       	jmp    34ad <http_parser_execute+0xbed>
    52cb:	41 0f b6 41 17       	movzx  eax,BYTE PTR [r9+0x17]
    52d0:	4d 89 cd             	mov    r13,r9
    52d3:	45 89 79 04          	mov    DWORD PTR [r9+0x4],r15d
    52d7:	4d 89 d6             	mov    r14,r10
    52da:	bf 01 00 00 00       	mov    edi,0x1
    52df:	83 e0 80             	and    eax,0xffffff80
    52e2:	83 c8 0d             	or     eax,0xd
    52e5:	41 88 41 17          	mov    BYTE PTR [r9+0x17],al
    52e9:	e9 16 de ff ff       	jmp    3104 <http_parser_execute+0x844>
    52ee:	41 0f b6 41 17       	movzx  eax,BYTE PTR [r9+0x17]
    52f3:	4d 89 cd             	mov    r13,r9
    52f6:	45 89 79 04          	mov    DWORD PTR [r9+0x4],r15d
    52fa:	4d 89 d6             	mov    r14,r10
    52fd:	bf 0b 00 00 00       	mov    edi,0xb
    5302:	83 e0 80             	and    eax,0xffffff80
    5305:	83 c8 0e             	or     eax,0xe
    5308:	41 88 41 17          	mov    BYTE PTR [r9+0x17],al
    530c:	e9 f3 dd ff ff       	jmp    3104 <http_parser_execute+0x844>
    5311:	49 83 c2 01          	add    r10,0x1
    5315:	45 31 ff             	xor    r15d,r15d
    5318:	e9 02 db ff ff       	jmp    2e1f <http_parser_execute+0x55f>
    531d:	41 0f b6 41 17       	movzx  eax,BYTE PTR [r9+0x17]
    5322:	4d 89 cd             	mov    r13,r9
    5325:	45 89 79 04          	mov    DWORD PTR [r9+0x4],r15d
    5329:	4d 89 d6             	mov    r14,r10
    532c:	bf 29 00 00 00       	mov    edi,0x29
    5331:	83 e0 80             	and    eax,0xffffff80
    5334:	83 c8 0e             	or     eax,0xe
    5337:	41 88 41 17          	mov    BYTE PTR [r9+0x17],al
    533b:	e9 c4 dd ff ff       	jmp    3104 <http_parser_execute+0x844>
    5340:	49 83 c2 01          	add    r10,0x1
    5344:	bf 20 00 00 00       	mov    edi,0x20
    5349:	e9 d1 da ff ff       	jmp    2e1f <http_parser_execute+0x55f>
    534e:	41 0f b6 41 17       	movzx  eax,BYTE PTR [r9+0x17]
    5353:	4d 89 cd             	mov    r13,r9
    5356:	45 89 79 04          	mov    DWORD PTR [r9+0x4],r15d
    535a:	4d 89 d6             	mov    r14,r10
    535d:	bf 27 00 00 00       	mov    edi,0x27
    5362:	83 e0 80             	and    eax,0xffffff80
    5365:	83 c8 0e             	or     eax,0xe
    5368:	41 88 41 17          	mov    BYTE PTR [r9+0x17],al
    536c:	e9 93 dd ff ff       	jmp    3104 <http_parser_execute+0x844>
    5371:	41 0f b6 41 17       	movzx  eax,BYTE PTR [r9+0x17]
    5376:	4d 89 cd             	mov    r13,r9
    5379:	45 89 79 04          	mov    DWORD PTR [r9+0x4],r15d
    537d:	4d 89 d6             	mov    r14,r10
    5380:	bf 28 00 00 00       	mov    edi,0x28
    5385:	83 e0 80             	and    eax,0xffffff80
    5388:	83 c8 0e             	or     eax,0xe
    538b:	41 88 41 17          	mov    BYTE PTR [r9+0x17],al
    538f:	e9 70 dd ff ff       	jmp    3104 <http_parser_execute+0x844>
    5394:	41 0f b6 41 17       	movzx  eax,BYTE PTR [r9+0x17]
    5399:	4d 89 cd             	mov    r13,r9
    539c:	45 89 79 04          	mov    DWORD PTR [r9+0x4],r15d
    53a0:	4d 89 d6             	mov    r14,r10
    53a3:	bf 09 00 00 00       	mov    edi,0x9
    53a8:	83 e0 80             	and    eax,0xffffff80
    53ab:	83 c8 0e             	or     eax,0xe
    53ae:	41 88 41 17          	mov    BYTE PTR [r9+0x17],al
    53b2:	e9 4d dd ff ff       	jmp    3104 <http_parser_execute+0x844>
    53b7:	41 0f b6 41 17       	movzx  eax,BYTE PTR [r9+0x17]
    53bc:	4d 89 cd             	mov    r13,r9
    53bf:	45 89 79 04          	mov    DWORD PTR [r9+0x4],r15d
    53c3:	4d 89 d6             	mov    r14,r10
    53c6:	bf 0c 00 00 00       	mov    edi,0xc
    53cb:	83 e0 80             	and    eax,0xffffff80
    53ce:	83 c8 0e             	or     eax,0xe
    53d1:	41 88 41 17          	mov    BYTE PTR [r9+0x17],al
    53d5:	e9 2a dd ff ff       	jmp    3104 <http_parser_execute+0x844>
    53da:	49 83 c2 01          	add    r10,0x1
    53de:	45 31 ff             	xor    r15d,r15d
    53e1:	bf 35 00 00 00       	mov    edi,0x35
    53e6:	e9 34 da ff ff       	jmp    2e1f <http_parser_execute+0x55f>
    53eb:	41 0f b6 41 17       	movzx  eax,BYTE PTR [r9+0x17]
    53f0:	4d 89 cd             	mov    r13,r9
    53f3:	45 89 79 04          	mov    DWORD PTR [r9+0x4],r15d
    53f7:	4d 89 d6             	mov    r14,r10
    53fa:	bf 34 00 00 00       	mov    edi,0x34
    53ff:	83 e0 80             	and    eax,0xffffff80
    5402:	83 c8 17             	or     eax,0x17
    5405:	41 88 41 17          	mov    BYTE PTR [r9+0x17],al
    5409:	e9 f6 dc ff ff       	jmp    3104 <http_parser_execute+0x844>
    540e:	41 0f b6 41 17       	movzx  eax,BYTE PTR [r9+0x17]
    5413:	4d 89 cd             	mov    r13,r9
    5416:	45 89 79 04          	mov    DWORD PTR [r9+0x4],r15d
    541a:	4d 89 d6             	mov    r14,r10
    541d:	bf 2b 00 00 00       	mov    edi,0x2b
    5422:	83 e0 80             	and    eax,0xffffff80
    5425:	83 c8 17             	or     eax,0x17
    5428:	41 88 41 17          	mov    BYTE PTR [r9+0x17],al
    542c:	e9 d3 dc ff ff       	jmp    3104 <http_parser_execute+0x844>
    5431:	41 0f b6 41 17       	movzx  eax,BYTE PTR [r9+0x17]
    5436:	4d 89 cd             	mov    r13,r9
    5439:	45 89 79 04          	mov    DWORD PTR [r9+0x4],r15d
    543d:	4d 89 d6             	mov    r14,r10
    5440:	bf 35 00 00 00       	mov    edi,0x35
    5445:	83 e0 80             	and    eax,0xffffff80
    5448:	83 c8 1b             	or     eax,0x1b
    544b:	41 88 41 17          	mov    BYTE PTR [r9+0x17],al
    544f:	e9 b0 dc ff ff       	jmp    3104 <http_parser_execute+0x844>
    5454:	41 0f b6 41 17       	movzx  eax,BYTE PTR [r9+0x17]
    5459:	4d 89 cd             	mov    r13,r9
    545c:	45 89 79 04          	mov    DWORD PTR [r9+0x4],r15d
    5460:	4d 89 d6             	mov    r14,r10
    5463:	bf 0a 00 00 00       	mov    edi,0xa
    5468:	83 e0 80             	and    eax,0xffffff80
    546b:	83 c8 0e             	or     eax,0xe
    546e:	41 88 41 17          	mov    BYTE PTR [r9+0x17],al
    5472:	e9 8d dc ff ff       	jmp    3104 <http_parser_execute+0x844>
    5477:	49 83 c2 01          	add    r10,0x1
    547b:	e9 9f d9 ff ff       	jmp    2e1f <http_parser_execute+0x55f>
    5480:	49 83 c2 01          	add    r10,0x1
    5484:	bf 11 00 00 00       	mov    edi,0x11
    5489:	e9 91 d9 ff ff       	jmp    2e1f <http_parser_execute+0x55f>
    548e:	41 80 fc 54          	cmp    r12b,0x54
    5492:	0f 84 e7 04 00 00    	je     597f <http_parser_execute+0x30bf>
    5498:	0f 8c d7 04 00 00    	jl     5975 <http_parser_execute+0x30b5>
    549e:	41 80 fc 55          	cmp    r12b,0x55
    54a2:	75 46                	jne    54ea <http_parser_execute+0x2c2a>
    54a4:	41 c6 41 16 0f       	mov    BYTE PTR [r9+0x16],0xf
    54a9:	e9 59 dd ff ff       	jmp    3207 <http_parser_execute+0x947>
    54ae:	83 e2 1f             	and    edx,0x1f
    54b1:	80 fa 06             	cmp    dl,0x6
    54b4:	0f 85 1f e5 ff ff    	jne    39d9 <http_parser_execute+0x1119>
    54ba:	44 89 c2             	mov    edx,r8d
    54bd:	83 e2 01             	and    edx,0x1
    54c0:	83 ca 1c             	or     edx,0x1c
    54c3:	41 88 51 02          	mov    BYTE PTR [r9+0x2],dl
    54c7:	e9 0d e5 ff ff       	jmp    39d9 <http_parser_execute+0x1119>
    54cc:	41 80 fc 48          	cmp    r12b,0x48
    54d0:	0f 84 81 04 00 00    	je     5957 <http_parser_execute+0x3097>
    54d6:	41 80 fc 4c          	cmp    r12b,0x4c
    54da:	0f 84 8b 04 00 00    	je     596b <http_parser_execute+0x30ab>
    54e0:	41 80 fc 47          	cmp    r12b,0x47
    54e4:	0f 84 77 04 00 00    	je     5961 <http_parser_execute+0x30a1>
    54ea:	41 0f b6 41 17       	movzx  eax,BYTE PTR [r9+0x17]
    54ef:	4d 89 cd             	mov    r13,r9
    54f2:	45 89 79 04          	mov    DWORD PTR [r9+0x4],r15d
    54f6:	4d 89 d6             	mov    r14,r10
    54f9:	bf 12 00 00 00       	mov    edi,0x12
    54fe:	83 e0 80             	and    eax,0xffffff80
    5501:	83 c8 10             	or     eax,0x10
    5504:	41 88 41 17          	mov    BYTE PTR [r9+0x17],al
    5508:	e9 f7 db ff ff       	jmp    3104 <http_parser_execute+0x844>
    550d:	4c 89 d0             	mov    rax,r10
    5510:	48 2b 45 d0          	sub    rax,QWORD PTR [rbp-0x30]
    5514:	e9 b0 d4 ff ff       	jmp    29c9 <http_parser_execute+0x109>
    5519:	41 0f b6 41 17       	movzx  eax,BYTE PTR [r9+0x17]
    551e:	45 89 79 04          	mov    DWORD PTR [r9+0x4],r15d
    5522:	83 e0 80             	and    eax,0xffffff80
    5525:	83 c8 07             	or     eax,0x7
    5528:	41 88 41 17          	mov    BYTE PTR [r9+0x17],al
    552c:	e9 ce e3 ff ff       	jmp    38ff <http_parser_execute+0x103f>
    5531:	8b 45 84             	mov    eax,DWORD PTR [rbp-0x7c]
    5534:	85 c0                	test   eax,eax
    5536:	74 09                	je     5541 <http_parser_execute+0x2c81>
    5538:	f6 c2 01             	test   dl,0x1
    553b:	0f 84 7d f0 ff ff    	je     45be <http_parser_execute+0x1cfe>
    5541:	41 0f b6 41 17       	movzx  eax,BYTE PTR [r9+0x17]
    5546:	4d 89 cd             	mov    r13,r9
    5549:	45 89 79 04          	mov    DWORD PTR [r9+0x4],r15d
    554d:	4d 89 d6             	mov    r14,r10
    5550:	bf 39 00 00 00       	mov    edi,0x39
    5555:	83 e0 80             	and    eax,0xffffff80
    5558:	83 c8 1a             	or     eax,0x1a
    555b:	41 88 41 17          	mov    BYTE PTR [r9+0x17],al
    555f:	e9 a0 db ff ff       	jmp    3104 <http_parser_execute+0x844>
    5564:	bf 34 00 00 00       	mov    edi,0x34
    5569:	e9 6d f7 ff ff       	jmp    4cdb <http_parser_execute+0x241b>
    556e:	41 0f b6 41 17       	movzx  eax,BYTE PTR [r9+0x17]
    5573:	41 c7 41 04 00 00 00 	mov    DWORD PTR [r9+0x4],0x0
    557a:	00 
    557b:	83 e0 80             	and    eax,0xffffff80
    557e:	83 c8 0a             	or     eax,0xa
    5581:	41 88 41 17          	mov    BYTE PTR [r9+0x17],al
    5585:	e9 0c ec ff ff       	jmp    4196 <http_parser_execute+0x18d6>
    558a:	41 0f b6 41 17       	movzx  eax,BYTE PTR [r9+0x17]
    558f:	41 c7 41 04 00 00 00 	mov    DWORD PTR [r9+0x4],0x0
    5596:	00 
    5597:	83 e0 80             	and    eax,0xffffff80
    559a:	83 c8 09             	or     eax,0x9
    559d:	41 88 41 17          	mov    BYTE PTR [r9+0x17],al
    55a1:	e9 00 e0 ff ff       	jmp    35a6 <http_parser_execute+0xce6>
    55a6:	89 d0                	mov    eax,edx
    55a8:	66 81 e1 03 fc       	and    cx,0xfc03
    55ad:	83 c8 02             	or     eax,0x2
    55b0:	0f b6 c0             	movzx  eax,al
    55b3:	c1 e0 02             	shl    eax,0x2
    55b6:	09 c8                	or     eax,ecx
    55b8:	66 41 89 01          	mov    WORD PTR [r9],ax
    55bc:	e9 96 ed ff ff       	jmp    4357 <http_parser_execute+0x1a97>
    55c1:	83 c8 20             	or     eax,0x20
    55c4:	bf 32 00 00 00       	mov    edi,0x32
    55c9:	41 88 41 02          	mov    BYTE PTR [r9+0x2],al
    55cd:	e9 4d d8 ff ff       	jmp    2e1f <http_parser_execute+0x55f>
    55d2:	49 83 c2 01          	add    r10,0x1
    55d6:	bf 3d 00 00 00       	mov    edi,0x3d
    55db:	48 c7 45 b8 00 00 00 	mov    QWORD PTR [rbp-0x48],0x0
    55e2:	00 
    55e3:	e9 37 d8 ff ff       	jmp    2e1f <http_parser_execute+0x55f>
    55e8:	41 0f b6 45 17       	movzx  eax,BYTE PTR [r13+0x17]
    55ed:	45 89 7d 04          	mov    DWORD PTR [r13+0x4],r15d
    55f1:	83 e0 80             	and    eax,0xffffff80
    55f4:	83 c8 03             	or     eax,0x3
    55f7:	41 88 45 17          	mov    BYTE PTR [r13+0x17],al
    55fb:	e9 74 d8 ff ff       	jmp    2e74 <http_parser_execute+0x5b4>
    5600:	4d 89 f2             	mov    r10,r14
    5603:	48 c7 45 b8 00 00 00 	mov    QWORD PTR [rbp-0x48],0x0
    560a:	00 
    560b:	e9 4a e2 ff ff       	jmp    385a <http_parser_execute+0xf9a>
    5610:	83 c8 26             	or     eax,0x26
    5613:	bf 32 00 00 00       	mov    edi,0x32
    5618:	41 88 41 02          	mov    BYTE PTR [r9+0x2],al
    561c:	e9 fe d7 ff ff       	jmp    2e1f <http_parser_execute+0x55f>
    5621:	49 83 c2 01          	add    r10,0x1
    5625:	bf 2c 00 00 00       	mov    edi,0x2c
    562a:	e9 f0 d7 ff ff       	jmp    2e1f <http_parser_execute+0x55f>
    562f:	41 0f b6 41 17       	movzx  eax,BYTE PTR [r9+0x17]
    5634:	4d 89 cd             	mov    r13,r9
    5637:	45 89 79 04          	mov    DWORD PTR [r9+0x4],r15d
    563b:	4d 89 d6             	mov    r14,r10
    563e:	bf 03 00 00 00       	mov    edi,0x3
    5643:	83 e0 80             	and    eax,0xffffff80
    5646:	83 c8 1c             	or     eax,0x1c
    5649:	41 88 41 17          	mov    BYTE PTR [r9+0x17],al
    564d:	e9 b2 da ff ff       	jmp    3104 <http_parser_execute+0x844>
    5652:	4d 8d 54 24 01       	lea    r10,[r12+0x1]
    5657:	bf 33 00 00 00       	mov    edi,0x33
    565c:	e9 be d7 ff ff       	jmp    2e1f <http_parser_execute+0x55f>
    5661:	4c 89 f0             	mov    rax,r14
    5664:	48 2b 45 d0          	sub    rax,QWORD PTR [rbp-0x30]
    5668:	e9 5c d3 ff ff       	jmp    29c9 <http_parser_execute+0x109>
    566d:	48 83 f8 ff          	cmp    rax,0xffffffffffffffff
    5671:	0f 84 c6 07 00 00    	je     5e3d <http_parser_execute+0x357d>
    5677:	49 83 c2 01          	add    r10,0x1
    567b:	45 31 ff             	xor    r15d,r15d
    567e:	bf 3e 00 00 00       	mov    edi,0x3e
    5683:	e9 97 d7 ff ff       	jmp    2e1f <http_parser_execute+0x55f>
    5688:	41 0f b6 41 17       	movzx  eax,BYTE PTR [r9+0x17]
    568d:	45 89 79 04          	mov    DWORD PTR [r9+0x4],r15d
    5691:	83 e0 80             	and    eax,0xffffff80
    5694:	83 c8 06             	or     eax,0x6
    5697:	41 88 41 17          	mov    BYTE PTR [r9+0x17],al
    569b:	e9 b2 d6 ff ff       	jmp    2d52 <http_parser_execute+0x492>
    56a0:	41 0f b6 45 17       	movzx  eax,BYTE PTR [r13+0x17]
    56a5:	45 89 7d 04          	mov    DWORD PTR [r13+0x4],r15d
    56a9:	83 e0 80             	and    eax,0xffffff80
    56ac:	83 c8 04             	or     eax,0x4
    56af:	41 88 45 17          	mov    BYTE PTR [r13+0x17],al
    56b3:	e9 14 d8 ff ff       	jmp    2ecc <http_parser_execute+0x60c>
    56b8:	41 0f b6 41 17       	movzx  eax,BYTE PTR [r9+0x17]
    56bd:	45 89 79 04          	mov    DWORD PTR [r9+0x4],r15d
    56c1:	83 e0 80             	and    eax,0xffffff80
    56c4:	83 c8 06             	or     eax,0x6
    56c7:	41 88 41 17          	mov    BYTE PTR [r9+0x17],al
    56cb:	e9 ef d9 ff ff       	jmp    30bf <http_parser_execute+0x7ff>
    56d0:	83 c8 04             	or     eax,0x4
    56d3:	e9 48 f6 ff ff       	jmp    4d20 <http_parser_execute+0x2460>
    56d8:	41 0f b6 45 17       	movzx  eax,BYTE PTR [r13+0x17]
    56dd:	45 89 7d 04          	mov    DWORD PTR [r13+0x4],r15d
    56e1:	83 e0 80             	and    eax,0xffffff80
    56e4:	83 c8 06             	or     eax,0x6
    56e7:	41 88 45 17          	mov    BYTE PTR [r13+0x17],al
    56eb:	e9 8c d8 ff ff       	jmp    2f7c <http_parser_execute+0x6bc>
    56f0:	41 0f b6 45 17       	movzx  eax,BYTE PTR [r13+0x17]
    56f5:	45 89 7d 04          	mov    DWORD PTR [r13+0x4],r15d
    56f9:	83 e0 80             	and    eax,0xffffff80
    56fc:	83 c8 08             	or     eax,0x8
    56ff:	41 88 45 17          	mov    BYTE PTR [r13+0x17],al
    5703:	e9 cc d8 ff ff       	jmp    2fd4 <http_parser_execute+0x714>
    5708:	41 0f b6 45 17       	movzx  eax,BYTE PTR [r13+0x17]
    570d:	45 89 7d 04          	mov    DWORD PTR [r13+0x4],r15d
    5711:	83 e0 80             	and    eax,0xffffff80
    5714:	83 c8 02             	or     eax,0x2
    5717:	41 88 45 17          	mov    BYTE PTR [r13+0x17],al
    571b:	e9 04 d8 ff ff       	jmp    2f24 <http_parser_execute+0x664>
    5720:	41 80 61 03 e0       	and    BYTE PTR [r9+0x3],0xe0
    5725:	4c 89 55 a8          	mov    QWORD PTR [rbp-0x58],r10
    5729:	e9 58 ee ff ff       	jmp    4586 <http_parser_execute+0x1cc6>
    572e:	41 0f b6 41 17       	movzx  eax,BYTE PTR [r9+0x17]
    5733:	45 89 79 04          	mov    DWORD PTR [r9+0x4],r15d
    5737:	83 e0 80             	and    eax,0xffffff80
    573a:	83 c8 04             	or     eax,0x4
    573d:	41 88 41 17          	mov    BYTE PTR [r9+0x17],al
    5741:	e9 71 df ff ff       	jmp    36b7 <http_parser_execute+0xdf7>
    5746:	49 83 c2 01          	add    r10,0x1
    574a:	bf 05 00 00 00       	mov    edi,0x5
    574f:	e9 cb d6 ff ff       	jmp    2e1f <http_parser_execute+0x55f>
    5754:	49 83 c2 01          	add    r10,0x1
    5758:	45 31 ff             	xor    r15d,r15d
    575b:	e9 bf d6 ff ff       	jmp    2e1f <http_parser_execute+0x55f>
    5760:	41 0f b6 41 17       	movzx  eax,BYTE PTR [r9+0x17]
    5765:	41 c7 41 04 00 00 00 	mov    DWORD PTR [r9+0x4],0x0
    576c:	00 
    576d:	83 e0 80             	and    eax,0xffffff80
    5770:	83 c8 07             	or     eax,0x7
    5773:	41 88 41 17          	mov    BYTE PTR [r9+0x17],al
    5777:	e9 b0 e0 ff ff       	jmp    382c <http_parser_execute+0xf6c>
    577c:	41 0f b6 41 17       	movzx  eax,BYTE PTR [r9+0x17]
    5781:	4d 89 cd             	mov    r13,r9
    5784:	45 89 79 04          	mov    DWORD PTR [r9+0x4],r15d
    5788:	83 e7 7f             	and    edi,0x7f
    578b:	83 e0 80             	and    eax,0xffffff80
    578e:	83 c8 0c             	or     eax,0xc
    5791:	41 88 41 17          	mov    BYTE PTR [r9+0x17],al
    5795:	e9 6a d9 ff ff       	jmp    3104 <http_parser_execute+0x844>
    579a:	49 83 c2 01          	add    r10,0x1
    579e:	bf 13 00 00 00       	mov    edi,0x13
    57a3:	e9 77 d6 ff ff       	jmp    2e1f <http_parser_execute+0x55f>
    57a8:	41 0f b6 41 17       	movzx  eax,BYTE PTR [r9+0x17]
    57ad:	4d 89 cd             	mov    r13,r9
    57b0:	45 89 79 04          	mov    DWORD PTR [r9+0x4],r15d
    57b4:	4d 89 d6             	mov    r14,r10
    57b7:	bf 36 00 00 00       	mov    edi,0x36
    57bc:	83 e0 80             	and    eax,0xffffff80
    57bf:	83 c8 19             	or     eax,0x19
    57c2:	41 88 41 17          	mov    BYTE PTR [r9+0x17],al
    57c6:	e9 39 d9 ff ff       	jmp    3104 <http_parser_execute+0x844>
    57cb:	41 0f b6 41 17       	movzx  eax,BYTE PTR [r9+0x17]
    57d0:	45 89 79 04          	mov    DWORD PTR [r9+0x4],r15d
    57d4:	83 e0 80             	and    eax,0xffffff80
    57d7:	83 c8 0a             	or     eax,0xa
    57da:	41 88 41 17          	mov    BYTE PTR [r9+0x17],al
    57de:	e9 cb db ff ff       	jmp    33ae <http_parser_execute+0xaee>
    57e3:	41 0f b6 41 17       	movzx  eax,BYTE PTR [r9+0x17]
    57e8:	45 89 79 04          	mov    DWORD PTR [r9+0x4],r15d
    57ec:	83 e0 80             	and    eax,0xffffff80
    57ef:	83 c8 01             	or     eax,0x1
    57f2:	41 88 41 17          	mov    BYTE PTR [r9+0x17],al
    57f6:	e9 3f d3 ff ff       	jmp    2b3a <http_parser_execute+0x27a>
    57fb:	45 39 e7             	cmp    r15d,r12d
    57fe:	4d 89 d3             	mov    r11,r10
    5801:	4d 89 cd             	mov    r13,r9
    5804:	0f 86 e5 f2 ff ff    	jbe    4aef <http_parser_execute+0x222f>
    580a:	4d 89 de             	mov    r14,r11
    580d:	e9 23 ef ff ff       	jmp    4735 <http_parser_execute+0x1e75>
    5812:	83 c8 28             	or     eax,0x28
    5815:	bf 32 00 00 00       	mov    edi,0x32
    581a:	41 88 41 02          	mov    BYTE PTR [r9+0x2],al
    581e:	e9 fc d5 ff ff       	jmp    2e1f <http_parser_execute+0x55f>
    5823:	4d 89 d6             	mov    r14,r10
    5826:	4c 89 d3             	mov    rbx,r10
    5829:	e9 f5 f2 ff ff       	jmp    4b23 <http_parser_execute+0x2263>
    582e:	4c 8d 53 01          	lea    r10,[rbx+0x1]
    5832:	bf 2e 00 00 00       	mov    edi,0x2e
    5837:	48 c7 45 90 00 00 00 	mov    QWORD PTR [rbp-0x70],0x0
    583e:	00 
    583f:	e9 db d5 ff ff       	jmp    2e1f <http_parser_execute+0x55f>
    5844:	41 0f b6 41 17       	movzx  eax,BYTE PTR [r9+0x17]
    5849:	45 89 79 04          	mov    DWORD PTR [r9+0x4],r15d
    584d:	83 e0 80             	and    eax,0xffffff80
    5850:	83 c8 01             	or     eax,0x1
    5853:	41 88 41 17          	mov    BYTE PTR [r9+0x17],al
    5857:	e9 02 da ff ff       	jmp    325e <http_parser_execute+0x99e>
    585c:	4c 2b 75 d0          	sub    r14,QWORD PTR [rbp-0x30]
    5860:	49 8d 46 01          	lea    rax,[r14+0x1]
    5864:	e9 60 d1 ff ff       	jmp    29c9 <http_parser_execute+0x109>
    5869:	41 0f b6 41 17       	movzx  eax,BYTE PTR [r9+0x17]
    586e:	45 89 79 04          	mov    DWORD PTR [r9+0x4],r15d
    5872:	83 e0 80             	and    eax,0xffffff80
    5875:	83 c8 03             	or     eax,0x3
    5878:	41 88 41 17          	mov    BYTE PTR [r9+0x17],al
    587c:	e9 1d f3 ff ff       	jmp    4b9e <http_parser_execute+0x22de>
    5881:	41 80 fc 0a          	cmp    r12b,0xa
    5885:	0f 84 ac da ff ff    	je     3337 <http_parser_execute+0xa77>
    588b:	41 0f b6 41 17       	movzx  eax,BYTE PTR [r9+0x17]
    5890:	4d 89 cd             	mov    r13,r9
    5893:	45 89 79 04          	mov    DWORD PTR [r9+0x4],r15d
    5897:	4d 89 d6             	mov    r14,r10
    589a:	bf 39 00 00 00       	mov    edi,0x39
    589f:	83 e0 80             	and    eax,0xffffff80
    58a2:	83 c8 1e             	or     eax,0x1e
    58a5:	41 88 41 17          	mov    BYTE PTR [r9+0x17],al
    58a9:	e9 56 d8 ff ff       	jmp    3104 <http_parser_execute+0x844>
    58ae:	41 c6 41 16 0a       	mov    BYTE PTR [r9+0x16],0xa
    58b3:	e9 4f d9 ff ff       	jmp    3207 <http_parser_execute+0x947>
    58b8:	41 81 fc 50 02 05 00 	cmp    r12d,0x50250
    58bf:	0f 85 e4 f7 ff ff    	jne    50a9 <http_parser_execute+0x27e9>
    58c5:	41 c6 41 16 08       	mov    BYTE PTR [r9+0x16],0x8
    58ca:	e9 de db ff ff       	jmp    34ad <http_parser_execute+0xbed>
    58cf:	41 c6 41 16 14       	mov    BYTE PTR [r9+0x16],0x14
    58d4:	e9 2e d9 ff ff       	jmp    3207 <http_parser_execute+0x947>
    58d9:	41 c6 41 16 19       	mov    BYTE PTR [r9+0x16],0x19
    58de:	e9 24 d9 ff ff       	jmp    3207 <http_parser_execute+0x947>
    58e3:	41 c6 41 16 06       	mov    BYTE PTR [r9+0x16],0x6
    58e8:	e9 1a d9 ff ff       	jmp    3207 <http_parser_execute+0x947>
    58ed:	41 81 fc 41 02 0a 00 	cmp    r12d,0xa0241
    58f4:	0f 85 af f7 ff ff    	jne    50a9 <http_parser_execute+0x27e9>
    58fa:	41 c6 41 16 15       	mov    BYTE PTR [r9+0x16],0x15
    58ff:	e9 a9 db ff ff       	jmp    34ad <http_parser_execute+0xbed>
    5904:	41 81 fc 49 03 0f 00 	cmp    r12d,0xf0349
    590b:	0f 85 98 f7 ff ff    	jne    50a9 <http_parser_execute+0x27e9>
    5911:	41 c6 41 16 20       	mov    BYTE PTR [r9+0x16],0x20
    5916:	e9 92 db ff ff       	jmp    34ad <http_parser_execute+0xbed>
    591b:	83 c8 2a             	or     eax,0x2a
    591e:	bf 32 00 00 00       	mov    edi,0x32
    5923:	41 88 41 02          	mov    BYTE PTR [r9+0x2],al
    5927:	e9 f3 d4 ff ff       	jmp    2e1f <http_parser_execute+0x55f>
    592c:	41 c6 41 16 10       	mov    BYTE PTR [r9+0x16],0x10
    5931:	e9 d1 d8 ff ff       	jmp    3207 <http_parser_execute+0x947>
    5936:	41 c6 41 16 05       	mov    BYTE PTR [r9+0x16],0x5
    593b:	e9 c7 d8 ff ff       	jmp    3207 <http_parser_execute+0x947>
    5940:	41 81 fc 41 01 03 00 	cmp    r12d,0x30141
    5947:	0f 85 5c f7 ff ff    	jne    50a9 <http_parser_execute+0x27e9>
    594d:	41 c6 41 16 1c       	mov    BYTE PTR [r9+0x16],0x1c
    5952:	e9 56 db ff ff       	jmp    34ad <http_parser_execute+0xbed>
    5957:	41 c6 41 16 02       	mov    BYTE PTR [r9+0x16],0x2
    595c:	e9 a6 d8 ff ff       	jmp    3207 <http_parser_execute+0x947>
    5961:	41 c6 41 16 01       	mov    BYTE PTR [r9+0x16],0x1
    5966:	e9 9c d8 ff ff       	jmp    3207 <http_parser_execute+0x947>
    596b:	41 c6 41 16 09       	mov    BYTE PTR [r9+0x16],0x9
    5970:	e9 92 d8 ff ff       	jmp    3207 <http_parser_execute+0x947>
    5975:	41 c6 41 16 1a       	mov    BYTE PTR [r9+0x16],0x1a
    597a:	e9 88 d8 ff ff       	jmp    3207 <http_parser_execute+0x947>
    597f:	41 c6 41 16 07       	mov    BYTE PTR [r9+0x16],0x7
    5984:	e9 7e d8 ff ff       	jmp    3207 <http_parser_execute+0x947>
    5989:	48 8b 45 c8          	mov    rax,QWORD PTR [rbp-0x38]
    598d:	48 83 38 00          	cmp    QWORD PTR [rax],0x0
    5991:	0f 84 c8 08 00 00    	je     625f <http_parser_execute+0x399f>
    5997:	4c 89 9d 70 ff ff ff 	mov    QWORD PTR [rbp-0x90],r11
    599e:	4c 89 95 78 ff ff ff 	mov    QWORD PTR [rbp-0x88],r10
    59a5:	4c 89 cf             	mov    rdi,r9
    59a8:	41 8b 01             	mov    eax,DWORD PTR [r9]
    59ab:	25 ff 03 fe ff       	and    eax,0xfffe03ff
    59b0:	80 cc 0c             	or     ah,0xc
    59b3:	41 89 01             	mov    DWORD PTR [r9],eax
    59b6:	48 8b 45 c8          	mov    rax,QWORD PTR [rbp-0x38]
    59ba:	4c 89 4d b0          	mov    QWORD PTR [rbp-0x50],r9
    59be:	48 8b 00             	mov    rax,QWORD PTR [rax]
    59c1:	e8 00 00 00 00       	call   59c6 <http_parser_execute+0x3106>
    59c6:	85 c0                	test   eax,eax
    59c8:	4c 8b 4d b0          	mov    r9,QWORD PTR [rbp-0x50]
    59cc:	4c 8b 95 78 ff ff ff 	mov    r10,QWORD PTR [rbp-0x88]
    59d3:	4c 8b 9d 70 ff ff ff 	mov    r11,QWORD PTR [rbp-0x90]
    59da:	0f 85 67 08 00 00    	jne    6247 <http_parser_execute+0x3987>
    59e0:	41 0f b6 41 17       	movzx  eax,BYTE PTR [r9+0x17]
    59e5:	41 8b 39             	mov    edi,DWORD PTR [r9]
    59e8:	c1 ef 0a             	shr    edi,0xa
    59eb:	83 e7 7f             	and    edi,0x7f
    59ee:	a8 7f                	test   al,0x7f
    59f0:	88 45 b0             	mov    BYTE PTR [rbp-0x50],al
    59f3:	0f 85 ff ea ff ff    	jne    44f8 <http_parser_execute+0x1c38>
    59f9:	49 83 c2 01          	add    r10,0x1
    59fd:	e9 1d d4 ff ff       	jmp    2e1f <http_parser_execute+0x55f>
    5a02:	41 0f b6 41 17       	movzx  eax,BYTE PTR [r9+0x17]
    5a07:	4d 89 cd             	mov    r13,r9
    5a0a:	45 89 79 04          	mov    DWORD PTR [r9+0x4],r15d
    5a0e:	4d 89 d6             	mov    r14,r10
    5a11:	bf 3d 00 00 00       	mov    edi,0x3d
    5a16:	83 e0 80             	and    eax,0xffffff80
    5a19:	83 c8 1e             	or     eax,0x1e
    5a1c:	41 88 41 17          	mov    BYTE PTR [r9+0x17],al
    5a20:	e9 df d6 ff ff       	jmp    3104 <http_parser_execute+0x844>
    5a25:	41 c6 41 16 1b       	mov    BYTE PTR [r9+0x16],0x1b
    5a2a:	e9 7e da ff ff       	jmp    34ad <http_parser_execute+0xbed>
    5a2f:	41 c6 41 16 18       	mov    BYTE PTR [r9+0x16],0x18
    5a34:	e9 74 da ff ff       	jmp    34ad <http_parser_execute+0xbed>
    5a39:	41 c6 41 16 1f       	mov    BYTE PTR [r9+0x16],0x1f
    5a3e:	e9 6a da ff ff       	jmp    34ad <http_parser_execute+0xbed>
    5a43:	49 83 c2 01          	add    r10,0x1
    5a47:	bf 11 00 00 00       	mov    edi,0x11
    5a4c:	48 c7 45 a0 00 00 00 	mov    QWORD PTR [rbp-0x60],0x0
    5a53:	00 
    5a54:	e9 c6 d3 ff ff       	jmp    2e1f <http_parser_execute+0x55f>
    5a59:	41 c6 41 16 16       	mov    BYTE PTR [r9+0x16],0x16
    5a5e:	e9 4a da ff ff       	jmp    34ad <http_parser_execute+0xbed>
    5a63:	41 80 fc 20          	cmp    r12b,0x20
    5a67:	0f 84 b7 07 00 00    	je     6224 <http_parser_execute+0x3964>
    5a6d:	45 0f b6 e4          	movzx  r12d,r12b
    5a71:	41 0f b6 84 24 00 00 	movzx  eax,BYTE PTR [r12+0x0]
    5a78:	00 00 
    5a7a:	84 c0                	test   al,al
    5a7c:	0f 84 a2 07 00 00    	je     6224 <http_parser_execute+0x3964>
    5a82:	48 8b 75 90          	mov    rsi,QWORD PTR [rbp-0x70]
    5a86:	48 85 f6             	test   rsi,rsi
    5a89:	49 0f 44 f2          	cmove  rsi,r10
    5a8d:	41 80 61 03 e0       	and    BYTE PTR [r9+0x3],0xe0
    5a92:	49 83 c2 01          	add    r10,0x1
    5a96:	3c 70                	cmp    al,0x70
    5a98:	48 89 75 90          	mov    QWORD PTR [rbp-0x70],rsi
    5a9c:	0f 84 48 06 00 00    	je     60ea <http_parser_execute+0x382a>
    5aa2:	0f 8e 74 06 00 00    	jle    611c <http_parser_execute+0x385c>
    5aa8:	3c 74                	cmp    al,0x74
    5aaa:	0f 84 53 06 00 00    	je     6103 <http_parser_execute+0x3843>
    5ab0:	3c 75                	cmp    al,0x75
    5ab2:	0f 85 00 06 00 00    	jne    60b8 <http_parser_execute+0x37f8>
    5ab8:	41 0f b6 41 02       	movzx  eax,BYTE PTR [r9+0x2]
    5abd:	bf 2d 00 00 00       	mov    edi,0x2d
    5ac2:	83 e0 01             	and    eax,0x1
    5ac5:	83 c8 10             	or     eax,0x10
    5ac8:	41 88 41 02          	mov    BYTE PTR [r9+0x2],al
    5acc:	e9 4e d3 ff ff       	jmp    2e1f <http_parser_execute+0x55f>
    5ad1:	49 83 c2 01          	add    r10,0x1
    5ad5:	bf 39 00 00 00       	mov    edi,0x39
    5ada:	e9 40 d3 ff ff       	jmp    2e1f <http_parser_execute+0x55f>
    5adf:	41 0f b6 41 17       	movzx  eax,BYTE PTR [r9+0x17]
    5ae4:	4d 89 cd             	mov    r13,r9
    5ae7:	45 89 79 04          	mov    DWORD PTR [r9+0x4],r15d
    5aeb:	4d 89 d6             	mov    r14,r10
    5aee:	bf 21 00 00 00       	mov    edi,0x21
    5af3:	83 e0 80             	and    eax,0xffffff80
    5af6:	83 c8 1e             	or     eax,0x1e
    5af9:	41 88 41 17          	mov    BYTE PTR [r9+0x17],al
    5afd:	e9 02 d6 ff ff       	jmp    3104 <http_parser_execute+0x844>
    5b02:	41 0f b6 41 17       	movzx  eax,BYTE PTR [r9+0x17]
    5b07:	4d 89 cd             	mov    r13,r9
    5b0a:	45 89 79 04          	mov    DWORD PTR [r9+0x4],r15d
    5b0e:	4d 89 d6             	mov    r14,r10
    5b11:	bf 08 00 00 00       	mov    edi,0x8
    5b16:	83 e0 80             	and    eax,0xffffff80
    5b19:	83 c8 1e             	or     eax,0x1e
    5b1c:	41 88 41 17          	mov    BYTE PTR [r9+0x17],al
    5b20:	e9 df d5 ff ff       	jmp    3104 <http_parser_execute+0x844>
    5b25:	41 0f b6 41 17       	movzx  eax,BYTE PTR [r9+0x17]
    5b2a:	4d 89 cd             	mov    r13,r9
    5b2d:	45 89 79 04          	mov    DWORD PTR [r9+0x4],r15d
    5b31:	4d 89 d6             	mov    r14,r10
    5b34:	bf 06 00 00 00       	mov    edi,0x6
    5b39:	83 e0 80             	and    eax,0xffffff80
    5b3c:	83 c8 1e             	or     eax,0x1e
    5b3f:	41 88 41 17          	mov    BYTE PTR [r9+0x17],al
    5b43:	e9 bc d5 ff ff       	jmp    3104 <http_parser_execute+0x844>
    5b48:	41 0f b6 41 17       	movzx  eax,BYTE PTR [r9+0x17]
    5b4d:	4d 89 cd             	mov    r13,r9
    5b50:	45 89 79 04          	mov    DWORD PTR [r9+0x4],r15d
    5b54:	4d 89 d6             	mov    r14,r10
    5b57:	bf 26 00 00 00       	mov    edi,0x26
    5b5c:	83 e0 80             	and    eax,0xffffff80
    5b5f:	83 c8 1e             	or     eax,0x1e
    5b62:	41 88 41 17          	mov    BYTE PTR [r9+0x17],al
    5b66:	e9 99 d5 ff ff       	jmp    3104 <http_parser_execute+0x844>
    5b6b:	41 0f b6 41 17       	movzx  eax,BYTE PTR [r9+0x17]
    5b70:	4d 89 cd             	mov    r13,r9
    5b73:	45 89 79 04          	mov    DWORD PTR [r9+0x4],r15d
    5b77:	4d 89 d6             	mov    r14,r10
    5b7a:	bf 3a 00 00 00       	mov    edi,0x3a
    5b7f:	83 e0 80             	and    eax,0xffffff80
    5b82:	83 c8 1e             	or     eax,0x1e
    5b85:	41 88 41 17          	mov    BYTE PTR [r9+0x17],al
    5b89:	e9 76 d5 ff ff       	jmp    3104 <http_parser_execute+0x844>
    5b8e:	41 0f b6 41 17       	movzx  eax,BYTE PTR [r9+0x17]
    5b93:	4d 89 cd             	mov    r13,r9
    5b96:	45 89 79 04          	mov    DWORD PTR [r9+0x4],r15d
    5b9a:	4d 89 d6             	mov    r14,r10
    5b9d:	bf 38 00 00 00       	mov    edi,0x38
    5ba2:	83 e0 80             	and    eax,0xffffff80
    5ba5:	83 c8 1e             	or     eax,0x1e
    5ba8:	41 88 41 17          	mov    BYTE PTR [r9+0x17],al
    5bac:	e9 53 d5 ff ff       	jmp    3104 <http_parser_execute+0x844>
    5bb1:	41 0f b6 41 17       	movzx  eax,BYTE PTR [r9+0x17]
    5bb6:	4d 89 cd             	mov    r13,r9
    5bb9:	45 89 79 04          	mov    DWORD PTR [r9+0x4],r15d
    5bbd:	4d 89 d6             	mov    r14,r10
    5bc0:	bf 11 00 00 00       	mov    edi,0x11
    5bc5:	83 e0 80             	and    eax,0xffffff80
    5bc8:	83 c8 1e             	or     eax,0x1e
    5bcb:	41 88 41 17          	mov    BYTE PTR [r9+0x17],al
    5bcf:	e9 30 d5 ff ff       	jmp    3104 <http_parser_execute+0x844>
    5bd4:	41 0f b6 41 17       	movzx  eax,BYTE PTR [r9+0x17]
    5bd9:	4d 89 cd             	mov    r13,r9
    5bdc:	45 89 79 04          	mov    DWORD PTR [r9+0x4],r15d
    5be0:	4d 89 d6             	mov    r14,r10
    5be3:	bf 07 00 00 00       	mov    edi,0x7
    5be8:	83 e0 80             	and    eax,0xffffff80
    5beb:	83 c8 1e             	or     eax,0x1e
    5bee:	41 88 41 17          	mov    BYTE PTR [r9+0x17],al
    5bf2:	e9 0d d5 ff ff       	jmp    3104 <http_parser_execute+0x844>
    5bf7:	49 83 c2 01          	add    r10,0x1
    5bfb:	48 c7 45 98 00 00 00 	mov    QWORD PTR [rbp-0x68],0x0
    5c02:	00 
    5c03:	e9 17 d2 ff ff       	jmp    2e1f <http_parser_execute+0x55f>
    5c08:	49 83 c2 01          	add    r10,0x1
    5c0c:	bf 10 00 00 00       	mov    edi,0x10
    5c11:	e9 09 d2 ff ff       	jmp    2e1f <http_parser_execute+0x55f>
    5c16:	41 0f b6 41 17       	movzx  eax,BYTE PTR [r9+0x17]
    5c1b:	4d 89 cd             	mov    r13,r9
    5c1e:	45 89 79 04          	mov    DWORD PTR [r9+0x4],r15d
    5c22:	4d 89 d6             	mov    r14,r10
    5c25:	bf 05 00 00 00       	mov    edi,0x5
    5c2a:	83 e0 80             	and    eax,0xffffff80
    5c2d:	83 c8 1e             	or     eax,0x1e
    5c30:	41 88 41 17          	mov    BYTE PTR [r9+0x17],al
    5c34:	e9 cb d4 ff ff       	jmp    3104 <http_parser_execute+0x844>
    5c39:	41 0f b6 41 17       	movzx  eax,BYTE PTR [r9+0x17]
    5c3e:	4d 89 cd             	mov    r13,r9
    5c41:	45 89 79 04          	mov    DWORD PTR [r9+0x4],r15d
    5c45:	4d 89 d6             	mov    r14,r10
    5c48:	bf 22 00 00 00       	mov    edi,0x22
    5c4d:	83 e0 80             	and    eax,0xffffff80
    5c50:	83 c8 1e             	or     eax,0x1e
    5c53:	41 88 41 17          	mov    BYTE PTR [r9+0x17],al
    5c57:	e9 a8 d4 ff ff       	jmp    3104 <http_parser_execute+0x844>
    5c5c:	41 0f b6 41 17       	movzx  eax,BYTE PTR [r9+0x17]
    5c61:	45 89 79 04          	mov    DWORD PTR [r9+0x4],r15d
    5c65:	83 e0 80             	and    eax,0xffffff80
    5c68:	83 c8 02             	or     eax,0x2
    5c6b:	41 88 41 17          	mov    BYTE PTR [r9+0x17],al
    5c6f:	e9 ea ec ff ff       	jmp    495e <http_parser_execute+0x209e>
    5c74:	41 0f b6 41 17       	movzx  eax,BYTE PTR [r9+0x17]
    5c79:	4d 89 cd             	mov    r13,r9
    5c7c:	45 89 79 04          	mov    DWORD PTR [r9+0x4],r15d
    5c80:	4d 89 d6             	mov    r14,r10
    5c83:	bf 24 00 00 00       	mov    edi,0x24
    5c88:	83 e0 80             	and    eax,0xffffff80
    5c8b:	83 c8 1e             	or     eax,0x1e
    5c8e:	41 88 41 17          	mov    BYTE PTR [r9+0x17],al
    5c92:	e9 6d d4 ff ff       	jmp    3104 <http_parser_execute+0x844>
    5c97:	41 0f b6 41 17       	movzx  eax,BYTE PTR [r9+0x17]
    5c9c:	4d 89 cd             	mov    r13,r9
    5c9f:	45 89 79 04          	mov    DWORD PTR [r9+0x4],r15d
    5ca3:	4d 89 d6             	mov    r14,r10
    5ca6:	bf 25 00 00 00       	mov    edi,0x25
    5cab:	83 e0 80             	and    eax,0xffffff80
    5cae:	83 c8 1e             	or     eax,0x1e
    5cb1:	41 88 41 17          	mov    BYTE PTR [r9+0x17],al
    5cb5:	e9 4a d4 ff ff       	jmp    3104 <http_parser_execute+0x844>
    5cba:	8b 35 00 00 00 00    	mov    esi,DWORD PTR [rip+0x0]        # 5cc0 <http_parser_execute+0x3400>
    5cc0:	89 b5 78 ff ff ff    	mov    DWORD PTR [rbp-0x88],esi
    5cc6:	e9 89 e3 ff ff       	jmp    4054 <http_parser_execute+0x1794>
    5ccb:	49 83 c2 01          	add    r10,0x1
    5ccf:	e9 4b d1 ff ff       	jmp    2e1f <http_parser_execute+0x55f>
    5cd4:	41 c6 41 16 04       	mov    BYTE PTR [r9+0x16],0x4
    5cd9:	e9 cf d7 ff ff       	jmp    34ad <http_parser_execute+0xbed>
    5cde:	41 0f b6 41 17       	movzx  eax,BYTE PTR [r9+0x17]
    5ce3:	4d 89 cd             	mov    r13,r9
    5ce6:	45 89 79 04          	mov    DWORD PTR [r9+0x4],r15d
    5cea:	4d 89 d6             	mov    r14,r10
    5ced:	bf 2f 00 00 00       	mov    edi,0x2f
    5cf2:	83 e0 80             	and    eax,0xffffff80
    5cf5:	83 c8 1e             	or     eax,0x1e
    5cf8:	41 88 41 17          	mov    BYTE PTR [r9+0x17],al
    5cfc:	e9 03 d4 ff ff       	jmp    3104 <http_parser_execute+0x844>
    5d01:	41 c6 41 16 0c       	mov    BYTE PTR [r9+0x16],0xc
    5d06:	e9 a2 d7 ff ff       	jmp    34ad <http_parser_execute+0xbed>
    5d0b:	41 0f b6 41 17       	movzx  eax,BYTE PTR [r9+0x17]
    5d10:	4d 89 cd             	mov    r13,r9
    5d13:	45 89 79 04          	mov    DWORD PTR [r9+0x4],r15d
    5d17:	bf 34 00 00 00       	mov    edi,0x34
    5d1c:	83 e0 80             	and    eax,0xffffff80
    5d1f:	83 c8 0c             	or     eax,0xc
    5d22:	41 88 41 17          	mov    BYTE PTR [r9+0x17],al
    5d26:	e9 d9 d3 ff ff       	jmp    3104 <http_parser_execute+0x844>
    5d2b:	41 c6 41 16 1e       	mov    BYTE PTR [r9+0x16],0x1e
    5d30:	e9 78 d7 ff ff       	jmp    34ad <http_parser_execute+0xbed>
    5d35:	41 c6 41 16 11       	mov    BYTE PTR [r9+0x16],0x11
    5d3a:	e9 6e d7 ff ff       	jmp    34ad <http_parser_execute+0xbed>
    5d3f:	49 83 c2 01          	add    r10,0x1
    5d43:	bf 2e 00 00 00       	mov    edi,0x2e
    5d48:	e9 d2 d0 ff ff       	jmp    2e1f <http_parser_execute+0x55f>
    5d4d:	41 c6 41 16 0e       	mov    BYTE PTR [r9+0x16],0xe
    5d52:	e9 56 d7 ff ff       	jmp    34ad <http_parser_execute+0xbed>
    5d57:	49 83 c2 01          	add    r10,0x1
    5d5b:	bf 20 00 00 00       	mov    edi,0x20
    5d60:	48 c7 45 98 00 00 00 	mov    QWORD PTR [rbp-0x68],0x0
    5d67:	00 
    5d68:	e9 b2 d0 ff ff       	jmp    2e1f <http_parser_execute+0x55f>
    5d6d:	41 c6 41 16 0b       	mov    BYTE PTR [r9+0x16],0xb
    5d72:	e9 36 d7 ff ff       	jmp    34ad <http_parser_execute+0xbed>
    5d77:	41 0f b6 41 17       	movzx  eax,BYTE PTR [r9+0x17]
    5d7c:	45 89 79 04          	mov    DWORD PTR [r9+0x4],r15d
    5d80:	83 e0 80             	and    eax,0xffffff80
    5d83:	83 c8 08             	or     eax,0x8
    5d86:	41 88 41 17          	mov    BYTE PTR [r9+0x17],al
    5d8a:	e9 12 eb ff ff       	jmp    48a1 <http_parser_execute+0x1fe1>
    5d8f:	41 c6 41 16 0d       	mov    BYTE PTR [r9+0x16],0xd
    5d94:	e9 14 d7 ff ff       	jmp    34ad <http_parser_execute+0xbed>
    5d99:	41 0f b6 41 17       	movzx  eax,BYTE PTR [r9+0x17]
    5d9e:	4d 89 cd             	mov    r13,r9
    5da1:	45 89 79 04          	mov    DWORD PTR [r9+0x4],r15d
    5da5:	4d 89 d6             	mov    r14,r10
    5da8:	bf 32 00 00 00       	mov    edi,0x32
    5dad:	83 e0 80             	and    eax,0xffffff80
    5db0:	83 c8 19             	or     eax,0x19
    5db3:	41 88 41 17          	mov    BYTE PTR [r9+0x17],al
    5db7:	e9 48 d3 ff ff       	jmp    3104 <http_parser_execute+0x844>
    5dbc:	66 41 6b 41 14 0a    	imul   ax,WORD PTR [r9+0x14],0xa
    5dc2:	42 8d 44 20 d0       	lea    eax,[rax+r12*1-0x30]
    5dc7:	66 3d e7 03          	cmp    ax,0x3e7
    5dcb:	66 41 89 41 14       	mov    WORD PTR [r9+0x14],ax
    5dd0:	0f 87 32 e3 ff ff    	ja     4108 <http_parser_execute+0x1848>
    5dd6:	49 83 c2 01          	add    r10,0x1
    5dda:	e9 40 d0 ff ff       	jmp    2e1f <http_parser_execute+0x55f>
    5ddf:	41 0f b6 41 17       	movzx  eax,BYTE PTR [r9+0x17]
    5de4:	45 89 79 04          	mov    DWORD PTR [r9+0x4],r15d
    5de8:	83 e0 80             	and    eax,0xffffff80
    5deb:	83 c8 02             	or     eax,0x2
    5dee:	41 88 41 17          	mov    BYTE PTR [r9+0x17],al
    5df2:	e9 19 ec ff ff       	jmp    4a10 <http_parser_execute+0x2150>
    5df7:	41 0f b6 41 17       	movzx  eax,BYTE PTR [r9+0x17]
    5dfc:	4d 89 cd             	mov    r13,r9
    5dff:	45 89 79 04          	mov    DWORD PTR [r9+0x4],r15d
    5e03:	4d 89 d6             	mov    r14,r10
    5e06:	bf 23 00 00 00       	mov    edi,0x23
    5e0b:	83 e0 80             	and    eax,0xffffff80
    5e0e:	83 c8 1e             	or     eax,0x1e
    5e11:	41 88 41 17          	mov    BYTE PTR [r9+0x17],al
    5e15:	e9 ea d2 ff ff       	jmp    3104 <http_parser_execute+0x844>
    5e1a:	41 0f b6 41 17       	movzx  eax,BYTE PTR [r9+0x17]
    5e1f:	4d 89 cd             	mov    r13,r9
    5e22:	45 89 79 04          	mov    DWORD PTR [r9+0x4],r15d
    5e26:	4d 89 d6             	mov    r14,r10
    5e29:	bf 3c 00 00 00       	mov    edi,0x3c
    5e2e:	83 e0 80             	and    eax,0xffffff80
    5e31:	83 c8 1e             	or     eax,0x1e
    5e34:	41 88 41 17          	mov    BYTE PTR [r9+0x17],al
    5e38:	e9 c7 d2 ff ff       	jmp    3104 <http_parser_execute+0x844>
    5e3d:	4c 89 cf             	mov    rdi,r9
    5e40:	4c 89 9d 68 ff ff ff 	mov    QWORD PTR [rbp-0x98],r11
    5e47:	4c 89 95 70 ff ff ff 	mov    QWORD PTR [rbp-0x90],r10
    5e4e:	4c 89 8d 78 ff ff ff 	mov    QWORD PTR [rbp-0x88],r9
    5e55:	e8 00 00 00 00       	call   5e5a <http_parser_execute+0x359a>
    5e5a:	85 c0                	test   eax,eax
    5e5c:	4c 8b 8d 78 ff ff ff 	mov    r9,QWORD PTR [rbp-0x88]
    5e63:	4c 8b 95 70 ff ff ff 	mov    r10,QWORD PTR [rbp-0x90]
    5e6a:	4c 8b 9d 68 ff ff ff 	mov    r11,QWORD PTR [rbp-0x98]
    5e71:	0f 84 4b 01 00 00    	je     5fc2 <http_parser_execute+0x3702>
    5e77:	49 83 c2 01          	add    r10,0x1
    5e7b:	45 31 ff             	xor    r15d,r15d
    5e7e:	bf 3f 00 00 00       	mov    edi,0x3f
    5e83:	e9 97 cf ff ff       	jmp    2e1f <http_parser_execute+0x55f>
    5e88:	89 f8                	mov    eax,edi
    5e8a:	4d 89 d3             	mov    r11,r10
    5e8d:	4d 89 cd             	mov    r13,r9
    5e90:	83 e0 7f             	and    eax,0x7f
    5e93:	45 89 79 04          	mov    DWORD PTR [r9+0x4],r15d
    5e97:	c1 e0 0a             	shl    eax,0xa
    5e9a:	89 c2                	mov    edx,eax
    5e9c:	41 8b 01             	mov    eax,DWORD PTR [r9]
    5e9f:	25 ff 03 fe ff       	and    eax,0xfffe03ff
    5ea4:	e9 5c e9 ff ff       	jmp    4805 <http_parser_execute+0x1f45>
    5ea9:	4d 89 e5             	mov    r13,r12
    5eac:	4c 2b 6d d0          	sub    r13,QWORD PTR [rbp-0x30]
    5eb0:	49 8d 45 01          	lea    rax,[r13+0x1]
    5eb4:	e9 10 cb ff ff       	jmp    29c9 <http_parser_execute+0x109>
    5eb9:	49 83 c2 01          	add    r10,0x1
    5ebd:	bf 2c 00 00 00       	mov    edi,0x2c
    5ec2:	48 c7 45 a0 00 00 00 	mov    QWORD PTR [rbp-0x60],0x0
    5ec9:	00 
    5eca:	e9 50 cf ff ff       	jmp    2e1f <http_parser_execute+0x55f>
    5ecf:	41 0f b6 41 17       	movzx  eax,BYTE PTR [r9+0x17]
    5ed4:	45 89 79 04          	mov    DWORD PTR [r9+0x4],r15d
    5ed8:	83 e0 80             	and    eax,0xffffff80
    5edb:	83 c8 04             	or     eax,0x4
    5ede:	41 88 41 17          	mov    BYTE PTR [r9+0x17],al
    5ee2:	e9 d6 ed ff ff       	jmp    4cbd <http_parser_execute+0x23fd>
    5ee7:	41 80 fc 0d          	cmp    r12b,0xd
    5eeb:	74 0a                	je     5ef7 <http_parser_execute+0x3637>
    5eed:	41 80 fc 0a          	cmp    r12b,0xa
    5ef1:	0f 85 14 03 00 00    	jne    620b <http_parser_execute+0x394b>
    5ef7:	49 83 c2 01          	add    r10,0x1
    5efb:	e9 1f cf ff ff       	jmp    2e1f <http_parser_execute+0x55f>
    5f00:	4d 8d 54 24 01       	lea    r10,[r12+0x1]
    5f05:	bf 33 00 00 00       	mov    edi,0x33
    5f0a:	48 c7 45 a8 00 00 00 	mov    QWORD PTR [rbp-0x58],0x0
    5f11:	00 
    5f12:	e9 08 cf ff ff       	jmp    2e1f <http_parser_execute+0x55f>
    5f17:	49 01 d2             	add    r10,rdx
    5f1a:	e9 00 cf ff ff       	jmp    2e1f <http_parser_execute+0x55f>
    5f1f:	41 0f b6 41 17       	movzx  eax,BYTE PTR [r9+0x17]
    5f24:	45 89 79 04          	mov    DWORD PTR [r9+0x4],r15d
    5f28:	83 e0 80             	and    eax,0xffffff80
    5f2b:	83 c8 08             	or     eax,0x8
    5f2e:	41 88 41 17          	mov    BYTE PTR [r9+0x17],al
    5f32:	e9 ad ef ff ff       	jmp    4ee4 <http_parser_execute+0x2624>
    5f37:	4c 89 e0             	mov    rax,r12
    5f3a:	48 2b 45 d0          	sub    rax,QWORD PTR [rbp-0x30]
    5f3e:	e9 86 ca ff ff       	jmp    29c9 <http_parser_execute+0x109>
    5f43:	41 0f b6 41 17       	movzx  eax,BYTE PTR [r9+0x17]
    5f48:	4d 89 cd             	mov    r13,r9
    5f4b:	45 89 79 04          	mov    DWORD PTR [r9+0x4],r15d
    5f4f:	4d 89 d6             	mov    r14,r10
    5f52:	bf 04 00 00 00       	mov    edi,0x4
    5f57:	83 e0 80             	and    eax,0xffffff80
    5f5a:	83 c8 1c             	or     eax,0x1c
    5f5d:	41 88 41 17          	mov    BYTE PTR [r9+0x17],al
    5f61:	e9 9e d1 ff ff       	jmp    3104 <http_parser_execute+0x844>
    5f66:	41 0f b6 41 17       	movzx  eax,BYTE PTR [r9+0x17]
    5f6b:	45 89 79 04          	mov    DWORD PTR [r9+0x4],r15d
    5f6f:	83 e0 80             	and    eax,0xffffff80
    5f72:	83 c8 04             	or     eax,0x4
    5f75:	41 88 41 17          	mov    BYTE PTR [r9+0x17],al
    5f79:	e9 61 ee ff ff       	jmp    4ddf <http_parser_execute+0x251f>
    5f7e:	41 0f b6 41 17       	movzx  eax,BYTE PTR [r9+0x17]
    5f83:	4d 89 cd             	mov    r13,r9
    5f86:	45 89 79 04          	mov    DWORD PTR [r9+0x4],r15d
    5f8a:	83 e7 7f             	and    edi,0x7f
    5f8d:	4d 89 d6             	mov    r14,r10
    5f90:	83 e0 80             	and    eax,0xffffff80
    5f93:	83 c8 11             	or     eax,0x11
    5f96:	41 88 41 17          	mov    BYTE PTR [r9+0x17],al
    5f9a:	e9 65 d1 ff ff       	jmp    3104 <http_parser_execute+0x844>
    5f9f:	41 0f b6 41 17       	movzx  eax,BYTE PTR [r9+0x17]
    5fa4:	4d 89 cd             	mov    r13,r9
    5fa7:	45 89 79 04          	mov    DWORD PTR [r9+0x4],r15d
    5fab:	4d 89 d6             	mov    r14,r10
    5fae:	bf 0d 00 00 00       	mov    edi,0xd
    5fb3:	83 e0 80             	and    eax,0xffffff80
    5fb6:	83 c8 0f             	or     eax,0xf
    5fb9:	41 88 41 17          	mov    BYTE PTR [r9+0x17],al
    5fbd:	e9 42 d1 ff ff       	jmp    3104 <http_parser_execute+0x844>
    5fc2:	4c 89 cf             	mov    rdi,r9
    5fc5:	4c 89 9d 68 ff ff ff 	mov    QWORD PTR [rbp-0x98],r11
    5fcc:	4c 89 95 70 ff ff ff 	mov    QWORD PTR [rbp-0x90],r10
    5fd3:	4c 89 8d 78 ff ff ff 	mov    QWORD PTR [rbp-0x88],r9
    5fda:	e8 00 00 00 00       	call   5fdf <http_parser_execute+0x371f>
    5fdf:	85 c0                	test   eax,eax
    5fe1:	bf 01 00 00 00       	mov    edi,0x1
    5fe6:	4c 8b 8d 78 ff ff ff 	mov    r9,QWORD PTR [rbp-0x88]
    5fed:	4c 8b 95 70 ff ff ff 	mov    r10,QWORD PTR [rbp-0x90]
    5ff4:	4c 8b 9d 68 ff ff ff 	mov    r11,QWORD PTR [rbp-0x98]
    5ffb:	74 11                	je     600e <http_parser_execute+0x374e>
    5ffd:	41 0f b6 01          	movzx  eax,BYTE PTR [r9]
    6001:	83 e0 03             	and    eax,0x3
    6004:	3c 01                	cmp    al,0x1
    6006:	19 ff                	sbb    edi,edi
    6008:	83 e7 0e             	and    edi,0xe
    600b:	83 c7 04             	add    edi,0x4
    600e:	48 8b 45 c8          	mov    rax,QWORD PTR [rbp-0x38]
    6012:	48 83 78 38 00       	cmp    QWORD PTR [rax+0x38],0x0
    6017:	0f 84 8b 01 00 00    	je     61a8 <http_parser_execute+0x38e8>
    601d:	89 f8                	mov    eax,edi
    601f:	4c 89 9d 70 ff ff ff 	mov    QWORD PTR [rbp-0x90],r11
    6026:	4c 89 95 78 ff ff ff 	mov    QWORD PTR [rbp-0x88],r10
    602d:	83 e0 7f             	and    eax,0x7f
    6030:	4c 89 cf             	mov    rdi,r9
    6033:	c1 e0 0a             	shl    eax,0xa
    6036:	89 c2                	mov    edx,eax
    6038:	41 8b 01             	mov    eax,DWORD PTR [r9]
    603b:	25 ff 03 fe ff       	and    eax,0xfffe03ff
    6040:	09 d0                	or     eax,edx
    6042:	41 89 01             	mov    DWORD PTR [r9],eax
    6045:	48 8b 45 c8          	mov    rax,QWORD PTR [rbp-0x38]
    6049:	4c 89 4d b0          	mov    QWORD PTR [rbp-0x50],r9
    604d:	48 8b 40 38          	mov    rax,QWORD PTR [rax+0x38]
    6051:	e8 00 00 00 00       	call   6056 <http_parser_execute+0x3796>
    6056:	85 c0                	test   eax,eax
    6058:	4c 8b 4d b0          	mov    r9,QWORD PTR [rbp-0x50]
    605c:	4c 8b 95 78 ff ff ff 	mov    r10,QWORD PTR [rbp-0x88]
    6063:	4c 8b 9d 70 ff ff ff 	mov    r11,QWORD PTR [rbp-0x90]
    606a:	0f 85 1c 01 00 00    	jne    618c <http_parser_execute+0x38cc>
    6070:	41 0f b6 41 17       	movzx  eax,BYTE PTR [r9+0x17]
    6075:	41 8b 39             	mov    edi,DWORD PTR [r9]
    6078:	c1 ef 0a             	shr    edi,0xa
    607b:	83 e7 7f             	and    edi,0x7f
    607e:	a8 7f                	test   al,0x7f
    6080:	88 45 b0             	mov    BYTE PTR [rbp-0x50],al
    6083:	0f 85 6f e4 ff ff    	jne    44f8 <http_parser_execute+0x1c38>
    6089:	49 83 c2 01          	add    r10,0x1
    608d:	45 31 ff             	xor    r15d,r15d
    6090:	e9 8a cd ff ff       	jmp    2e1f <http_parser_execute+0x55f>
    6095:	41 0f b6 41 17       	movzx  eax,BYTE PTR [r9+0x17]
    609a:	4d 89 cd             	mov    r13,r9
    609d:	45 89 79 04          	mov    DWORD PTR [r9+0x4],r15d
    60a1:	4d 89 d6             	mov    r14,r10
    60a4:	bf 2a 00 00 00       	mov    edi,0x2a
    60a9:	83 e0 80             	and    eax,0xffffff80
    60ac:	83 c8 0e             	or     eax,0xe
    60af:	41 88 41 17          	mov    BYTE PTR [r9+0x17],al
    60b3:	e9 4c d0 ff ff       	jmp    3104 <http_parser_execute+0x844>
    60b8:	41 80 61 02 01       	and    BYTE PTR [r9+0x2],0x1
    60bd:	bf 2d 00 00 00       	mov    edi,0x2d
    60c2:	e9 58 cd ff ff       	jmp    2e1f <http_parser_execute+0x55f>
    60c7:	41 0f b6 41 17       	movzx  eax,BYTE PTR [r9+0x17]
    60cc:	4d 89 cd             	mov    r13,r9
    60cf:	45 89 79 04          	mov    DWORD PTR [r9+0x4],r15d
    60d3:	4d 89 d6             	mov    r14,r10
    60d6:	bf 32 00 00 00       	mov    edi,0x32
    60db:	83 e0 80             	and    eax,0xffffff80
    60de:	83 c8 1a             	or     eax,0x1a
    60e1:	41 88 41 17          	mov    BYTE PTR [r9+0x17],al
    60e5:	e9 1a d0 ff ff       	jmp    3104 <http_parser_execute+0x844>
    60ea:	41 0f b6 41 02       	movzx  eax,BYTE PTR [r9+0x2]
    60ef:	bf 2d 00 00 00       	mov    edi,0x2d
    60f4:	83 e0 01             	and    eax,0x1
    60f7:	83 c8 0a             	or     eax,0xa
    60fa:	41 88 41 02          	mov    BYTE PTR [r9+0x2],al
    60fe:	e9 1c cd ff ff       	jmp    2e1f <http_parser_execute+0x55f>
    6103:	41 0f b6 41 02       	movzx  eax,BYTE PTR [r9+0x2]
    6108:	bf 2d 00 00 00       	mov    edi,0x2d
    610d:	83 e0 01             	and    eax,0x1
    6110:	83 c8 0e             	or     eax,0xe
    6113:	41 88 41 02          	mov    BYTE PTR [r9+0x2],al
    6117:	e9 03 cd ff ff       	jmp    2e1f <http_parser_execute+0x55f>
    611c:	3c 63                	cmp    al,0x63
    611e:	75 98                	jne    60b8 <http_parser_execute+0x37f8>
    6120:	41 0f b6 41 02       	movzx  eax,BYTE PTR [r9+0x2]
    6125:	bf 2d 00 00 00       	mov    edi,0x2d
    612a:	83 e0 01             	and    eax,0x1
    612d:	83 c8 02             	or     eax,0x2
    6130:	41 88 41 02          	mov    BYTE PTR [r9+0x2],al
    6134:	e9 e6 cc ff ff       	jmp    2e1f <http_parser_execute+0x55f>
    6139:	49 01 d2             	add    r10,rdx
    613c:	e9 de cc ff ff       	jmp    2e1f <http_parser_execute+0x55f>
    6141:	41 0f b6 41 17       	movzx  eax,BYTE PTR [r9+0x17]
    6146:	4d 89 cd             	mov    r13,r9
    6149:	45 89 79 04          	mov    DWORD PTR [r9+0x4],r15d
    614d:	4d 89 d6             	mov    r14,r10
    6150:	bf 36 00 00 00       	mov    edi,0x36
    6155:	83 e0 80             	and    eax,0xffffff80
    6158:	83 c8 1b             	or     eax,0x1b
    615b:	41 88 41 17          	mov    BYTE PTR [r9+0x17],al
    615f:	e9 a0 cf ff ff       	jmp    3104 <http_parser_execute+0x844>
    6164:	41 0f b6 41 17       	movzx  eax,BYTE PTR [r9+0x17]
    6169:	41 c7 41 04 00 00 00 	mov    DWORD PTR [r9+0x4],0x0
    6170:	00 
    6171:	83 e0 80             	and    eax,0xffffff80
    6174:	83 c8 07             	or     eax,0x7
    6177:	41 88 41 17          	mov    BYTE PTR [r9+0x17],al
    617b:	e9 8c f0 ff ff       	jmp    520c <http_parser_execute+0x294c>
    6180:	49 83 c2 01          	add    r10,0x1
    6184:	45 31 ff             	xor    r15d,r15d
    6187:	e9 93 cc ff ff       	jmp    2e1f <http_parser_execute+0x55f>
    618c:	41 0f b6 41 17       	movzx  eax,BYTE PTR [r9+0x17]
    6191:	41 c7 41 04 00 00 00 	mov    DWORD PTR [r9+0x4],0x0
    6198:	00 
    6199:	83 e0 80             	and    eax,0xffffff80
    619c:	83 c8 07             	or     eax,0x7
    619f:	41 88 41 17          	mov    BYTE PTR [r9+0x17],al
    61a3:	e9 c8 fe ff ff       	jmp    6070 <http_parser_execute+0x37b0>
    61a8:	49 83 c2 01          	add    r10,0x1
    61ac:	45 31 ff             	xor    r15d,r15d
    61af:	e9 6b cc ff ff       	jmp    2e1f <http_parser_execute+0x55f>
    61b4:	41 0f b6 45 17       	movzx  eax,BYTE PTR [r13+0x17]
    61b9:	41 c7 45 04 00 00 00 	mov    DWORD PTR [r13+0x4],0x0
    61c0:	00 
    61c1:	83 e0 80             	and    eax,0xffffff80
    61c4:	83 c8 07             	or     eax,0x7
    61c7:	41 88 45 17          	mov    BYTE PTR [r13+0x17],al
    61cb:	e9 06 e6 ff ff       	jmp    47d6 <http_parser_execute+0x1f16>
    61d0:	48 c7 45 90 00 00 00 	mov    QWORD PTR [rbp-0x70],0x0
    61d7:	00 
    61d8:	48 c7 45 a8 00 00 00 	mov    QWORD PTR [rbp-0x58],0x0
    61df:	00 
    61e0:	48 c7 45 a0 00 00 00 	mov    QWORD PTR [rbp-0x60],0x0
    61e7:	00 
    61e8:	48 c7 45 98 00 00 00 	mov    QWORD PTR [rbp-0x68],0x0
    61ef:	00 
    61f0:	e9 03 c8 ff ff       	jmp    29f8 <http_parser_execute+0x138>
    61f5:	41 0f b6 41 17       	movzx  eax,BYTE PTR [r9+0x17]
    61fa:	4d 89 d3             	mov    r11,r10
    61fd:	4d 89 cd             	mov    r13,r9
    6200:	83 e0 80             	and    eax,0xffffff80
    6203:	83 c8 21             	or     eax,0x21
    6206:	e9 46 e4 ff ff       	jmp    4651 <http_parser_execute+0x1d91>
    620b:	41 0f b6 41 03       	movzx  eax,BYTE PTR [r9+0x3]
    6210:	e9 7f cf ff ff       	jmp    3194 <http_parser_execute+0x8d4>
    6215:	4d 89 cd             	mov    r13,r9
    6218:	4c 89 b5 78 ff ff ff 	mov    QWORD PTR [rbp-0x88],r14
    621f:	e9 cb e8 ff ff       	jmp    4aef <http_parser_execute+0x222f>
    6224:	41 0f b6 41 17       	movzx  eax,BYTE PTR [r9+0x17]
    6229:	4d 89 cd             	mov    r13,r9
    622c:	45 89 79 04          	mov    DWORD PTR [r9+0x4],r15d
    6230:	4d 89 d6             	mov    r14,r10
    6233:	bf 2c 00 00 00       	mov    edi,0x2c
    6238:	83 e0 80             	and    eax,0xffffff80
    623b:	83 c8 18             	or     eax,0x18
    623e:	41 88 41 17          	mov    BYTE PTR [r9+0x17],al
    6242:	e9 bd ce ff ff       	jmp    3104 <http_parser_execute+0x844>
    6247:	41 0f b6 41 17       	movzx  eax,BYTE PTR [r9+0x17]
    624c:	45 89 79 04          	mov    DWORD PTR [r9+0x4],r15d
    6250:	83 e0 80             	and    eax,0xffffff80
    6253:	83 c8 01             	or     eax,0x1
    6256:	41 88 41 17          	mov    BYTE PTR [r9+0x17],al
    625a:	e9 81 f7 ff ff       	jmp    59e0 <http_parser_execute+0x3120>
    625f:	49 83 c2 01          	add    r10,0x1
    6263:	bf 03 00 00 00       	mov    edi,0x3
    6268:	e9 b2 cb ff ff       	jmp    2e1f <http_parser_execute+0x55f>
    626d:	0f 1f 00             	nop    DWORD PTR [rax]

0000000000006270 <http_method_str>:
    6270:	e8 00 00 00 00       	call   6275 <http_method_str+0x5>
    6275:	55                   	push   rbp
    6276:	83 ff 21             	cmp    edi,0x21
    6279:	48 c7 c0 00 00 00 00 	mov    rax,0x0
    6280:	48 89 e5             	mov    rbp,rsp
    6283:	77 0a                	ja     628f <http_method_str+0x1f>
    6285:	89 ff                	mov    edi,edi
    6287:	48 8b 04 fd 00 00 00 	mov    rax,QWORD PTR [rdi*8+0x0]
    628e:	00 
    628f:	5d                   	pop    rbp
    6290:	c3                   	ret    
    6291:	0f 1f 44 00 00       	nop    DWORD PTR [rax+rax*1+0x0]
    6296:	66 2e 0f 1f 84 00 00 	nop    WORD PTR cs:[rax+rax*1+0x0]
    629d:	00 00 00 

00000000000062a0 <http_status_str>:
    62a0:	e8 00 00 00 00       	call   62a5 <http_status_str+0x5>
    62a5:	55                   	push   rbp
    62a6:	83 ef 64             	sub    edi,0x64
    62a9:	48 c7 c0 00 00 00 00 	mov    rax,0x0
    62b0:	81 ff 9b 01 00 00    	cmp    edi,0x19b
    62b6:	48 89 e5             	mov    rbp,rsp
    62b9:	77 08                	ja     62c3 <http_status_str+0x23>
    62bb:	48 8b 04 fd 00 00 00 	mov    rax,QWORD PTR [rdi*8+0x0]
    62c2:	00 
    62c3:	5d                   	pop    rbp
    62c4:	c3                   	ret    
    62c5:	90                   	nop
    62c6:	66 2e 0f 1f 84 00 00 	nop    WORD PTR cs:[rax+rax*1+0x0]
    62cd:	00 00 00 

00000000000062d0 <http_parser_init>:
    62d0:	e8 00 00 00 00       	call   62d5 <http_parser_init+0x5>
    62d5:	55                   	push   rbp
    62d6:	89 f0                	mov    eax,esi
    62d8:	48 c7 07 00 00 00 00 	mov    QWORD PTR [rdi],0x0
    62df:	83 e0 03             	and    eax,0x3
    62e2:	85 f6                	test   esi,esi
    62e4:	48 c7 47 08 00 00 00 	mov    QWORD PTR [rdi+0x8],0x0
    62eb:	00 
    62ec:	48 89 e5             	mov    rbp,rsp
    62ef:	88 07                	mov    BYTE PTR [rdi],al
    62f1:	48 c7 47 10 00 00 00 	mov    QWORD PTR [rdi+0x10],0x0
    62f8:	00 
    62f9:	b8 12 00 00 00       	mov    eax,0x12
    62fe:	74 0a                	je     630a <http_parser_init+0x3a>
    6300:	83 fe 01             	cmp    esi,0x1
    6303:	0f 94 c0             	sete   al
    6306:	8d 44 00 02          	lea    eax,[rax+rax*1+0x2]
    630a:	8b 17                	mov    edx,DWORD PTR [rdi]
    630c:	0f b6 c0             	movzx  eax,al
    630f:	80 67 17 80          	and    BYTE PTR [rdi+0x17],0x80
    6313:	c1 e0 0a             	shl    eax,0xa
    6316:	5d                   	pop    rbp
    6317:	81 e2 ff 03 fe ff    	and    edx,0xfffe03ff
    631d:	09 d0                	or     eax,edx
    631f:	89 07                	mov    DWORD PTR [rdi],eax
    6321:	c3                   	ret    
    6322:	0f 1f 40 00          	nop    DWORD PTR [rax+0x0]
    6326:	66 2e 0f 1f 84 00 00 	nop    WORD PTR cs:[rax+rax*1+0x0]
    632d:	00 00 00 

0000000000006330 <http_parser_settings_init>:
    6330:	e8 00 00 00 00       	call   6335 <http_parser_settings_init+0x5>
    6335:	55                   	push   rbp
    6336:	48 89 f9             	mov    rcx,rdi
    6339:	48 c7 07 00 00 00 00 	mov    QWORD PTR [rdi],0x0
    6340:	48 c7 47 48 00 00 00 	mov    QWORD PTR [rdi+0x48],0x0
    6347:	00 
    6348:	48 8d 7f 08          	lea    rdi,[rdi+0x8]
    634c:	31 c0                	xor    eax,eax
    634e:	48 89 e5             	mov    rbp,rsp
    6351:	48 83 e7 f8          	and    rdi,0xfffffffffffffff8
    6355:	48 29 f9             	sub    rcx,rdi
    6358:	83 c1 50             	add    ecx,0x50
    635b:	c1 e9 03             	shr    ecx,0x3
    635e:	f3 48 ab             	rep stos QWORD PTR es:[rdi],rax
    6361:	5d                   	pop    rbp
    6362:	c3                   	ret    
    6363:	0f 1f 00             	nop    DWORD PTR [rax]
    6366:	66 2e 0f 1f 84 00 00 	nop    WORD PTR cs:[rax+rax*1+0x0]
    636d:	00 00 00 

0000000000006370 <http_errno_name>:
    6370:	e8 00 00 00 00       	call   6375 <http_errno_name+0x5>
    6375:	55                   	push   rbp
    6376:	89 ff                	mov    edi,edi
    6378:	48 c1 e7 04          	shl    rdi,0x4
    637c:	48 89 e5             	mov    rbp,rsp
    637f:	48 8b 87 00 00 00 00 	mov    rax,QWORD PTR [rdi+0x0]
    6386:	5d                   	pop    rbp
    6387:	c3                   	ret    
    6388:	0f 1f 84 00 00 00 00 	nop    DWORD PTR [rax+rax*1+0x0]
    638f:	00 

0000000000006390 <http_errno_description>:
    6390:	e8 00 00 00 00       	call   6395 <http_errno_description+0x5>
    6395:	55                   	push   rbp
    6396:	89 ff                	mov    edi,edi
    6398:	48 c1 e7 04          	shl    rdi,0x4
    639c:	48 89 e5             	mov    rbp,rsp
    639f:	48 8b 87 00 00 00 00 	mov    rax,QWORD PTR [rdi+0x0]
    63a6:	5d                   	pop    rbp
    63a7:	c3                   	ret    
    63a8:	0f 1f 84 00 00 00 00 	nop    DWORD PTR [rax+rax*1+0x0]
    63af:	00 

00000000000063b0 <http_parser_url_init>:
    63b0:	e8 00 00 00 00       	call   63b5 <http_parser_url_init+0x5>
    63b5:	55                   	push   rbp
    63b6:	48 c7 07 00 00 00 00 	mov    QWORD PTR [rdi],0x0
    63bd:	48 c7 47 08 00 00 00 	mov    QWORD PTR [rdi+0x8],0x0
    63c4:	00 
    63c5:	48 c7 47 10 00 00 00 	mov    QWORD PTR [rdi+0x10],0x0
    63cc:	00 
    63cd:	48 89 e5             	mov    rbp,rsp
    63d0:	48 c7 47 18 00 00 00 	mov    QWORD PTR [rdi+0x18],0x0
    63d7:	00 
    63d8:	5d                   	pop    rbp
    63d9:	c3                   	ret    
    63da:	66 0f 1f 44 00 00    	nop    WORD PTR [rax+rax*1+0x0]

00000000000063e0 <http_parser_parse_url>:
    63e0:	e8 00 00 00 00       	call   63e5 <http_parser_parse_url+0x5>
    63e5:	48 85 f6             	test   rsi,rsi
    63e8:	0f 84 5f 02 00 00    	je     664d <http_parser_parse_url+0x26d>
    63ee:	55                   	push   rbp
    63ef:	48 89 e5             	mov    rbp,rsp
    63f2:	41 57                	push   r15
    63f4:	41 56                	push   r14
    63f6:	41 55                	push   r13
    63f8:	41 54                	push   r12
    63fa:	49 89 ce             	mov    r14,rcx
    63fd:	53                   	push   rbx
    63fe:	48 8d 1c 37          	lea    rbx,[rdi+rsi*1]
    6402:	49 89 fc             	mov    r12,rdi
    6405:	49 89 ff             	mov    r15,rdi
    6408:	41 bd 07 00 00 00    	mov    r13d,0x7
    640e:	48 83 ec 08          	sub    rsp,0x8
    6412:	83 fa 01             	cmp    edx,0x1
    6415:	89 55 d0             	mov    DWORD PTR [rbp-0x30],edx
    6418:	19 c0                	sbb    eax,eax
    641a:	c7 01 00 00 00 00    	mov    DWORD PTR [rcx],0x0
    6420:	c7 45 d4 00 00 00 00 	mov    DWORD PTR [rbp-0x2c],0x0
    6427:	83 e0 fc             	and    eax,0xfffffffc
    642a:	83 c0 18             	add    eax,0x18
    642d:	48 39 df             	cmp    rdi,rbx
    6430:	0f 83 ac 02 00 00    	jae    66e2 <http_parser_parse_url+0x302>
    6436:	41 0f be 37          	movsx  esi,BYTE PTR [r15]
    643a:	89 c7                	mov    edi,eax
    643c:	e8 2f c1 ff ff       	call   2570 <parse_url_char>
    6441:	83 f8 1a             	cmp    eax,0x1a
    6444:	0f 84 f2 01 00 00    	je     663c <http_parser_parse_url+0x25c>
    644a:	0f 86 93 01 00 00    	jbe    65e3 <http_parser_parse_url+0x203>
    6450:	83 f8 1d             	cmp    eax,0x1d
    6453:	0f 84 d9 01 00 00    	je     6632 <http_parser_parse_url+0x252>
    6459:	0f 87 b1 01 00 00    	ja     6610 <http_parser_parse_url+0x230>
    645f:	83 f8 1b             	cmp    eax,0x1b
    6462:	b9 03 00 00 00       	mov    ecx,0x3
    6467:	0f 85 e6 01 00 00    	jne    6653 <http_parser_parse_url+0x273>
    646d:	44 39 e9             	cmp    ecx,r13d
    6470:	0f 84 8b 01 00 00    	je     6601 <http_parser_parse_url+0x221>
    6476:	89 ce                	mov    esi,ecx
    6478:	44 89 ff             	mov    edi,r15d
    647b:	41 b8 01 00 00 00    	mov    r8d,0x1
    6481:	49 8d 34 b6          	lea    rsi,[r14+rsi*4]
    6485:	44 29 e7             	sub    edi,r12d
    6488:	41 89 cd             	mov    r13d,ecx
    648b:	66 89 7e 04          	mov    WORD PTR [rsi+0x4],di
    648f:	66 44 89 46 06       	mov    WORD PTR [rsi+0x6],r8w
    6494:	be 01 00 00 00       	mov    esi,0x1
    6499:	d3 e6                	shl    esi,cl
    649b:	66 41 09 36          	or     WORD PTR [r14],si
    649f:	49 83 c7 01          	add    r15,0x1
    64a3:	49 39 df             	cmp    r15,rbx
    64a6:	75 8e                	jne    6436 <http_parser_parse_url+0x56>
    64a8:	41 0f b7 06          	movzx  eax,WORD PTR [r14]
    64ac:	89 c2                	mov    edx,eax
    64ae:	83 e2 03             	and    edx,0x3
    64b1:	66 83 fa 01          	cmp    dx,0x1
    64b5:	0f 84 14 01 00 00    	je     65cf <http_parser_parse_url+0x1ef>
    64bb:	a8 02                	test   al,0x2
    64bd:	0f 84 a2 01 00 00    	je     6665 <http_parser_parse_url+0x285>
    64c3:	41 0f b7 4e 08       	movzx  ecx,WORD PTR [r14+0x8]
    64c8:	41 0f b7 56 0a       	movzx  edx,WORD PTR [r14+0xa]
    64cd:	31 f6                	xor    esi,esi
    64cf:	8b 7d d4             	mov    edi,DWORD PTR [rbp-0x2c]
    64d2:	66 41 89 76 0a       	mov    WORD PTR [r14+0xa],si
    64d7:	01 ca                	add    edx,ecx
    64d9:	48 89 c8             	mov    rax,rcx
    64dc:	48 63 d2             	movsxd rdx,edx
    64df:	4c 01 e0             	add    rax,r12
    64e2:	4c 01 e2             	add    rdx,r12
    64e5:	85 ff                	test   edi,edi
    64e7:	0f 85 15 02 00 00    	jne    6702 <http_parser_parse_url+0x322>
    64ed:	48 39 d0             	cmp    rax,rdx
    64f0:	0f 83 d9 00 00 00    	jae    65cf <http_parser_parse_url+0x1ef>
    64f6:	0f b6 08             	movzx  ecx,BYTE PTR [rax]
    64f9:	80 f9 5b             	cmp    cl,0x5b
    64fc:	0f 84 a4 02 00 00    	je     67a6 <http_parser_parse_url+0x3c6>
    6502:	89 ce                	mov    esi,ecx
    6504:	83 ce 20             	or     esi,0x20
    6507:	83 ee 61             	sub    esi,0x61
    650a:	40 80 fe 19          	cmp    sil,0x19
    650e:	76 15                	jbe    6525 <http_parser_parse_url+0x145>
    6510:	8d 71 d0             	lea    esi,[rcx-0x30]
    6513:	40 80 fe 09          	cmp    sil,0x9
    6517:	76 0c                	jbe    6525 <http_parser_parse_url+0x145>
    6519:	83 e9 2d             	sub    ecx,0x2d
    651c:	80 f9 01             	cmp    cl,0x1
    651f:	0f 87 aa 00 00 00    	ja     65cf <http_parser_parse_url+0x1ef>
    6525:	48 89 c1             	mov    rcx,rax
    6528:	4c 29 e1             	sub    rcx,r12
    652b:	66 41 89 4e 08       	mov    WORD PTR [r14+0x8],cx
    6530:	31 c9                	xor    ecx,ecx
    6532:	4c 8d 48 01          	lea    r9,[rax+0x1]
    6536:	83 c1 01             	add    ecx,0x1
    6539:	66 41 89 4e 0a       	mov    WORD PTR [r14+0xa],cx
    653e:	4c 39 ca             	cmp    rdx,r9
    6541:	0f 86 1a 01 00 00    	jbe    6661 <http_parser_parse_url+0x281>
    6547:	0f b6 78 01          	movzx  edi,BYTE PTR [rax+0x1]
    654b:	89 fe                	mov    esi,edi
    654d:	83 ce 20             	or     esi,0x20
    6550:	83 ee 61             	sub    esi,0x61
    6553:	40 80 fe 19          	cmp    sil,0x19
    6557:	0f 86 28 02 00 00    	jbe    6785 <http_parser_parse_url+0x3a5>
    655d:	8d 77 d0             	lea    esi,[rdi-0x30]
    6560:	40 80 fe 09          	cmp    sil,0x9
    6564:	0f 86 1b 02 00 00    	jbe    6785 <http_parser_parse_url+0x3a5>
    656a:	8d 77 d3             	lea    esi,[rdi-0x2d]
    656d:	40 80 fe 01          	cmp    sil,0x1
    6571:	0f 86 0e 02 00 00    	jbe    6785 <http_parser_parse_url+0x3a5>
    6577:	40 80 ff 3a          	cmp    dil,0x3a
    657b:	75 52                	jne    65cf <http_parser_parse_url+0x1ef>
    657d:	48 8d 48 02          	lea    rcx,[rax+0x2]
    6581:	48 39 ca             	cmp    rdx,rcx
    6584:	76 49                	jbe    65cf <http_parser_parse_url+0x1ef>
    6586:	0f b6 40 02          	movzx  eax,BYTE PTR [rax+0x2]
    658a:	be 0b 00 00 00       	mov    esi,0xb
    658f:	eb 37                	jmp    65c8 <http_parser_parse_url+0x1e8>
    6591:	83 fe 0c             	cmp    esi,0xc
    6594:	0f 84 f3 01 00 00    	je     678d <http_parser_parse_url+0x3ad>
    659a:	66 41 83 0e 04       	or     WORD PTR [r14],0x4
    659f:	89 c8                	mov    eax,ecx
    65a1:	44 29 e0             	sub    eax,r12d
    65a4:	66 41 89 46 0c       	mov    WORD PTR [r14+0xc],ax
    65a9:	b8 01 00 00 00       	mov    eax,0x1
    65ae:	48 83 c1 01          	add    rcx,0x1
    65b2:	66 41 89 46 0e       	mov    WORD PTR [r14+0xe],ax
    65b7:	48 39 ca             	cmp    rdx,rcx
    65ba:	0f 86 a1 00 00 00    	jbe    6661 <http_parser_parse_url+0x281>
    65c0:	0f b6 01             	movzx  eax,BYTE PTR [rcx]
    65c3:	be 0c 00 00 00       	mov    esi,0xc
    65c8:	83 e8 30             	sub    eax,0x30
    65cb:	3c 09                	cmp    al,0x9
    65cd:	76 c2                	jbe    6591 <http_parser_parse_url+0x1b1>
    65cf:	b8 01 00 00 00       	mov    eax,0x1
    65d4:	48 83 c4 08          	add    rsp,0x8
    65d8:	5b                   	pop    rbx
    65d9:	41 5c                	pop    r12
    65db:	41 5d                	pop    r13
    65dd:	41 5e                	pop    r14
    65df:	41 5f                	pop    r15
    65e1:	5d                   	pop    rbp
    65e2:	c3                   	ret    
    65e3:	83 f8 18             	cmp    eax,0x18
    65e6:	77 40                	ja     6628 <http_parser_parse_url+0x248>
    65e8:	83 f8 16             	cmp    eax,0x16
    65eb:	0f 83 ae fe ff ff    	jae    649f <http_parser_parse_url+0xbf>
    65f1:	83 f8 15             	cmp    eax,0x15
    65f4:	75 d9                	jne    65cf <http_parser_parse_url+0x1ef>
    65f6:	31 c9                	xor    ecx,ecx
    65f8:	44 39 e9             	cmp    ecx,r13d
    65fb:	0f 85 75 fe ff ff    	jne    6476 <http_parser_parse_url+0x96>
    6601:	44 89 e9             	mov    ecx,r13d
    6604:	66 41 83 44 8e 06 01 	add    WORD PTR [r14+rcx*4+0x6],0x1
    660b:	e9 8f fe ff ff       	jmp    649f <http_parser_parse_url+0xbf>
    6610:	83 f8 1e             	cmp    eax,0x1e
    6613:	0f 84 86 fe ff ff    	je     649f <http_parser_parse_url+0xbf>
    6619:	83 f8 1f             	cmp    eax,0x1f
    661c:	75 b1                	jne    65cf <http_parser_parse_url+0x1ef>
    661e:	b9 05 00 00 00       	mov    ecx,0x5
    6623:	e9 45 fe ff ff       	jmp    646d <http_parser_parse_url+0x8d>
    6628:	b9 01 00 00 00       	mov    ecx,0x1
    662d:	e9 3b fe ff ff       	jmp    646d <http_parser_parse_url+0x8d>
    6632:	b9 04 00 00 00       	mov    ecx,0x4
    6637:	e9 31 fe ff ff       	jmp    646d <http_parser_parse_url+0x8d>
    663c:	c7 45 d4 01 00 00 00 	mov    DWORD PTR [rbp-0x2c],0x1
    6643:	b9 01 00 00 00       	mov    ecx,0x1
    6648:	e9 20 fe ff ff       	jmp    646d <http_parser_parse_url+0x8d>
    664d:	b8 01 00 00 00       	mov    eax,0x1
    6652:	c3                   	ret    
    6653:	83 f8 1c             	cmp    eax,0x1c
    6656:	0f 84 43 fe ff ff    	je     649f <http_parser_parse_url+0xbf>
    665c:	e9 6e ff ff ff       	jmp    65cf <http_parser_parse_url+0x1ef>
    6661:	41 0f b7 06          	movzx  eax,WORD PTR [r14]
    6665:	8b 4d d0             	mov    ecx,DWORD PTR [rbp-0x30]
    6668:	89 c2                	mov    edx,eax
    666a:	85 c9                	test   ecx,ecx
    666c:	0f 84 80 00 00 00    	je     66f2 <http_parser_parse_url+0x312>
    6672:	66 83 f8 06          	cmp    ax,0x6
    6676:	0f 85 53 ff ff ff    	jne    65cf <http_parser_parse_url+0x1ef>
    667c:	41 0f b7 46 0c       	movzx  eax,WORD PTR [r14+0xc]
    6681:	41 0f b7 56 0e       	movzx  edx,WORD PTR [r14+0xe]
    6686:	48 01 c2             	add    rdx,rax
    6689:	4c 01 e2             	add    rdx,r12
    668c:	49 01 c4             	add    r12,rax
    668f:	4c 39 e2             	cmp    rdx,r12
    6692:	0f 86 f6 02 00 00    	jbe    698e <http_parser_parse_url+0x5ae>
    6698:	41 0f be 04 24       	movsx  eax,BYTE PTR [r12]
    669d:	83 e8 30             	sub    eax,0x30
    66a0:	48 98                	cdqe   
    66a2:	48 3d ff ff 00 00    	cmp    rax,0xffff
    66a8:	76 23                	jbe    66cd <http_parser_parse_url+0x2ed>
    66aa:	e9 20 ff ff ff       	jmp    65cf <http_parser_parse_url+0x1ef>
    66af:	48 8d 0c 80          	lea    rcx,[rax+rax*4]
    66b3:	41 0f be 04 24       	movsx  eax,BYTE PTR [r12]
    66b8:	83 e8 30             	sub    eax,0x30
    66bb:	48 98                	cdqe   
    66bd:	48 8d 04 48          	lea    rax,[rax+rcx*2]
    66c1:	48 3d ff ff 00 00    	cmp    rax,0xffff
    66c7:	0f 87 02 ff ff ff    	ja     65cf <http_parser_parse_url+0x1ef>
    66cd:	49 83 c4 01          	add    r12,0x1
    66d1:	4c 39 e2             	cmp    rdx,r12
    66d4:	75 d9                	jne    66af <http_parser_parse_url+0x2cf>
    66d6:	66 41 89 46 02       	mov    WORD PTR [r14+0x2],ax
    66db:	31 c0                	xor    eax,eax
    66dd:	e9 f2 fe ff ff       	jmp    65d4 <http_parser_parse_url+0x1f4>
    66e2:	44 8b 4d d0          	mov    r9d,DWORD PTR [rbp-0x30]
    66e6:	0f b7 11             	movzx  edx,WORD PTR [rcx]
    66e9:	45 85 c9             	test   r9d,r9d
    66ec:	0f 85 dd fe ff ff    	jne    65cf <http_parser_parse_url+0x1ef>
    66f2:	31 c0                	xor    eax,eax
    66f4:	83 e2 04             	and    edx,0x4
    66f7:	0f 84 d7 fe ff ff    	je     65d4 <http_parser_parse_url+0x1f4>
    66fd:	e9 7a ff ff ff       	jmp    667c <http_parser_parse_url+0x29c>
    6702:	48 39 d0             	cmp    rax,rdx
    6705:	0f 83 c4 fe ff ff    	jae    65cf <http_parser_parse_url+0x1ef>
    670b:	0f b6 08             	movzx  ecx,BYTE PTR [rax]
    670e:	be 02 00 00 00       	mov    esi,0x2
    6713:	49 b9 f9 bf ff 17 00 	movabs r9,0x4000000017ffbff9
    671a:	00 00 40 
    671d:	eb 2e                	jmp    674d <http_parser_parse_url+0x36d>
    671f:	66 41 83 0e 40       	or     WORD PTR [r14],0x40
    6724:	89 c1                	mov    ecx,eax
    6726:	44 29 e1             	sub    ecx,r12d
    6729:	66 41 89 4e 1c       	mov    WORD PTR [r14+0x1c],cx
    672e:	b9 01 00 00 00       	mov    ecx,0x1
    6733:	48 83 c0 01          	add    rax,0x1
    6737:	66 41 89 4e 1e       	mov    WORD PTR [r14+0x1e],cx
    673c:	48 39 c2             	cmp    rdx,rax
    673f:	0f 84 8a fe ff ff    	je     65cf <http_parser_parse_url+0x1ef>
    6745:	0f b6 08             	movzx  ecx,BYTE PTR [rax]
    6748:	be 03 00 00 00       	mov    esi,0x3
    674d:	80 f9 40             	cmp    cl,0x40
    6750:	0f 84 17 02 00 00    	je     696d <http_parser_parse_url+0x58d>
    6756:	89 cf                	mov    edi,ecx
    6758:	83 cf 20             	or     edi,0x20
    675b:	83 ef 61             	sub    edi,0x61
    675e:	40 80 ff 19          	cmp    dil,0x19
    6762:	76 12                	jbe    6776 <http_parser_parse_url+0x396>
    6764:	8d 79 df             	lea    edi,[rcx-0x21]
    6767:	40 80 ff 3e          	cmp    dil,0x3e
    676b:	76 2d                	jbe    679a <http_parser_parse_url+0x3ba>
    676d:	80 f9 7e             	cmp    cl,0x7e
    6770:	0f 85 59 fe ff ff    	jne    65cf <http_parser_parse_url+0x1ef>
    6776:	83 fe 03             	cmp    esi,0x3
    6779:	75 a4                	jne    671f <http_parser_parse_url+0x33f>
    677b:	41 0f b7 5e 1e       	movzx  ebx,WORD PTR [r14+0x1e]
    6780:	8d 4b 01             	lea    ecx,[rbx+0x1]
    6783:	eb ae                	jmp    6733 <http_parser_parse_url+0x353>
    6785:	4c 89 c8             	mov    rax,r9
    6788:	e9 a5 fd ff ff       	jmp    6532 <http_parser_parse_url+0x152>
    678d:	41 0f b7 46 0e       	movzx  eax,WORD PTR [r14+0xe]
    6792:	83 c0 01             	add    eax,0x1
    6795:	e9 14 fe ff ff       	jmp    65ae <http_parser_parse_url+0x1ce>
    679a:	49 0f a3 f9          	bt     r9,rdi
    679e:	0f 83 2b fe ff ff    	jae    65cf <http_parser_parse_url+0x1ef>
    67a4:	eb d0                	jmp    6776 <http_parser_parse_url+0x396>
    67a6:	48 8d 48 01          	lea    rcx,[rax+0x1]
    67aa:	48 39 ca             	cmp    rdx,rcx
    67ad:	0f 86 1c fe ff ff    	jbe    65cf <http_parser_parse_url+0x1ef>
    67b3:	0f b6 40 01          	movzx  eax,BYTE PTR [rax+0x1]
    67b7:	bf 05 00 00 00       	mov    edi,0x5
    67bc:	8d 70 d0             	lea    esi,[rax-0x30]
    67bf:	40 80 fe 09          	cmp    sil,0x9
    67c3:	0f 86 cc 01 00 00    	jbe    6995 <http_parser_parse_url+0x5b5>
    67c9:	89 c6                	mov    esi,eax
    67cb:	83 ce 20             	or     esi,0x20
    67ce:	83 ee 61             	sub    esi,0x61
    67d1:	40 80 fe 05          	cmp    sil,0x5
    67d5:	0f 86 c5 00 00 00    	jbe    68a0 <http_parser_parse_url+0x4c0>
    67db:	3c 3a                	cmp    al,0x3a
    67dd:	0f 84 bd 00 00 00    	je     68a0 <http_parser_parse_url+0x4c0>
    67e3:	3c 2e                	cmp    al,0x2e
    67e5:	0f 84 b5 00 00 00    	je     68a0 <http_parser_parse_url+0x4c0>
    67eb:	83 ff 07             	cmp    edi,0x7
    67ee:	0f 85 db fd ff ff    	jne    65cf <http_parser_parse_url+0x1ef>
    67f4:	3c 25                	cmp    al,0x25
    67f6:	0f 85 d3 fd ff ff    	jne    65cf <http_parser_parse_url+0x1ef>
    67fc:	45 0f b7 4e 0a       	movzx  r9d,WORD PTR [r14+0xa]
    6801:	48 8d 79 01          	lea    rdi,[rcx+0x1]
    6805:	48 39 fa             	cmp    rdx,rdi
    6808:	41 8d 41 01          	lea    eax,[r9+0x1]
    680c:	66 41 89 46 0a       	mov    WORD PTR [r14+0xa],ax
    6811:	0f 86 b8 fd ff ff    	jbe    65cf <http_parser_parse_url+0x1ef>
    6817:	0f b6 41 01          	movzx  eax,BYTE PTR [rcx+0x1]
    681b:	89 c6                	mov    esi,eax
    681d:	83 ce 20             	or     esi,0x20
    6820:	83 ee 61             	sub    esi,0x61
    6823:	40 80 fe 19          	cmp    sil,0x19
    6827:	0f 86 df 00 00 00    	jbe    690c <http_parser_parse_url+0x52c>
    682d:	8d 48 d0             	lea    ecx,[rax-0x30]
    6830:	80 f9 09             	cmp    cl,0x9
    6833:	0f 86 bb 00 00 00    	jbe    68f4 <http_parser_parse_url+0x514>
    6839:	3c 25                	cmp    al,0x25
    683b:	74 1c                	je     6859 <http_parser_parse_url+0x479>
    683d:	3c 2e                	cmp    al,0x2e
    683f:	74 18                	je     6859 <http_parser_parse_url+0x479>
    6841:	3c 2d                	cmp    al,0x2d
    6843:	40 0f 94 c6          	sete   sil
    6847:	3c 5f                	cmp    al,0x5f
    6849:	0f 94 c1             	sete   cl
    684c:	40 08 ce             	or     sil,cl
    684f:	75 08                	jne    6859 <http_parser_parse_url+0x479>
    6851:	3c 7e                	cmp    al,0x7e
    6853:	0f 85 76 fd ff ff    	jne    65cf <http_parser_parse_url+0x1ef>
    6859:	48 8d 4f 01          	lea    rcx,[rdi+0x1]
    685d:	66 41 83 46 0a 01    	add    WORD PTR [r14+0xa],0x1
    6863:	48 39 ca             	cmp    rdx,rcx
    6866:	0f 86 63 fd ff ff    	jbe    65cf <http_parser_parse_url+0x1ef>
    686c:	0f b6 47 01          	movzx  eax,BYTE PTR [rdi+0x1]
    6870:	48 89 cf             	mov    rdi,rcx
    6873:	3c 5d                	cmp    al,0x5d
    6875:	0f 84 df 00 00 00    	je     695a <http_parser_parse_url+0x57a>
    687b:	89 c1                	mov    ecx,eax
    687d:	83 c9 20             	or     ecx,0x20
    6880:	83 e9 61             	sub    ecx,0x61
    6883:	80 f9 19             	cmp    cl,0x19
    6886:	77 a5                	ja     682d <http_parser_parse_url+0x44d>
    6888:	48 83 c7 01          	add    rdi,0x1
    688c:	66 41 83 46 0a 01    	add    WORD PTR [r14+0xa],0x1
    6892:	48 39 fa             	cmp    rdx,rdi
    6895:	0f 86 34 fd ff ff    	jbe    65cf <http_parser_parse_url+0x1ef>
    689b:	0f b6 07             	movzx  eax,BYTE PTR [rdi]
    689e:	eb d3                	jmp    6873 <http_parser_parse_url+0x493>
    68a0:	41 0f b7 76 0a       	movzx  esi,WORD PTR [r14+0xa]
    68a5:	83 c6 01             	add    esi,0x1
    68a8:	83 ff 07             	cmp    edi,0x7
    68ab:	0f 84 d5 00 00 00    	je     6986 <http_parser_parse_url+0x5a6>
    68b1:	48 89 c8             	mov    rax,rcx
    68b4:	48 89 cf             	mov    rdi,rcx
    68b7:	4c 29 e0             	sub    rax,r12
    68ba:	66 41 89 46 08       	mov    WORD PTR [r14+0x8],ax
    68bf:	48 83 c1 01          	add    rcx,0x1
    68c3:	66 41 89 76 0a       	mov    WORD PTR [r14+0xa],si
    68c8:	48 39 ca             	cmp    rdx,rcx
    68cb:	0f 86 fe fc ff ff    	jbe    65cf <http_parser_parse_url+0x1ef>
    68d1:	0f b6 47 01          	movzx  eax,BYTE PTR [rdi+0x1]
    68d5:	3c 5d                	cmp    al,0x5d
    68d7:	74 52                	je     692b <http_parser_parse_url+0x54b>
    68d9:	8d 78 d0             	lea    edi,[rax-0x30]
    68dc:	40 80 ff 09          	cmp    dil,0x9
    68e0:	76 0a                	jbe    68ec <http_parser_parse_url+0x50c>
    68e2:	bf 07 00 00 00       	mov    edi,0x7
    68e7:	e9 dd fe ff ff       	jmp    67c9 <http_parser_parse_url+0x3e9>
    68ec:	83 c6 01             	add    esi,0x1
    68ef:	48 89 cf             	mov    rdi,rcx
    68f2:	eb cb                	jmp    68bf <http_parser_parse_url+0x4df>
    68f4:	48 8d 4f 01          	lea    rcx,[rdi+0x1]
    68f8:	66 41 83 46 0a 01    	add    WORD PTR [r14+0xa],0x1
    68fe:	48 39 d1             	cmp    rcx,rdx
    6901:	0f 82 65 ff ff ff    	jb     686c <http_parser_parse_url+0x48c>
    6907:	e9 c3 fc ff ff       	jmp    65cf <http_parser_parse_url+0x1ef>
    690c:	48 8d 79 02          	lea    rdi,[rcx+0x2]
    6910:	41 8d 41 02          	lea    eax,[r9+0x2]
    6914:	48 39 fa             	cmp    rdx,rdi
    6917:	66 41 89 46 0a       	mov    WORD PTR [r14+0xa],ax
    691c:	0f 86 ad fc ff ff    	jbe    65cf <http_parser_parse_url+0x1ef>
    6922:	0f b6 41 02          	movzx  eax,BYTE PTR [rcx+0x2]
    6926:	e9 48 ff ff ff       	jmp    6873 <http_parser_parse_url+0x493>
    692b:	48 8d 77 02          	lea    rsi,[rdi+0x2]
    692f:	48 39 f2             	cmp    rdx,rsi
    6932:	0f 86 29 fd ff ff    	jbe    6661 <http_parser_parse_url+0x281>
    6938:	0f b6 47 02          	movzx  eax,BYTE PTR [rdi+0x2]
    693c:	3c 3a                	cmp    al,0x3a
    693e:	0f 85 8b fc ff ff    	jne    65cf <http_parser_parse_url+0x1ef>
    6944:	48 8d 4e 01          	lea    rcx,[rsi+0x1]
    6948:	48 39 ca             	cmp    rdx,rcx
    694b:	0f 86 7e fc ff ff    	jbe    65cf <http_parser_parse_url+0x1ef>
    6951:	0f b6 46 01          	movzx  eax,BYTE PTR [rsi+0x1]
    6955:	e9 30 fc ff ff       	jmp    658a <http_parser_parse_url+0x1aa>
    695a:	48 8d 77 01          	lea    rsi,[rdi+0x1]
    695e:	48 39 f2             	cmp    rdx,rsi
    6961:	0f 86 fa fc ff ff    	jbe    6661 <http_parser_parse_url+0x281>
    6967:	0f b6 47 01          	movzx  eax,BYTE PTR [rdi+0x1]
    696b:	eb cf                	jmp    693c <http_parser_parse_url+0x55c>
    696d:	48 8d 70 01          	lea    rsi,[rax+0x1]
    6971:	48 39 f2             	cmp    rdx,rsi
    6974:	0f 86 55 fc ff ff    	jbe    65cf <http_parser_parse_url+0x1ef>
    697a:	0f b6 48 01          	movzx  ecx,BYTE PTR [rax+0x1]
    697e:	48 89 f0             	mov    rax,rsi
    6981:	e9 73 fb ff ff       	jmp    64f9 <http_parser_parse_url+0x119>
    6986:	48 89 cf             	mov    rdi,rcx
    6989:	e9 31 ff ff ff       	jmp    68bf <http_parser_parse_url+0x4df>
    698e:	31 c0                	xor    eax,eax
    6990:	e9 41 fd ff ff       	jmp    66d6 <http_parser_parse_url+0x2f6>
    6995:	be 01 00 00 00       	mov    esi,0x1
    699a:	e9 12 ff ff ff       	jmp    68b1 <http_parser_parse_url+0x4d1>
    699f:	90                   	nop

00000000000069a0 <http_parser_pause>:
    69a0:	e8 00 00 00 00       	call   69a5 <http_parser_pause+0x5>
    69a5:	0f b6 47 17          	movzx  eax,BYTE PTR [rdi+0x17]
    69a9:	55                   	push   rbp
    69aa:	48 89 e5             	mov    rbp,rsp
    69ad:	83 e0 7f             	and    eax,0x7f
    69b0:	74 06                	je     69b8 <http_parser_pause+0x18>
    69b2:	3c 1f                	cmp    al,0x1f
    69b4:	74 02                	je     69b8 <http_parser_pause+0x18>
    69b6:	5d                   	pop    rbp
    69b7:	c3                   	ret    
    69b8:	83 fe 01             	cmp    esi,0x1
    69bb:	19 c0                	sbb    eax,eax
    69bd:	f7 d0                	not    eax
    69bf:	83 e0 1f             	and    eax,0x1f
    69c2:	89 c2                	mov    edx,eax
    69c4:	0f b6 47 17          	movzx  eax,BYTE PTR [rdi+0x17]
    69c8:	5d                   	pop    rbp
    69c9:	83 e0 80             	and    eax,0xffffff80
    69cc:	09 d0                	or     eax,edx
    69ce:	88 47 17             	mov    BYTE PTR [rdi+0x17],al
    69d1:	c3                   	ret    
    69d2:	0f 1f 40 00          	nop    DWORD PTR [rax+0x0]
    69d6:	66 2e 0f 1f 84 00 00 	nop    WORD PTR cs:[rax+rax*1+0x0]
    69dd:	00 00 00 

00000000000069e0 <http_body_is_final>:
    69e0:	e8 00 00 00 00       	call   69e5 <http_body_is_final+0x5>
    69e5:	8b 07                	mov    eax,DWORD PTR [rdi]
    69e7:	55                   	push   rbp
    69e8:	48 89 e5             	mov    rbp,rsp
    69eb:	25 00 fc 01 00       	and    eax,0x1fc00
    69f0:	3d 00 00 01 00       	cmp    eax,0x10000
    69f5:	0f 94 c0             	sete   al
    69f8:	0f b6 c0             	movzx  eax,al
    69fb:	5d                   	pop    rbp
    69fc:	c3                   	ret    
    69fd:	0f 1f 00             	nop    DWORD PTR [rax]

0000000000006a00 <http_parser_version>:
    6a00:	e8 00 00 00 00       	call   6a05 <http_parser_version+0x5>
    6a05:	55                   	push   rbp
    6a06:	b8 04 09 02 00       	mov    eax,0x20904
    6a0b:	48 89 e5             	mov    rbp,rsp
    6a0e:	5d                   	pop    rbp
    6a0f:	c3                   	ret    

0000000000006a10 <http_parser_set_max_header_size>:
    6a10:	e8 00 00 00 00       	call   6a15 <http_parser_set_max_header_size+0x5>
    6a15:	55                   	push   rbp
    6a16:	89 3d 00 00 00 00    	mov    DWORD PTR [rip+0x0],edi        # 6a1c <http_parser_set_max_header_size+0xc>
    6a1c:	48 89 e5             	mov    rbp,rsp
    6a1f:	5d                   	pop    rbp
    6a20:	c3                   	ret    
    6a21:	66 2e 0f 1f 84 00 00 	nop    WORD PTR cs:[rax+rax*1+0x0]
    6a28:	00 00 00 
    6a2b:	0f 1f 44 00 00       	nop    DWORD PTR [rax+rax*1+0x0]

0000000000006a30 <http_parser_callback_header_field>:
    6a30:	e8 00 00 00 00       	call   6a35 <http_parser_callback_header_field+0x5>
    6a35:	55                   	push   rbp
    6a36:	31 c0                	xor    eax,eax
    6a38:	48 89 e5             	mov    rbp,rsp
    6a3b:	5d                   	pop    rbp
    6a3c:	c3                   	ret    
    6a3d:	0f 1f 00             	nop    DWORD PTR [rax]

0000000000006a40 <http_parser_callback_headers_complete>:
    6a40:	e8 00 00 00 00       	call   6a45 <http_parser_callback_headers_complete+0x5>
    6a45:	0f b6 57 16          	movzx  edx,BYTE PTR [rdi+0x16]
    6a49:	48 8b 47 18          	mov    rax,QWORD PTR [rdi+0x18]
    6a4d:	55                   	push   rbp
    6a4e:	48 89 e5             	mov    rbp,rsp
    6a51:	89 50 08             	mov    DWORD PTR [rax+0x8],edx
    6a54:	31 c0                	xor    eax,eax
    6a56:	5d                   	pop    rbp
    6a57:	c3                   	ret    
    6a58:	0f 1f 84 00 00 00 00 	nop    DWORD PTR [rax+rax*1+0x0]
    6a5f:	00 

0000000000006a60 <fast_doubling>:
    6a60:	e8 00 00 00 00       	call   6a65 <fast_doubling+0x5>
    6a65:	55                   	push   rbp
    6a66:	48 89 e5             	mov    rbp,rsp
    6a69:	41 55                	push   r13
    6a6b:	41 54                	push   r12
    6a6d:	53                   	push   rbx
    6a6e:	48 89 fb             	mov    rbx,rdi
    6a71:	49 89 f5             	mov    r13,rsi
    6a74:	48 83 ec 50          	sub    rsp,0x50
    6a78:	65 48 8b 04 25 28 00 	mov    rax,QWORD PTR gs:0x28
    6a7f:	00 00 
    6a81:	48 89 45 e0          	mov    QWORD PTR [rbp-0x20],rax
    6a85:	31 c0                	xor    eax,eax
    6a87:	48 83 fe 02          	cmp    rsi,0x2
    6a8b:	0f 8e 21 01 00 00    	jle    6bb2 <fast_doubling+0x152>
    6a91:	49 bc 00 00 00 00 00 	movabs r12,0x8000000000000000
    6a98:	00 00 80 
    6a9b:	49 d1 ec             	shr    r12,1
    6a9e:	4d 85 e5             	test   r13,r12
    6aa1:	74 f8                	je     6a9b <fast_doubling+0x3b>
    6aa3:	31 f6                	xor    esi,esi
    6aa5:	48 89 df             	mov    rdi,rbx
    6aa8:	e8 00 00 00 00       	call   6aad <fast_doubling+0x4d>
    6aad:	48 8d 7d 98          	lea    rdi,[rbp-0x68]
    6ab1:	be 01 00 00 00       	mov    esi,0x1
    6ab6:	e8 00 00 00 00       	call   6abb <fast_doubling+0x5b>
    6abb:	48 8d 7d b0          	lea    rdi,[rbp-0x50]
    6abf:	e8 00 00 00 00       	call   6ac4 <fast_doubling+0x64>
    6ac4:	48 8d 7d c8          	lea    rdi,[rbp-0x38]
    6ac8:	e8 00 00 00 00       	call   6acd <fast_doubling+0x6d>
    6acd:	eb 09                	jmp    6ad8 <fast_doubling+0x78>
    6acf:	49 d1 ec             	shr    r12,1
    6ad2:	0f 84 a5 00 00 00    	je     6b7d <fast_doubling+0x11d>
    6ad8:	48 8d 55 b0          	lea    rdx,[rbp-0x50]
    6adc:	48 8d 7d 98          	lea    rdi,[rbp-0x68]
    6ae0:	be 01 00 00 00       	mov    esi,0x1
    6ae5:	e8 00 00 00 00       	call   6aea <fast_doubling+0x8a>
    6aea:	80 4b 10 01          	or     BYTE PTR [rbx+0x10],0x1
    6aee:	48 8d 55 b0          	lea    rdx,[rbp-0x50]
    6af2:	48 89 de             	mov    rsi,rbx
    6af5:	48 89 d7             	mov    rdi,rdx
    6af8:	e8 00 00 00 00       	call   6afd <fast_doubling+0x9d>
    6afd:	80 63 10 fe          	and    BYTE PTR [rbx+0x10],0xfe
    6b01:	48 8d 55 b0          	lea    rdx,[rbp-0x50]
    6b05:	48 89 de             	mov    rsi,rbx
    6b08:	48 89 d7             	mov    rdi,rdx
    6b0b:	e8 00 00 00 00       	call   6b10 <fast_doubling+0xb0>
    6b10:	48 89 de             	mov    rsi,rbx
    6b13:	48 89 df             	mov    rdi,rbx
    6b16:	e8 00 00 00 00       	call   6b1b <fast_doubling+0xbb>
    6b1b:	48 8d 75 98          	lea    rsi,[rbp-0x68]
    6b1f:	48 89 f7             	mov    rdi,rsi
    6b22:	e8 00 00 00 00       	call   6b27 <fast_doubling+0xc7>
    6b27:	48 8d 55 c8          	lea    rdx,[rbp-0x38]
    6b2b:	48 8d 75 98          	lea    rsi,[rbp-0x68]
    6b2f:	48 89 df             	mov    rdi,rbx
    6b32:	e8 00 00 00 00       	call   6b37 <fast_doubling+0xd7>
    6b37:	48 8d 75 b0          	lea    rsi,[rbp-0x50]
    6b3b:	48 89 df             	mov    rdi,rbx
    6b3e:	e8 00 00 00 00       	call   6b43 <fast_doubling+0xe3>
    6b43:	48 8d 75 c8          	lea    rsi,[rbp-0x38]
    6b47:	48 8d 7d 98          	lea    rdi,[rbp-0x68]
    6b4b:	e8 00 00 00 00       	call   6b50 <fast_doubling+0xf0>
    6b50:	4d 85 e5             	test   r13,r12
    6b53:	0f 84 76 ff ff ff    	je     6acf <fast_doubling+0x6f>
    6b59:	48 8d 75 98          	lea    rsi,[rbp-0x68]
    6b5d:	48 89 df             	mov    rdi,rbx
    6b60:	e8 00 00 00 00       	call   6b65 <fast_doubling+0x105>
    6b65:	48 8d 55 98          	lea    rdx,[rbp-0x68]
    6b69:	48 89 df             	mov    rdi,rbx
    6b6c:	48 89 d6             	mov    rsi,rdx
    6b6f:	e8 00 00 00 00       	call   6b74 <fast_doubling+0x114>
    6b74:	49 d1 ec             	shr    r12,1
    6b77:	0f 85 5b ff ff ff    	jne    6ad8 <fast_doubling+0x78>
    6b7d:	48 8d 7d b0          	lea    rdi,[rbp-0x50]
    6b81:	e8 00 00 00 00       	call   6b86 <fast_doubling+0x126>
    6b86:	48 8d 7d c8          	lea    rdi,[rbp-0x38]
    6b8a:	e8 00 00 00 00       	call   6b8f <fast_doubling+0x12f>
    6b8f:	48 8d 7d 98          	lea    rdi,[rbp-0x68]
    6b93:	e8 00 00 00 00       	call   6b98 <fast_doubling+0x138>
    6b98:	48 8b 45 e0          	mov    rax,QWORD PTR [rbp-0x20]
    6b9c:	65 48 33 04 25 28 00 	xor    rax,QWORD PTR gs:0x28
    6ba3:	00 00 
    6ba5:	75 25                	jne    6bcc <fast_doubling+0x16c>
    6ba7:	48 83 c4 50          	add    rsp,0x50
    6bab:	5b                   	pop    rbx
    6bac:	41 5c                	pop    r12
    6bae:	41 5d                	pop    r13
    6bb0:	5d                   	pop    rbp
    6bb1:	c3                   	ret    
    6bb2:	48 85 f6             	test   rsi,rsi
    6bb5:	75 09                	jne    6bc0 <fast_doubling+0x160>
    6bb7:	31 f6                	xor    esi,esi
    6bb9:	e8 00 00 00 00       	call   6bbe <fast_doubling+0x15e>
    6bbe:	eb d8                	jmp    6b98 <fast_doubling+0x138>
    6bc0:	be 01 00 00 00       	mov    esi,0x1
    6bc5:	e8 00 00 00 00       	call   6bca <fast_doubling+0x16a>
    6bca:	eb cc                	jmp    6b98 <fast_doubling+0x138>
    6bcc:	e8 00 00 00 00       	call   6bd1 <fast_doubling+0x171>
    6bd1:	0f 1f 44 00 00       	nop    DWORD PTR [rax+rax*1+0x0]
    6bd6:	66 2e 0f 1f 84 00 00 	nop    WORD PTR cs:[rax+rax*1+0x0]
    6bdd:	00 00 00 

0000000000006be0 <http_parser_callback_message_begin>:
    6be0:	e8 00 00 00 00       	call   6be5 <http_parser_callback_message_begin+0x5>
    6be5:	55                   	push   rbp
    6be6:	48 8b 47 18          	mov    rax,QWORD PTR [rdi+0x18]
    6bea:	48 89 e5             	mov    rbp,rsp
    6bed:	48 8d 78 10          	lea    rdi,[rax+0x10]
    6bf1:	48 c7 40 08 00 00 00 	mov    QWORD PTR [rax+0x8],0x0
    6bf8:	00 
    6bf9:	48 c7 80 88 00 00 00 	mov    QWORD PTR [rax+0x88],0x0
    6c00:	00 00 00 00 
    6c04:	48 83 e7 f8          	and    rdi,0xfffffffffffffff8
    6c08:	29 f8                	sub    eax,edi
    6c0a:	8d 88 90 00 00 00    	lea    ecx,[rax+0x90]
    6c10:	31 c0                	xor    eax,eax
    6c12:	c1 e9 03             	shr    ecx,0x3
    6c15:	f3 48 ab             	rep stos QWORD PTR es:[rdi],rax
    6c18:	5d                   	pop    rbp
    6c19:	c3                   	ret    
    6c1a:	66 0f 1f 44 00 00    	nop    WORD PTR [rax+rax*1+0x0]

0000000000006c20 <http_server_send>:
    6c20:	e8 00 00 00 00       	call   6c25 <http_server_send+0x5>
    6c25:	55                   	push   rbp
    6c26:	b9 0b 00 00 00       	mov    ecx,0xb
    6c2b:	48 89 e5             	mov    rbp,rsp
    6c2e:	41 57                	push   r15
    6c30:	41 56                	push   r14
    6c32:	41 55                	push   r13
    6c34:	41 54                	push   r12
    6c36:	4c 8d a5 78 ff ff ff 	lea    r12,[rbp-0x88]
    6c3d:	53                   	push   rbx
    6c3e:	49 89 fd             	mov    r13,rdi
    6c41:	4c 89 e7             	mov    rdi,r12
    6c44:	48 83 ec 70          	sub    rsp,0x70
    6c48:	65 48 8b 04 25 28 00 	mov    rax,QWORD PTR gs:0x28
    6c4f:	00 00 
    6c51:	48 89 45 d0          	mov    QWORD PTR [rbp-0x30],rax
    6c55:	31 c0                	xor    eax,eax
    6c57:	48 85 d2             	test   rdx,rdx
    6c5a:	f3 48 ab             	rep stos QWORD PTR es:[rdi],rax
    6c5d:	74 65                	je     6cc4 <http_server_send+0xa4>
    6c5f:	49 89 f6             	mov    r14,rsi
    6c62:	49 89 d7             	mov    r15,rdx
    6c65:	31 db                	xor    ebx,ebx
    6c67:	49 8d 14 06          	lea    rdx,[r14+rax*1]
    6c6b:	4d 89 f8             	mov    r8,r15
    6c6e:	b9 01 00 00 00       	mov    ecx,0x1
    6c73:	49 29 c0             	sub    r8,rax
    6c76:	4c 89 e6             	mov    rsi,r12
    6c79:	4c 89 ef             	mov    rdi,r13
    6c7c:	48 89 95 68 ff ff ff 	mov    QWORD PTR [rbp-0x98],rdx
    6c83:	48 8d 95 68 ff ff ff 	lea    rdx,[rbp-0x98]
    6c8a:	4c 89 85 70 ff ff ff 	mov    QWORD PTR [rbp-0x90],r8
    6c91:	e8 00 00 00 00       	call   6c96 <http_server_send+0x76>
    6c96:	85 c0                	test   eax,eax
    6c98:	78 2e                	js     6cc8 <http_server_send+0xa8>
    6c9a:	01 c3                	add    ebx,eax
    6c9c:	48 63 c3             	movsxd rax,ebx
    6c9f:	4c 39 f8             	cmp    rax,r15
    6ca2:	72 c3                	jb     6c67 <http_server_send+0x47>
    6ca4:	48 8b 75 d0          	mov    rsi,QWORD PTR [rbp-0x30]
    6ca8:	65 48 33 34 25 28 00 	xor    rsi,QWORD PTR gs:0x28
    6caf:	00 00 
    6cb1:	89 d8                	mov    eax,ebx
    6cb3:	75 23                	jne    6cd8 <http_server_send+0xb8>
    6cb5:	48 83 c4 70          	add    rsp,0x70
    6cb9:	5b                   	pop    rbx
    6cba:	41 5c                	pop    r12
    6cbc:	41 5d                	pop    r13
    6cbe:	41 5e                	pop    r14
    6cc0:	41 5f                	pop    r15
    6cc2:	5d                   	pop    rbp
    6cc3:	c3                   	ret    
    6cc4:	31 db                	xor    ebx,ebx
    6cc6:	eb dc                	jmp    6ca4 <http_server_send+0x84>
    6cc8:	89 c6                	mov    esi,eax
    6cca:	48 c7 c7 00 00 00 00 	mov    rdi,0x0
    6cd1:	e8 00 00 00 00       	call   6cd6 <http_server_send+0xb6>
    6cd6:	eb cc                	jmp    6ca4 <http_server_send+0x84>
    6cd8:	e8 00 00 00 00       	call   6cdd <http_server_send+0xbd>
    6cdd:	0f 1f 00             	nop    DWORD PTR [rax]

0000000000006ce0 <http_parser_callback_request_url>:
    6ce0:	e8 00 00 00 00       	call   6ce5 <http_parser_callback_request_url+0x5>
    6ce5:	55                   	push   rbp
    6ce6:	48 8b 7f 18          	mov    rdi,QWORD PTR [rdi+0x18]
    6cea:	48 89 e5             	mov    rbp,rsp
    6ced:	48 83 c7 0c          	add    rdi,0xc
    6cf1:	e8 00 00 00 00       	call   6cf6 <http_parser_callback_request_url+0x16>
    6cf6:	31 c0                	xor    eax,eax
    6cf8:	5d                   	pop    rbp
    6cf9:	c3                   	ret    
    6cfa:	66 0f 1f 44 00 00    	nop    WORD PTR [rax+rax*1+0x0]

0000000000006d00 <http_parser_callback_header_value>:
    6d00:	e8 00 00 00 00       	call   6d05 <http_parser_callback_header_value+0x5>
    6d05:	55                   	push   rbp
    6d06:	31 c0                	xor    eax,eax
    6d08:	48 89 e5             	mov    rbp,rsp
    6d0b:	5d                   	pop    rbp
    6d0c:	c3                   	ret    
    6d0d:	0f 1f 00             	nop    DWORD PTR [rax]

0000000000006d10 <http_server_recv.constprop.5>:
    6d10:	e8 00 00 00 00       	call   6d15 <http_server_recv.constprop.5+0x5>
    6d15:	55                   	push   rbp
    6d16:	49 89 fa             	mov    r10,rdi
    6d19:	b9 0b 00 00 00       	mov    ecx,0xb
    6d1e:	45 31 c9             	xor    r9d,r9d
    6d21:	41 b8 ff 0f 00 00    	mov    r8d,0xfff
    6d27:	48 89 e5             	mov    rbp,rsp
    6d2a:	48 83 ec 70          	sub    rsp,0x70
    6d2e:	65 48 8b 04 25 28 00 	mov    rax,QWORD PTR gs:0x28
    6d35:	00 00 
    6d37:	48 89 45 f8          	mov    QWORD PTR [rbp-0x8],rax
    6d3b:	31 c0                	xor    eax,eax
    6d3d:	48 8d 7d a0          	lea    rdi,[rbp-0x60]
    6d41:	48 89 75 90          	mov    QWORD PTR [rbp-0x70],rsi
    6d45:	48 8d 55 90          	lea    rdx,[rbp-0x70]
    6d49:	48 8d 75 a0          	lea    rsi,[rbp-0x60]
    6d4d:	48 c7 45 98 ff 0f 00 	mov    QWORD PTR [rbp-0x68],0xfff
    6d54:	00 
    6d55:	f3 48 ab             	rep stos QWORD PTR es:[rdi],rax
    6d58:	b9 01 00 00 00       	mov    ecx,0x1
    6d5d:	4c 89 d7             	mov    rdi,r10
    6d60:	e8 00 00 00 00       	call   6d65 <http_server_recv.constprop.5+0x55>
    6d65:	48 8b 55 f8          	mov    rdx,QWORD PTR [rbp-0x8]
    6d69:	65 48 33 14 25 28 00 	xor    rdx,QWORD PTR gs:0x28
    6d70:	00 00 
    6d72:	75 02                	jne    6d76 <http_server_recv.constprop.5+0x66>
    6d74:	c9                   	leave  
    6d75:	c3                   	ret    
    6d76:	e8 00 00 00 00       	call   6d7b <http_server_recv.constprop.5+0x6b>
    6d7b:	0f 1f 44 00 00       	nop    DWORD PTR [rax+rax*1+0x0]

0000000000006d80 <http_server_worker>:
    6d80:	e8 00 00 00 00       	call   6d85 <http_server_worker+0x5>
    6d85:	55                   	push   rbp
    6d86:	48 89 fa             	mov    rdx,rdi
    6d89:	b9 08 00 00 00       	mov    ecx,0x8
    6d8e:	be 02 00 00 00       	mov    esi,0x2
    6d93:	48 89 e5             	mov    rbp,rsp
    6d96:	41 54                	push   r12
    6d98:	53                   	push   rbx
    6d99:	48 8d bd 18 ff ff ff 	lea    rdi,[rbp-0xe8]
    6da0:	48 81 ec 08 01 00 00 	sub    rsp,0x108
    6da7:	48 c7 85 08 ff ff ff 	mov    QWORD PTR [rbp-0xf8],0x0
    6dae:	00 00 00 00 
    6db2:	4c 8b 62 e8          	mov    r12,QWORD PTR [rdx-0x18]
    6db6:	65 48 8b 04 25 28 00 	mov    rax,QWORD PTR gs:0x28
    6dbd:	00 00 
    6dbf:	48 89 45 e8          	mov    QWORD PTR [rbp-0x18],rax
    6dc3:	31 c0                	xor    eax,eax
    6dc5:	48 c7 85 10 ff ff ff 	mov    QWORD PTR [rbp-0xf0],0x0
    6dcc:	00 00 00 00 
    6dd0:	f3 48 ab             	rep stos QWORD PTR es:[rdi],rax
    6dd3:	bf 09 00 00 00       	mov    edi,0x9
    6dd8:	48 c7 85 20 ff ff ff 	mov    QWORD PTR [rbp-0xe0],0x0
    6ddf:	00 00 00 00 
    6de3:	48 c7 85 28 ff ff ff 	mov    QWORD PTR [rbp-0xd8],0x0
    6dea:	00 00 00 00 
    6dee:	48 c7 85 30 ff ff ff 	mov    QWORD PTR [rbp-0xd0],0x0
    6df5:	00 00 00 00 
    6df9:	48 c7 85 38 ff ff ff 	mov    QWORD PTR [rbp-0xc8],0x0
    6e00:	00 00 00 00 
    6e04:	48 c7 85 40 ff ff ff 	mov    QWORD PTR [rbp-0xc0],0x0
    6e0b:	00 00 00 00 
    6e0f:	e8 00 00 00 00       	call   6e14 <http_server_worker+0x94>
    6e14:	be 02 00 00 00       	mov    esi,0x2
    6e19:	bf 0f 00 00 00       	mov    edi,0xf
    6e1e:	e8 00 00 00 00       	call   6e23 <http_server_worker+0xa3>
    6e23:	48 8b 3d 00 00 00 00 	mov    rdi,QWORD PTR [rip+0x0]        # 6e2a <http_server_worker+0xaa>
    6e2a:	ba 00 10 00 00       	mov    edx,0x1000
    6e2f:	be c0 0c 00 00       	mov    esi,0xcc0
    6e34:	e8 00 00 00 00       	call   6e39 <http_server_worker+0xb9>
    6e39:	48 85 c0             	test   rax,rax
    6e3c:	0f 84 bd 00 00 00    	je     6eff <http_server_worker+0x17f>
    6e42:	48 8d bd e8 fe ff ff 	lea    rdi,[rbp-0x118]
    6e49:	31 f6                	xor    esi,esi
    6e4b:	48 89 c3             	mov    rbx,rax
    6e4e:	4c 89 a5 58 ff ff ff 	mov    QWORD PTR [rbp-0xa8],r12
    6e55:	e8 00 00 00 00       	call   6e5a <http_server_worker+0xda>
    6e5a:	48 8d 85 58 ff ff ff 	lea    rax,[rbp-0xa8]
    6e61:	48 89 85 00 ff ff ff 	mov    QWORD PTR [rbp-0x100],rax
    6e68:	eb 30                	jmp    6e9a <http_server_worker+0x11a>
    6e6a:	48 89 de             	mov    rsi,rbx
    6e6d:	4c 89 e7             	mov    rdi,r12
    6e70:	e8 9b fe ff ff       	call   6d10 <http_server_recv.constprop.5>
    6e75:	83 f8 00             	cmp    eax,0x0
    6e78:	7e 61                	jle    6edb <http_server_worker+0x15b>
    6e7a:	48 8d b5 08 ff ff ff 	lea    rsi,[rbp-0xf8]
    6e81:	48 8d bd e8 fe ff ff 	lea    rdi,[rbp-0x118]
    6e88:	48 63 c8             	movsxd rcx,eax
    6e8b:	48 89 da             	mov    rdx,rbx
    6e8e:	e8 00 00 00 00       	call   6e93 <http_server_worker+0x113>
    6e93:	8b 45 e4             	mov    eax,DWORD PTR [rbp-0x1c]
    6e96:	85 c0                	test   eax,eax
    6e98:	75 53                	jne    6eed <http_server_worker+0x16d>
    6e9a:	e8 00 00 00 00       	call   6e9f <http_server_worker+0x11f>
    6e9f:	84 c0                	test   al,al
    6ea1:	74 c7                	je     6e6a <http_server_worker+0xea>
    6ea3:	be 02 00 00 00       	mov    esi,0x2
    6ea8:	4c 89 e7             	mov    rdi,r12
    6eab:	e8 00 00 00 00       	call   6eb0 <http_server_worker+0x130>
    6eb0:	4c 89 e7             	mov    rdi,r12
    6eb3:	e8 00 00 00 00       	call   6eb8 <http_server_worker+0x138>
    6eb8:	48 89 df             	mov    rdi,rbx
    6ebb:	e8 00 00 00 00       	call   6ec0 <http_server_worker+0x140>
    6ec0:	48 8b 45 e8          	mov    rax,QWORD PTR [rbp-0x18]
    6ec4:	65 48 33 04 25 28 00 	xor    rax,QWORD PTR gs:0x28
    6ecb:	00 00 
    6ecd:	75 3e                	jne    6f0d <http_server_worker+0x18d>
    6ecf:	48 81 c4 08 01 00 00 	add    rsp,0x108
    6ed6:	5b                   	pop    rbx
    6ed7:	41 5c                	pop    r12
    6ed9:	5d                   	pop    rbp
    6eda:	c3                   	ret    
    6edb:	74 c6                	je     6ea3 <http_server_worker+0x123>
    6edd:	89 c6                	mov    esi,eax
    6edf:	48 c7 c7 00 00 00 00 	mov    rdi,0x0
    6ee6:	e8 00 00 00 00       	call   6eeb <http_server_worker+0x16b>
    6eeb:	eb b6                	jmp    6ea3 <http_server_worker+0x123>
    6eed:	48 8d bd e8 fe ff ff 	lea    rdi,[rbp-0x118]
    6ef4:	e8 00 00 00 00       	call   6ef9 <http_server_worker+0x179>
    6ef9:	85 c0                	test   eax,eax
    6efb:	75 9d                	jne    6e9a <http_server_worker+0x11a>
    6efd:	eb a4                	jmp    6ea3 <http_server_worker+0x123>
    6eff:	48 c7 c7 00 00 00 00 	mov    rdi,0x0
    6f06:	e8 00 00 00 00       	call   6f0b <http_server_worker+0x18b>
    6f0b:	eb b3                	jmp    6ec0 <http_server_worker+0x140>
    6f0d:	e8 00 00 00 00       	call   6f12 <http_server_worker+0x192>
    6f12:	0f 1f 40 00          	nop    DWORD PTR [rax+0x0]
    6f16:	66 2e 0f 1f 84 00 00 	nop    WORD PTR cs:[rax+rax*1+0x0]
    6f1d:	00 00 00 

0000000000006f20 <http_parser_callback_body>:
    6f20:	e8 00 00 00 00       	call   6f25 <http_parser_callback_body+0x5>
    6f25:	55                   	push   rbp
    6f26:	31 c0                	xor    eax,eax
    6f28:	48 89 e5             	mov    rbp,rsp
    6f2b:	5d                   	pop    rbp
    6f2c:	c3                   	ret    
    6f2d:	0f 1f 00             	nop    DWORD PTR [rax]

0000000000006f30 <http_parser_callback_message_complete>:
    6f30:	e8 00 00 00 00       	call   6f35 <http_parser_callback_message_complete+0x5>
    6f35:	55                   	push   rbp
    6f36:	48 89 e5             	mov    rbp,rsp
    6f39:	41 57                	push   r15
    6f3b:	41 56                	push   r14
    6f3d:	41 55                	push   r13
    6f3f:	41 54                	push   r12
    6f41:	45 31 ed             	xor    r13d,r13d
    6f44:	53                   	push   rbx
    6f45:	48 83 ec 28          	sub    rsp,0x28
    6f49:	4c 8b 77 18          	mov    r14,QWORD PTR [rdi+0x18]
    6f4d:	65 48 8b 04 25 28 00 	mov    rax,QWORD PTR gs:0x28
    6f54:	00 00 
    6f56:	48 89 45 d0          	mov    QWORD PTR [rbp-0x30],rax
    6f5a:	31 c0                	xor    eax,eax
    6f5c:	e8 00 00 00 00       	call   6f61 <http_parser_callback_message_complete+0x31>
    6f61:	49 8d 5e 0c          	lea    rbx,[r14+0xc]
    6f65:	48 89 df             	mov    rdi,rbx
    6f68:	e8 00 00 00 00       	call   6f6d <http_parser_callback_message_complete+0x3d>
    6f6d:	48 8d 78 01          	lea    rdi,[rax+0x1]
    6f71:	be c0 0c 10 00       	mov    esi,0x100cc0
    6f76:	e8 00 00 00 00       	call   6f7b <http_parser_callback_message_complete+0x4b>
    6f7b:	48 89 df             	mov    rdi,rbx
    6f7e:	49 89 c4             	mov    r12,rax
    6f81:	48 89 45 b0          	mov    QWORD PTR [rbp-0x50],rax
    6f85:	e8 00 00 00 00       	call   6f8a <http_parser_callback_message_complete+0x5a>
    6f8a:	48 8d 50 01          	lea    rdx,[rax+0x1]
    6f8e:	48 89 de             	mov    rsi,rbx
    6f91:	4c 89 e7             	mov    rdi,r12
    6f94:	31 db                	xor    ebx,ebx
    6f96:	49 c7 c4 00 00 00 00 	mov    r12,0x0
    6f9d:	e8 00 00 00 00       	call   6fa2 <http_parser_callback_message_complete+0x72>
    6fa2:	48 8d 7d b0          	lea    rdi,[rbp-0x50]
    6fa6:	48 c7 c6 00 00 00 00 	mov    rsi,0x0
    6fad:	e8 00 00 00 00       	call   6fb2 <http_parser_callback_message_complete+0x82>
    6fb2:	48 8d 7d b0          	lea    rdi,[rbp-0x50]
    6fb6:	48 c7 c6 00 00 00 00 	mov    rsi,0x0
    6fbd:	e8 00 00 00 00       	call   6fc2 <http_parser_callback_message_complete+0x92>
    6fc2:	48 85 c0             	test   rax,rax
    6fc5:	49 89 c7             	mov    r15,rax
    6fc8:	74 59                	je     7023 <http_parser_callback_message_complete+0xf3>
    6fca:	85 db                	test   ebx,ebx
    6fcc:	75 35                	jne    7003 <http_parser_callback_message_complete+0xd3>
    6fce:	4c 89 ff             	mov    rdi,r15
    6fd1:	e8 00 00 00 00       	call   6fd6 <http_parser_callback_message_complete+0xa6>
    6fd6:	b9 04 00 00 00       	mov    ecx,0x4
    6fdb:	48 83 f8 04          	cmp    rax,0x4
    6fdf:	4c 89 fe             	mov    rsi,r15
    6fe2:	48 0f 4e c8          	cmovle rcx,rax
    6fe6:	4c 89 e7             	mov    rdi,r12
    6fe9:	48 39 c9             	cmp    rcx,rcx
    6fec:	f3 a6                	repz cmps BYTE PTR ds:[rsi],BYTE PTR es:[rdi]
    6fee:	0f 97 c0             	seta   al
    6ff1:	1c 00                	sbb    al,0x0
    6ff3:	0f be c0             	movsx  eax,al
    6ff6:	83 f8 01             	cmp    eax,0x1
    6ff9:	19 db                	sbb    ebx,ebx
    6ffb:	83 e3 02             	and    ebx,0x2
    6ffe:	83 eb 01             	sub    ebx,0x1
    7001:	eb af                	jmp    6fb2 <http_parser_callback_message_complete+0x82>
    7003:	83 fb 01             	cmp    ebx,0x1
    7006:	74 07                	je     700f <http_parser_callback_message_complete+0xdf>
    7008:	bb ff ff ff ff       	mov    ebx,0xffffffff
    700d:	eb a3                	jmp    6fb2 <http_parser_callback_message_complete+0x82>
    700f:	ba 0a 00 00 00       	mov    edx,0xa
    7014:	31 f6                	xor    esi,esi
    7016:	4c 89 ff             	mov    rdi,r15
    7019:	e8 00 00 00 00       	call   701e <http_parser_callback_message_complete+0xee>
    701e:	49 89 c5             	mov    r13,rax
    7021:	eb 8f                	jmp    6fb2 <http_parser_callback_message_complete+0x82>
    7023:	49 81 fd c0 c6 2d 00 	cmp    r13,0x2dc6c0
    702a:	0f 8e ec 01 00 00    	jle    721c <http_parser_callback_message_complete+0x2ec>
    7030:	48 8b 3d 00 00 00 00 	mov    rdi,QWORD PTR [rip+0x0]        # 7037 <http_parser_callback_message_complete+0x107>
    7037:	ba 5f 00 00 00       	mov    edx,0x5f
    703c:	be c0 0c 00 00       	mov    esi,0xcc0
    7041:	e8 00 00 00 00       	call   7046 <http_parser_callback_message_complete+0x116>
    7046:	48 89 c3             	mov    rbx,rax
    7049:	48 c7 40 54 00 00 00 	mov    QWORD PTR [rax+0x54],0x0
    7050:	00 
    7051:	31 c0                	xor    eax,eax
    7053:	66 89 43 5c          	mov    WORD PTR [rbx+0x5c],ax
    7057:	48 b8 57 65 20 6f 6e 	movabs rax,0x20796c6e6f206557
    705e:	6c 79 20 
    7061:	c6 43 5e 00          	mov    BYTE PTR [rbx+0x5e],0x0
    7065:	48 89 03             	mov    QWORD PTR [rbx],rax
    7068:	48 b8 63 61 6e 20 68 	movabs rax,0x646e6168206e6163
    706f:	61 6e 64 
    7072:	c7 43 50 75 67 68 2e 	mov    DWORD PTR [rbx+0x50],0x2e686775
    7079:	48 89 43 08          	mov    QWORD PTR [rbx+0x8],rax
    707d:	48 b8 6c 65 20 66 5b 	movabs rax,0x2c5d6b5b6620656c
    7084:	6b 5d 2c 
    7087:	c6 43 54 0a          	mov    BYTE PTR [rbx+0x54],0xa
    708b:	48 89 43 10          	mov    QWORD PTR [rbx+0x10],rax
    708f:	48 b8 20 6b 20 3c 3d 	movabs rax,0x3033203d3c206b20
    7096:	20 33 30 
    7099:	48 89 da             	mov    rdx,rbx
    709c:	48 89 43 18          	mov    QWORD PTR [rbx+0x18],rax
    70a0:	48 b8 30 30 30 30 30 	movabs rax,0x6f530a3030303030
    70a7:	0a 53 6f 
    70aa:	48 89 43 20          	mov    QWORD PTR [rbx+0x20],rax
    70ae:	48 b8 72 72 79 20 61 	movabs rax,0x756f626120797272
    70b5:	62 6f 75 
    70b8:	48 89 43 28          	mov    QWORD PTR [rbx+0x28],rax
    70bc:	48 b8 74 20 74 68 61 	movabs rax,0x202c746168742074
    70c3:	74 2c 20 
    70c6:	48 89 43 30          	mov    QWORD PTR [rbx+0x30],rax
    70ca:	48 b8 77 65 20 61 72 	movabs rax,0x6a20657261206577
    70d1:	65 20 6a 
    70d4:	48 89 43 38          	mov    QWORD PTR [rbx+0x38],rax
    70d8:	48 b8 75 73 74 20 6e 	movabs rax,0x20746f6e20747375
    70df:	6f 74 20 
    70e2:	48 89 43 40          	mov    QWORD PTR [rbx+0x40],rax
    70e6:	48 b8 67 6f 6f 64 20 	movabs rax,0x6f6e6520646f6f67
    70ed:	65 6e 6f 
    70f0:	48 89 43 48          	mov    QWORD PTR [rbx+0x48],rax
    70f4:	8b 0a                	mov    ecx,DWORD PTR [rdx]
    70f6:	48 83 c2 04          	add    rdx,0x4
    70fa:	8d 81 ff fe fe fe    	lea    eax,[rcx-0x1010101]
    7100:	f7 d1                	not    ecx
    7102:	21 c8                	and    eax,ecx
    7104:	25 80 80 80 80       	and    eax,0x80808080
    7109:	74 e9                	je     70f4 <http_parser_callback_message_complete+0x1c4>
    710b:	89 c1                	mov    ecx,eax
    710d:	c1 e9 10             	shr    ecx,0x10
    7110:	a9 80 80 00 00       	test   eax,0x8080
    7115:	0f 44 c1             	cmove  eax,ecx
    7118:	48 8d 4a 02          	lea    rcx,[rdx+0x2]
    711c:	89 c6                	mov    esi,eax
    711e:	48 0f 44 d1          	cmove  rdx,rcx
    7122:	40 00 c6             	add    sil,al
    7125:	be c0 0c 00 00       	mov    esi,0xcc0
    712a:	48 83 da 03          	sbb    rdx,0x3
    712e:	48 29 da             	sub    rdx,rbx
    7131:	4c 8d aa f4 01 00 00 	lea    r13,[rdx+0x1f4]
    7138:	4c 89 ef             	mov    rdi,r13
    713b:	e8 00 00 00 00       	call   7140 <http_parser_callback_message_complete+0x210>
    7140:	49 89 c4             	mov    r12,rax
    7143:	48 89 d9             	mov    rcx,rbx
    7146:	8b 11                	mov    edx,DWORD PTR [rcx]
    7148:	48 83 c1 04          	add    rcx,0x4
    714c:	8d 82 ff fe fe fe    	lea    eax,[rdx-0x1010101]
    7152:	f7 d2                	not    edx
    7154:	21 d0                	and    eax,edx
    7156:	25 80 80 80 80       	and    eax,0x80808080
    715b:	74 e9                	je     7146 <http_parser_callback_message_complete+0x216>
    715d:	89 c2                	mov    edx,eax
    715f:	49 89 d8             	mov    r8,rbx
    7162:	4c 89 ee             	mov    rsi,r13
    7165:	c1 ea 10             	shr    edx,0x10
    7168:	a9 80 80 00 00       	test   eax,0x8080
    716d:	4c 89 e7             	mov    rdi,r12
    7170:	0f 44 c2             	cmove  eax,edx
    7173:	48 8d 51 02          	lea    rdx,[rcx+0x2]
    7177:	48 0f 44 ca          	cmove  rcx,rdx
    717b:	89 c2                	mov    edx,eax
    717d:	00 c2                	add    dl,al
    717f:	48 c7 c2 00 00 00 00 	mov    rdx,0x0
    7186:	48 83 d9 03          	sbb    rcx,0x3
    718a:	48 29 d9             	sub    rcx,rbx
    718d:	e8 00 00 00 00       	call   7192 <http_parser_callback_message_complete+0x262>
    7192:	4c 89 e2             	mov    rdx,r12
    7195:	8b 0a                	mov    ecx,DWORD PTR [rdx]
    7197:	48 83 c2 04          	add    rdx,0x4
    719b:	8d 81 ff fe fe fe    	lea    eax,[rcx-0x1010101]
    71a1:	f7 d1                	not    ecx
    71a3:	21 c8                	and    eax,ecx
    71a5:	25 80 80 80 80       	and    eax,0x80808080
    71aa:	74 e9                	je     7195 <http_parser_callback_message_complete+0x265>
    71ac:	89 c1                	mov    ecx,eax
    71ae:	49 8b 3e             	mov    rdi,QWORD PTR [r14]
    71b1:	c1 e9 10             	shr    ecx,0x10
    71b4:	a9 80 80 00 00       	test   eax,0x8080
    71b9:	0f 44 c1             	cmove  eax,ecx
    71bc:	48 8d 4a 02          	lea    rcx,[rdx+0x2]
    71c0:	89 c6                	mov    esi,eax
    71c2:	48 0f 44 d1          	cmove  rdx,rcx
    71c6:	40 00 c6             	add    sil,al
    71c9:	4c 89 e6             	mov    rsi,r12
    71cc:	48 83 da 03          	sbb    rdx,0x3
    71d0:	4c 29 e2             	sub    rdx,r12
    71d3:	e8 48 fa ff ff       	call   6c20 <http_server_send>
    71d8:	48 89 df             	mov    rdi,rbx
    71db:	e8 00 00 00 00       	call   71e0 <http_parser_callback_message_complete+0x2b0>
    71e0:	4c 89 e7             	mov    rdi,r12
    71e3:	e8 00 00 00 00       	call   71e8 <http_parser_callback_message_complete+0x2b8>
    71e8:	48 8b 7d b0          	mov    rdi,QWORD PTR [rbp-0x50]
    71ec:	e8 00 00 00 00       	call   71f1 <http_parser_callback_message_complete+0x2c1>
    71f1:	31 c0                	xor    eax,eax
    71f3:	41 c7 86 8c 00 00 00 	mov    DWORD PTR [r14+0x8c],0x1
    71fa:	01 00 00 00 
    71fe:	48 8b 55 d0          	mov    rdx,QWORD PTR [rbp-0x30]
    7202:	65 48 33 14 25 28 00 	xor    rdx,QWORD PTR gs:0x28
    7209:	00 00 
    720b:	75 6d                	jne    727a <http_parser_callback_message_complete+0x34a>
    720d:	48 83 c4 28          	add    rsp,0x28
    7211:	5b                   	pop    rbx
    7212:	41 5c                	pop    r12
    7214:	41 5d                	pop    r13
    7216:	41 5e                	pop    r14
    7218:	41 5f                	pop    r15
    721a:	5d                   	pop    rbp
    721b:	c3                   	ret    
    721c:	48 8d 7d b8          	lea    rdi,[rbp-0x48]
    7220:	4c 89 ee             	mov    rsi,r13
    7223:	e8 38 f8 ff ff       	call   6a60 <fast_doubling>
    7228:	8b 7d c0             	mov    edi,DWORD PTR [rbp-0x40]
    722b:	be 0a 00 00 00       	mov    esi,0xa
    7230:	e8 00 00 00 00       	call   7235 <http_parser_callback_message_complete+0x305>
    7235:	49 89 c7             	mov    r15,rax
    7238:	48 8d 78 0a          	lea    rdi,[rax+0xa]
    723c:	be c0 0c 00 00       	mov    esi,0xcc0
    7241:	4d 8d af f4 01 00 00 	lea    r13,[r15+0x1f4]
    7248:	e8 00 00 00 00       	call   724d <http_parser_callback_message_complete+0x31d>
    724d:	4c 89 ef             	mov    rdi,r13
    7250:	be c0 0c 00 00       	mov    esi,0xcc0
    7255:	48 89 c3             	mov    rbx,rax
    7258:	e8 00 00 00 00       	call   725d <http_parser_callback_message_complete+0x32d>
    725d:	41 8d 57 0a          	lea    edx,[r15+0xa]
    7261:	48 8d 7d b8          	lea    rdi,[rbp-0x48]
    7265:	b9 0a 00 00 00       	mov    ecx,0xa
    726a:	48 89 de             	mov    rsi,rbx
    726d:	49 89 c4             	mov    r12,rax
    7270:	e8 00 00 00 00       	call   7275 <http_parser_callback_message_complete+0x345>
    7275:	e9 c9 fe ff ff       	jmp    7143 <http_parser_callback_message_complete+0x213>
    727a:	e8 00 00 00 00       	call   727f <http_parser_callback_message_complete+0x34f>
    727f:	90                   	nop

0000000000007280 <http_server_daemon>:
    7280:	e8 00 00 00 00       	call   7285 <http_server_daemon+0x5>
    7285:	55                   	push   rbp
    7286:	be 02 00 00 00       	mov    esi,0x2
    728b:	48 89 e5             	mov    rbp,rsp
    728e:	41 57                	push   r15
    7290:	41 56                	push   r14
    7292:	41 55                	push   r13
    7294:	41 54                	push   r12
    7296:	49 c7 c5 00 00 00 00 	mov    r13,0x0
    729d:	53                   	push   rbx
    729e:	48 89 fb             	mov    rbx,rdi
    72a1:	bf 09 00 00 00       	mov    edi,0x9
    72a6:	49 bf e0 ff ff ff 0f 	movabs r15,0xfffffffe0
    72ad:	00 00 00 
    72b0:	49 c7 c6 00 00 00 00 	mov    r14,0x0
    72b7:	48 83 ec 10          	sub    rsp,0x10
    72bb:	65 48 8b 04 25 28 00 	mov    rax,QWORD PTR gs:0x28
    72c2:	00 00 
    72c4:	48 89 45 d0          	mov    QWORD PTR [rbp-0x30],rax
    72c8:	31 c0                	xor    eax,eax
    72ca:	e8 00 00 00 00       	call   72cf <http_server_daemon+0x4f>
    72cf:	be 02 00 00 00       	mov    esi,0x2
    72d4:	bf 0f 00 00 00       	mov    edi,0xf
    72d9:	e8 00 00 00 00       	call   72de <http_server_daemon+0x5e>
    72de:	4c 89 2d 00 00 00 00 	mov    QWORD PTR [rip+0x0],r13        # 72e5 <http_server_daemon+0x65>
    72e5:	4c 89 2d 00 00 00 00 	mov    QWORD PTR [rip+0x0],r13        # 72ec <http_server_daemon+0x6c>
    72ec:	e8 00 00 00 00       	call   72f1 <http_server_daemon+0x71>
    72f1:	84 c0                	test   al,al
    72f3:	75 3e                	jne    7333 <http_server_daemon+0xb3>
    72f5:	48 8b 3b             	mov    rdi,QWORD PTR [rbx]
    72f8:	48 8d 75 c8          	lea    rsi,[rbp-0x38]
    72fc:	31 d2                	xor    edx,edx
    72fe:	e8 00 00 00 00       	call   7303 <http_server_daemon+0x83>
    7303:	85 c0                	test   eax,eax
    7305:	0f 89 ae 00 00 00    	jns    73b9 <http_server_daemon+0x139>
    730b:	65 48 8b 14 25 00 00 	mov    rdx,QWORD PTR gs:0x0
    7312:	00 00 
    7314:	48 8b 12             	mov    rdx,QWORD PTR [rdx]
    7317:	83 e2 04             	and    edx,0x4
    731a:	75 17                	jne    7333 <http_server_daemon+0xb3>
    731c:	89 c6                	mov    esi,eax
    731e:	48 c7 c7 00 00 00 00 	mov    rdi,0x0
    7325:	e8 00 00 00 00       	call   732a <http_server_daemon+0xaa>
    732a:	e8 00 00 00 00       	call   732f <http_server_daemon+0xaf>
    732f:	84 c0                	test   al,al
    7331:	74 c2                	je     72f5 <http_server_daemon+0x75>
    7333:	48 8b 05 00 00 00 00 	mov    rax,QWORD PTR [rip+0x0]        # 733a <http_server_daemon+0xba>
    733a:	c6 05 00 00 00 00 01 	mov    BYTE PTR [rip+0x0],0x1        # 7341 <http_server_daemon+0xc1>
    7341:	4c 8b 20             	mov    r12,QWORD PTR [rax]
    7344:	48 8d 58 f8          	lea    rbx,[rax-0x8]
    7348:	49 83 ec 08          	sub    r12,0x8
    734c:	48 81 fb 00 00 00 00 	cmp    rbx,0x0
    7353:	75 05                	jne    735a <http_server_daemon+0xda>
    7355:	eb 3e                	jmp    7395 <http_server_daemon+0x115>
    7357:	49 89 c4             	mov    r12,rax
    735a:	48 8b 3b             	mov    rdi,QWORD PTR [rbx]
    735d:	be 02 00 00 00       	mov    esi,0x2
    7362:	e8 00 00 00 00       	call   7367 <http_server_daemon+0xe7>

    ///
    7367:	48 8d 7b 18          	lea    rdi,[rbx+0x18]
    ///

    736b:	e8 00 00 00 00       	call   7370 <http_server_daemon+0xf0>
    7370:	48 8b 3b             	mov    rdi,QWORD PTR [rbx]
    7373:	e8 00 00 00 00       	call   7378 <http_server_daemon+0xf8>
    7378:	48 89 df             	mov    rdi,rbx
    737b:	4c 89 e3             	mov    rbx,r12
    737e:	e8 00 00 00 00       	call   7383 <http_server_daemon+0x103>
    7383:	49 8b 44 24 08       	mov    rax,QWORD PTR [r12+0x8]
    7388:	48 83 e8 08          	sub    rax,0x8
    738c:	49 81 fc 00 00 00 00 	cmp    r12,0x0
    7393:	75 c2                	jne    7357 <http_server_daemon+0xd7>
    7395:	31 c0                	xor    eax,eax
    7397:	48 8b 4d d0          	mov    rcx,QWORD PTR [rbp-0x30]
    739b:	65 48 33 0c 25 28 00 	xor    rcx,QWORD PTR gs:0x28
    73a2:	00 00 
    73a4:	0f 85 8e 00 00 00    	jne    7438 <http_server_daemon+0x1b8>
    73aa:	48 83 c4 10          	add    rsp,0x10
    73ae:	5b                   	pop    rbx
    73af:	41 5c                	pop    r12
    73b1:	41 5d                	pop    r13
    73b3:	41 5e                	pop    r14
    73b5:	41 5f                	pop    r15
    73b7:	5d                   	pop    rbp
    73b8:	c3                   	ret    
    73b9:	48 8b 3d 00 00 00 00 	mov    rdi,QWORD PTR [rip+0x0]        # 73c0 <http_server_daemon+0x140>
    73c0:	ba 38 00 00 00       	mov    edx,0x38
    73c5:	be c0 0c 00 00       	mov    esi,0xcc0
    73ca:	4c 8b 65 c8          	mov    r12,QWORD PTR [rbp-0x38]
    73ce:	e8 00 00 00 00       	call   73d3 <http_server_daemon+0x153>
    73d3:	48 85 c0             	test   rax,rax
    73d6:	74 4f                	je     7427 <http_server_daemon+0x1a7>
    73d8:	48 8d 50 20          	lea    rdx,[rax+0x20]
    73dc:	48 8b 0d 00 00 00 00 	mov    rcx,QWORD PTR [rip+0x0]        # 73e3 <http_server_daemon+0x163>
    73e3:	48 8b 35 00 00 00 00 	mov    rsi,QWORD PTR [rip+0x0]        # 73ea <http_server_daemon+0x16a>
    73ea:	4c 89 20             	mov    QWORD PTR [rax],r12
    73ed:	4c 89 78 18          	mov    QWORD PTR [rax+0x18],r15
    73f1:	bf 00 20 00 00       	mov    edi,0x2000
    73f6:	48 89 50 20          	mov    QWORD PTR [rax+0x20],rdx
    73fa:	48 89 50 28          	mov    QWORD PTR [rax+0x28],rdx
    73fe:	48 8d 50 08          	lea    rdx,[rax+0x8]
    7402:	4c 89 70 30          	mov    QWORD PTR [rax+0x30],r14
    7406:	48 89 51 08          	mov    QWORD PTR [rcx+0x8],rdx
    740a:	48 89 15 00 00 00 00 	mov    QWORD PTR [rip+0x0],rdx        # 7411 <http_server_daemon+0x191>
    7411:	48 8d 50 18          	lea    rdx,[rax+0x18]
    7415:	48 89 48 08          	mov    QWORD PTR [rax+0x8],rcx
    7419:	4c 89 68 10          	mov    QWORD PTR [rax+0x10],r13
    741d:	e8 00 00 00 00       	call   7422 <http_server_daemon+0x1a2>
    7422:	e9 c5 fe ff ff       	jmp    72ec <http_server_daemon+0x6c>
    7427:	48 c7 c7 00 00 00 00 	mov    rdi,0x0
    742e:	e8 00 00 00 00       	call   7433 <http_server_daemon+0x1b3>
    7433:	e9 b4 fe ff ff       	jmp    72ec <http_server_daemon+0x6c>
    7438:	e8 00 00 00 00       	call   743d <http_server_daemon+0x1bd>

Disassembly of section .init.text:

0000000000000000 <init_module>:
   0:	e8 00 00 00 00       	call   5 <init_module+0x5>
   5:	55                   	push   rbp
   6:	48 c7 c7 00 00 00 00 	mov    rdi,0x0
   d:	48 89 e5             	mov    rbp,rsp
  10:	41 55                	push   r13
  12:	41 54                	push   r12
  14:	53                   	push   rbx
  15:	48 83 ec 28          	sub    rsp,0x28
  19:	65 48 8b 04 25 28 00 	mov    rax,QWORD PTR gs:0x28
  20:	00 00 
  22:	48 89 45 e0          	mov    QWORD PTR [rbp-0x20],rax
  26:	31 c0                	xor    eax,eax
  28:	e8 00 00 00 00       	call   2d <init_module+0x2d>
  2d:	48 8d 4d c8          	lea    rcx,[rbp-0x38]
  31:	ba 06 00 00 00       	mov    edx,0x6
  36:	be 01 00 00 00       	mov    esi,0x1
  3b:	bf 02 00 00 00       	mov    edi,0x2
  40:	44 0f b7 2d 00 00 00 	movzx  r13d,WORD PTR [rip+0x0]        # 48 <init_module+0x48>
  47:	00 
  48:	44 0f b7 25 00 00 00 	movzx  r12d,WORD PTR [rip+0x0]        # 50 <init_module+0x50>
  4f:	00 
  50:	e8 00 00 00 00       	call   55 <init_module+0x55>
  55:	85 c0                	test   eax,eax
  57:	79 15                	jns    6e <init_module+0x6e>
  59:	89 c6                	mov    esi,eax
  5b:	48 c7 c7 00 00 00 00 	mov    rdi,0x0
  62:	89 c3                	mov    ebx,eax
  64:	e8 00 00 00 00       	call   69 <init_module+0x69>
  69:	e9 10 02 00 00       	jmp    27e <init_module+0x27e>
  6e:	48 8b 7d c8          	mov    rdi,QWORD PTR [rbp-0x38]
  72:	48 8d 4d c4          	lea    rcx,[rbp-0x3c]
  76:	41 b8 04 00 00 00    	mov    r8d,0x4
  7c:	ba 02 00 00 00       	mov    edx,0x2
  81:	be 01 00 00 00       	mov    esi,0x1
  86:	c7 45 c4 01 00 00 00 	mov    DWORD PTR [rbp-0x3c],0x1
  8d:	e8 00 00 00 00       	call   92 <init_module+0x92>
  92:	85 c0                	test   eax,eax
  94:	89 c3                	mov    ebx,eax
  96:	0f 88 87 01 00 00    	js     223 <init_module+0x223>
  9c:	48 8b 7d c8          	mov    rdi,QWORD PTR [rbp-0x38]
  a0:	48 8d 4d c4          	lea    rcx,[rbp-0x3c]
  a4:	41 b8 04 00 00 00    	mov    r8d,0x4
  aa:	ba 01 00 00 00       	mov    edx,0x1
  af:	be 06 00 00 00       	mov    esi,0x6
  b4:	c7 45 c4 01 00 00 00 	mov    DWORD PTR [rbp-0x3c],0x1
  bb:	e8 00 00 00 00       	call   c0 <init_module+0xc0>
  c0:	85 c0                	test   eax,eax
  c2:	89 c3                	mov    ebx,eax
  c4:	0f 88 59 01 00 00    	js     223 <init_module+0x223>
  ca:	48 8b 7d c8          	mov    rdi,QWORD PTR [rbp-0x38]
  ce:	48 8d 4d c4          	lea    rcx,[rbp-0x3c]
  d2:	41 b8 04 00 00 00    	mov    r8d,0x4
  d8:	ba 03 00 00 00       	mov    edx,0x3
  dd:	be 06 00 00 00       	mov    esi,0x6
  e2:	c7 45 c4 00 00 00 00 	mov    DWORD PTR [rbp-0x3c],0x0
  e9:	e8 00 00 00 00       	call   ee <init_module+0xee>
  ee:	85 c0                	test   eax,eax
  f0:	89 c3                	mov    ebx,eax
  f2:	0f 88 2b 01 00 00    	js     223 <init_module+0x223>
  f8:	48 8b 7d c8          	mov    rdi,QWORD PTR [rbp-0x38]
  fc:	48 8d 4d c4          	lea    rcx,[rbp-0x3c]
 100:	41 b8 04 00 00 00    	mov    r8d,0x4
 106:	ba 08 00 00 00       	mov    edx,0x8
 10b:	be 01 00 00 00       	mov    esi,0x1
 110:	c7 45 c4 00 00 10 00 	mov    DWORD PTR [rbp-0x3c],0x100000
 117:	e8 00 00 00 00       	call   11c <init_module+0x11c>
 11c:	85 c0                	test   eax,eax
 11e:	89 c3                	mov    ebx,eax
 120:	0f 88 fd 00 00 00    	js     223 <init_module+0x223>
 126:	48 8b 7d c8          	mov    rdi,QWORD PTR [rbp-0x38]
 12a:	48 8d 4d c4          	lea    rcx,[rbp-0x3c]
 12e:	41 b8 04 00 00 00    	mov    r8d,0x4
 134:	ba 07 00 00 00       	mov    edx,0x7
 139:	be 01 00 00 00       	mov    esi,0x1
 13e:	c7 45 c4 00 00 10 00 	mov    DWORD PTR [rbp-0x3c],0x100000
 145:	e8 00 00 00 00       	call   14a <init_module+0x14a>
 14a:	85 c0                	test   eax,eax
 14c:	89 c3                	mov    ebx,eax
 14e:	0f 88 cf 00 00 00    	js     223 <init_module+0x223>
 154:	48 8d 45 d0          	lea    rax,[rbp-0x30]
 158:	b9 03 00 00 00       	mov    ecx,0x3
 15d:	48 8d 75 d0          	lea    rsi,[rbp-0x30]
 161:	66 41 c1 c4 08       	rol    r12w,0x8
 166:	48 8d 50 04          	lea    rdx,[rax+0x4]
 16a:	31 c0                	xor    eax,eax
 16c:	66 c7 45 d0 02 00    	mov    WORD PTR [rbp-0x30],0x2
 172:	66 44 89 65 d2       	mov    WORD PTR [rbp-0x2e],r12w
 177:	48 89 d7             	mov    rdi,rdx
 17a:	ba 10 00 00 00       	mov    edx,0x10
 17f:	f3 ab                	rep stos DWORD PTR es:[rdi],eax
 181:	48 8b 7d c8          	mov    rdi,QWORD PTR [rbp-0x38]
 185:	e8 00 00 00 00       	call   18a <init_module+0x18a>
 18a:	85 c0                	test   eax,eax
 18c:	89 c3                	mov    ebx,eax
 18e:	79 13                	jns    1a3 <init_module+0x1a3>
 190:	89 c6                	mov    esi,eax
 192:	48 c7 c7 00 00 00 00 	mov    rdi,0x0
 199:	e8 00 00 00 00       	call   19e <init_module+0x19e>
 19e:	e9 8e 00 00 00       	jmp    231 <init_module+0x231>
 1a3:	48 8b 7d c8          	mov    rdi,QWORD PTR [rbp-0x38]
 1a7:	44 89 ee             	mov    esi,r13d
 1aa:	e8 00 00 00 00       	call   1af <init_module+0x1af>
 1af:	85 c0                	test   eax,eax
 1b1:	89 c3                	mov    ebx,eax
 1b3:	79 10                	jns    1c5 <init_module+0x1c5>
 1b5:	89 c6                	mov    esi,eax
 1b7:	48 c7 c7 00 00 00 00 	mov    rdi,0x0
 1be:	e8 00 00 00 00       	call   1c3 <init_module+0x1c3>
 1c3:	eb 6c                	jmp    231 <init_module+0x231>
 1c5:	48 8b 45 c8          	mov    rax,QWORD PTR [rbp-0x38]
 1c9:	31 d2                	xor    edx,edx
 1cb:	be 02 00 00 00       	mov    esi,0x2
 1d0:	48 c7 c7 00 00 00 00 	mov    rdi,0x0
 1d7:	48 89 05 00 00 00 00 	mov    QWORD PTR [rip+0x0],rax        # 1de <init_module+0x1de>
 1de:	48 89 05 00 00 00 00 	mov    QWORD PTR [rip+0x0],rax        # 1e5 <init_module+0x1e5>
 1e5:	e8 00 00 00 00       	call   1ea <init_module+0x1ea>
 1ea:	83 ca ff             	or     edx,0xffffffff
 1ed:	48 c7 c1 00 00 00 00 	mov    rcx,0x0
 1f4:	48 c7 c6 00 00 00 00 	mov    rsi,0x0
 1fb:	48 c7 c7 00 00 00 00 	mov    rdi,0x0
 202:	48 89 05 00 00 00 00 	mov    QWORD PTR [rip+0x0],rax        # 209 <init_module+0x209>
 209:	e8 00 00 00 00       	call   20e <init_module+0x20e>
 20e:	48 3d 00 f0 ff ff    	cmp    rax,0xfffffffffffff000
 214:	49 89 c4             	mov    r12,rax
 217:	77 23                	ja     23c <init_module+0x23c>
 219:	48 89 c7             	mov    rdi,rax
 21c:	e8 00 00 00 00       	call   221 <init_module+0x221>
 221:	eb 19                	jmp    23c <init_module+0x23c>
 223:	89 de                	mov    esi,ebx
 225:	48 c7 c7 00 00 00 00 	mov    rdi,0x0
 22c:	e8 00 00 00 00       	call   231 <init_module+0x231>
 231:	48 8b 7d c8          	mov    rdi,QWORD PTR [rbp-0x38]
 235:	e8 00 00 00 00       	call   23a <init_module+0x23a>
 23a:	eb 42                	jmp    27e <init_module+0x27e>
 23c:	31 db                	xor    ebx,ebx
 23e:	49 81 fc 00 f0 ff ff 	cmp    r12,0xfffffffffffff000
 245:	4c 89 25 00 00 00 00 	mov    QWORD PTR [rip+0x0],r12        # 24c <init_module+0x24c>
 24c:	76 3c                	jbe    28a <init_module+0x28a>
 24e:	48 c7 c7 00 00 00 00 	mov    rdi,0x0
 255:	e8 00 00 00 00       	call   25a <init_module+0x25a>
 25a:	48 8b 1d 00 00 00 00 	mov    rbx,QWORD PTR [rip+0x0]        # 261 <init_module+0x261>
 261:	be 02 00 00 00       	mov    esi,0x2
 266:	48 89 df             	mov    rdi,rbx
 269:	e8 00 00 00 00       	call   26e <init_module+0x26e>
 26e:	48 89 df             	mov    rdi,rbx
 271:	e8 00 00 00 00       	call   276 <init_module+0x276>
 276:	8b 1d 00 00 00 00    	mov    ebx,DWORD PTR [rip+0x0]        # 27c <init_module+0x27c>
 27c:	eb 0c                	jmp    28a <init_module+0x28a>
 27e:	48 c7 c7 00 00 00 00 	mov    rdi,0x0
 285:	e8 00 00 00 00       	call   28a <init_module+0x28a>
 28a:	48 8b 55 e0          	mov    rdx,QWORD PTR [rbp-0x20]
 28e:	65 48 33 14 25 28 00 	xor    rdx,QWORD PTR gs:0x28
 295:	00 00 
 297:	89 d8                	mov    eax,ebx
 299:	74 05                	je     2a0 <init_module+0x2a0>
 29b:	e8 00 00 00 00       	call   2a0 <init_module+0x2a0>
 2a0:	48 83 c4 28          	add    rsp,0x28
 2a4:	5b                   	pop    rbx
 2a5:	41 5c                	pop    r12
 2a7:	41 5d                	pop    r13
 2a9:	5d                   	pop    rbp
 2aa:	c3                   	ret    

Disassembly of section .exit.text:

0000000000000000 <cleanup_module>:
   0:	55                   	push   rbp
   1:	48 8b 35 00 00 00 00 	mov    rsi,QWORD PTR [rip+0x0]        # 8 <cleanup_module+0x8>
   8:	ba 01 00 00 00       	mov    edx,0x1
   d:	bf 0f 00 00 00       	mov    edi,0xf
  12:	48 89 e5             	mov    rbp,rsp
  15:	53                   	push   rbx
  16:	e8 00 00 00 00       	call   1b <cleanup_module+0x1b>
  1b:	48 8b 3d 00 00 00 00 	mov    rdi,QWORD PTR [rip+0x0]        # 22 <cleanup_module+0x22>
  22:	e8 00 00 00 00       	call   27 <cleanup_module+0x27>
  27:	48 8b 1d 00 00 00 00 	mov    rbx,QWORD PTR [rip+0x0]        # 2e <cleanup_module+0x2e>
  2e:	be 02 00 00 00       	mov    esi,0x2
  33:	48 89 df             	mov    rdi,rbx
  36:	e8 00 00 00 00       	call   3b <cleanup_module+0x3b>
  3b:	48 89 df             	mov    rdi,rbx
  3e:	e8 00 00 00 00       	call   43 <cleanup_module+0x43>
  43:	48 8b 3d 00 00 00 00 	mov    rdi,QWORD PTR [rip+0x0]        # 4a <cleanup_module+0x4a>
  4a:	e8 00 00 00 00       	call   4f <cleanup_module+0x4f>
  4f:	48 c7 c7 00 00 00 00 	mov    rdi,0x0
  56:	e8 00 00 00 00       	call   5b <cleanup_module+0x5b>
  5b:	5b                   	pop    rbx
  5c:	5d                   	pop    rbp
  5d:	c3                   	ret    

Disassembly of section .rodata:

0000000000000000 <radix_chars>:
       0:	30 31                	xor    BYTE PTR [rcx],dh
       2:	32 33                	xor    dh,BYTE PTR [rbx]
       4:	34 35                	xor    al,0x35
       6:	36 37                	ss (bad) 
       8:	38 39                	cmp    BYTE PTR [rcx],bh
       a:	41                   	rex.B
       b:	42                   	rex.X
       c:	43                   	rex.XB
       d:	44                   	rex.R
       e:	45                   	rex.RB
       f:	46                   	rex.RX
      10:	47                   	rex.RXB
      11:	48                   	rex.W
      12:	49                   	rex.WB
      13:	4a                   	rex.WX
      14:	4b                   	rex.WXB
      15:	4c                   	rex.WR
      16:	4d                   	rex.WRB
      17:	4e                   	rex.WRX
      18:	4f 50                	rex.WRXB push r8
      1a:	51                   	push   rcx
      1b:	52                   	push   rdx
      1c:	53                   	push   rbx
      1d:	54                   	push   rsp
      1e:	55                   	push   rbp
      1f:	56                   	push   rsi
      20:	57                   	push   rdi
      21:	58                   	pop    rax
      22:	59                   	pop    rcx
      23:	5a                   	pop    rdx
	...

0000000000000040 <radix_table>:
	...
      64:	00 00                	add    BYTE PTR [rax],al
      66:	00 80 3f 00 00 00    	add    BYTE PTR [rax+0x3f],al
      6c:	00 00                	add    BYTE PTR [rax],al
      6e:	00 00                	add    BYTE PTR [rax],al
      70:	21 e8                	and    eax,ebp
      72:	1f                   	(bad)  
      73:	29 52 b4             	sub    DWORD PTR [rdx-0x4c],edx
      76:	b8 a8 28 00 00       	mov    eax,0x28a8
	...
      87:	40 1f                	rex (bad) 
      89:	00 00                	add    BYTE PTR [rax],al
      8b:	00 00                	add    BYTE PTR [rax],al
      8d:	00 00                	add    BYTE PTR [rax],al
      8f:	00 9d 07 10 fa 93    	add    BYTE PTR [rbp-0x6c05eff9],bl
      95:	c7                   	(bad)  
      96:	65 67 1b 00          	sbb    eax,DWORD PTR gs:[eax]
	...
      a2:	00 e1                	add    cl,ah
      a4:	b8 1c c2 41 18       	mov    eax,0x1841c21c
      a9:	00 00                	add    BYTE PTR [rax],al
      ab:	00 00                	add    BYTE PTR [rax],al
      ad:	00 00                	add    BYTE PTR [rax],al
      af:	00 11                	add    BYTE PTR [rcx],dl
      b1:	61                   	(bad)  
      b2:	22 50 87             	and    dl,BYTE PTR [rax-0x79]
      b5:	79 42                	jns    f9 <radix_table+0xb9>
      b7:	36 16                	ss (bad) 
	...
      c5:	00 00                	add    BYTE PTR [rax],al
      c7:	80 15 00 00 00 00 00 	adc    BYTE PTR [rip+0x0],0x0        # ce <radix_table+0x8e>
      ce:	00 00                	add    BYTE PTR [rax],al
      d0:	21 e8                	and    eax,ebp
      d2:	1f                   	(bad)  
      d3:	29 52 b4             	sub    DWORD PTR [rdx-0x4c],edx
      d6:	b8 a8 14 00 00       	mov    eax,0x14a8
      db:	00 00                	add    BYTE PTR [rax],al
      dd:	00 00                	add    BYTE PTR [rax],al
      df:	00 00                	add    BYTE PTR [rax],al
      e1:	00 e8                	add    al,ch
      e3:	89 04 23             	mov    DWORD PTR [rbx+riz*1],eax
      e6:	c7                   	(bad)  
      e7:	8a 13                	mov    dl,BYTE PTR [rbx]
      e9:	00 00                	add    BYTE PTR [rax],al
      eb:	00 00                	add    BYTE PTR [rax],al
      ed:	00 00                	add    BYTE PTR [rax],al
      ef:	00 39                	add    BYTE PTR [rcx],bh
      f1:	a5                   	movs   DWORD PTR es:[rdi],DWORD PTR ds:[rsi]
      f2:	3f                   	(bad)  
      f3:	c3                   	ret    
      f4:	56                   	push   rsi
      f5:	cb                   	retf   
      f6:	28 4d 12             	sub    BYTE PTR [rbp+0x12],cl
	...
     101:	00 00                	add    BYTE PTR [rax],al
     103:	00 0c 17             	add    BYTE PTR [rdi+rdx*1],cl
     106:	ca 1e 11             	retf   0x111e
     109:	00 00                	add    BYTE PTR [rax],al
     10b:	00 00                	add    BYTE PTR [rax],al
     10d:	00 00                	add    BYTE PTR [rax],al
     10f:	00 4d d7             	add    BYTE PTR [rbp-0x29],cl
     112:	1b 62 72             	sbb    esp,DWORD PTR [rdx+0x72]
     115:	73 0c                	jae    123 <radix_table+0xe3>
     117:	78 11                	js     12a <radix_table+0xea>
	...
     121:	00 81 7d 05 a5 39    	add    BYTE PTR [rcx+0x39a5057d],al
     127:	1e                   	(bad)  
     128:	10 00                	adc    BYTE PTR [rax],al
     12a:	00 00                	add    BYTE PTR [rax],al
     12c:	00 00                	add    BYTE PTR [rax],al
     12e:	00 00                	add    BYTE PTR [rax],al
     130:	01 77 f9             	add    DWORD PTR [rdi-0x7],esi
     133:	3d 99 ac 27 5b       	cmp    eax,0x5b27ac99
     138:	10 00                	adc    BYTE PTR [rax],al
	...
     146:	00 10                	add    BYTE PTR [rax],dl
     148:	0f 00 00             	sldt   WORD PTR [rax]
     14b:	00 00                	add    BYTE PTR [rax],al
     14d:	00 00                	add    BYTE PTR [rax],al
     14f:	00 f1                	add    cl,dh
     151:	d9 21                	fldenv [rcx]
     153:	7e 99                	jle    ee <radix_table+0xae>
     155:	5e                   	pop    rsi
     156:	b9 27 0f 00 00       	mov    ecx,0xf27
     15b:	00 00                	add    BYTE PTR [rax],al
     15d:	00 00                	add    BYTE PTR [rax],al
     15f:	00 00                	add    BYTE PTR [rax],al
     161:	80 5c 3c e5 e1       	sbb    BYTE PTR [rsp+rdi*1-0x1b],0xe1
     166:	a0 5d 0f 00 00 00 00 	movabs al,ds:0xf5d
     16d:	00 00 
     16f:	00 db                	add    bl,bl
     171:	ae                   	scas   al,BYTE PTR es:[rdi]
     172:	c4 c1 99 32          	(bad)  
     176:	ae                   	scas   al,BYTE PTR es:[rdi]
     177:	d2 0f                	ror    BYTE PTR [rdi],cl
	...
     181:	00 00                	add    BYTE PTR [rax],al
     183:	90                   	nop
     184:	1e                   	(bad)  
     185:	c4                   	(bad)  
     186:	bc 16 0e 00 00       	mov    esp,0xe16
     18b:	00 00                	add    BYTE PTR [rax],al
     18d:	00 00                	add    BYTE PTR [rax],al
     18f:	00 49 ef             	add    BYTE PTR [rcx-0x11],cl
     192:	c0 d9 fd             	rcr    cl,0xfd
     195:	b7 04                	mov    bh,0x4
     197:	2d 0e 00 00 00       	sub    eax,0xe
     19c:	00 00                	add    BYTE PTR [rax],al
     19e:	00 00                	add    BYTE PTR [rax],al
     1a0:	00 40 a2             	add    BYTE PTR [rax-0x5e],al
     1a3:	ca 7b 59             	retf   0x597b
     1a6:	58                   	pop    rax
     1a7:	56                   	push   rsi
     1a8:	0e                   	(bad)  
     1a9:	00 00                	add    BYTE PTR [rax],al
     1ab:	00 00                	add    BYTE PTR [rax],al
     1ad:	00 00                	add    BYTE PTR [rax],al
     1af:	00 71 93             	add    BYTE PTR [rcx-0x6d],dh
     1b2:	60                   	(bad)  
     1b3:	37                   	(bad)  
     1b4:	37                   	(bad)  
     1b5:	07                   	(bad)  
     1b6:	e2 a0                	loop   158 <radix_table+0x118>
     1b8:	0e                   	(bad)  
	...
     1c1:	00 00                	add    BYTE PTR [rax],al
     1c3:	00 80 e9 29 0c 0d    	add    BYTE PTR [rax+0xd0c29e9],al
     1c9:	00 00                	add    BYTE PTR [rax],al
     1cb:	00 00                	add    BYTE PTR [rax],al
     1cd:	00 00                	add    BYTE PTR [rax],al
     1cf:	00 b9 34 03 32 b7    	add    BYTE PTR [rcx-0x48cdfccc],bh
     1d5:	f4                   	hlt    
     1d6:	ad                   	lods   eax,DWORD PTR ds:[rsi]
     1d7:	14 0d                	adc    al,0xd
	...
     1e1:	a0 bf 78 64 d3 6e 22 	movabs al,ds:0xd226ed36478bf
     1e8:	0d 00 
     1ea:	00 00                	add    BYTE PTR [rax],al
     1ec:	00 00                	add    BYTE PTR [rax],al
     1ee:	00 00                	add    BYTE PTR [rax],al
     1f0:	0b f8                	or     edi,eax
     1f2:	5f                   	pop    rdi
     1f3:	b8 70 91 3d 38       	mov    eax,0x383d9170
     1f8:	0d 00 00 00 00       	or     eax,0x0
     1fd:	00 00                	add    BYTE PTR [rax],al
     1ff:	00 00                	add    BYTE PTR [rax],al
     201:	00 00                	add    BYTE PTR [rax],al
     203:	9c                   	pushf  
     204:	e3 23                	jrcxz  229 <radix_table+0x1e9>
     206:	3c 5a                	cmp    al,0x5a
     208:	0d 00 00 00 00       	or     eax,0x0
     20d:	00 00                	add    BYTE PTR [rax],al
     20f:	00 cd                	add    ch,cl
     211:	2b 12                	sub    edx,DWORD PTR [rdx]
     213:	88 73 13             	mov    BYTE PTR [rbx+0x13],dh
     216:	65 8e 0d 00 00 00 00 	mov    cs,WORD PTR gs:[rip+0x0]        # 21d <radix_table+0x1dd>
     21d:	00 00                	add    BYTE PTR [rax],al
     21f:	00 00                	add    BYTE PTR [rax],al
     221:	e0 59                	loopne 27c <radix_table+0x23c>
     223:	d2 36                	shl    BYTE PTR [rsi],cl
     225:	bb 41 dd 0d 00       	mov    ebx,0xddd41
     22a:	00 00                	add    BYTE PTR [rax],al
     22c:	00 00                	add    BYTE PTR [rax],al
     22e:	00 00                	add    BYTE PTR [rax],al
     230:	81 06 83 ee 20 57    	add    DWORD PTR [rsi],0x5720ee83
     236:	ee                   	out    dx,al
     237:	0a 0c 00             	or     cl,BYTE PTR [rax+rax*1]
	...
     246:	00 10                	add    BYTE PTR [rax],dl
     248:	0c 00                	or     al,0x0
     24a:	00 00                	add    BYTE PTR [rax],al
     24c:	00 00                	add    BYTE PTR [rax],al
     24e:	00 00                	add    BYTE PTR [rax],al
     250:	81 09 5f 4f ad 88    	or     DWORD PTR [rcx],0x88ad4f5f
     256:	25 17 0c 00 00       	and    eax,0xc17
     25b:	00 00                	add    BYTE PTR [rax],al
     25d:	00 00                	add    BYTE PTR [rax],al
     25f:	00 00                	add    BYTE PTR [rax],al
     261:	10 2c d0             	adc    BYTE PTR [rax+rdx*8],ch
     264:	f7 44 1e 21 0c 00 00 	test   DWORD PTR [rsi+rbx*1+0x21],0xc
     26b:	00 
     26c:	00 00                	add    BYTE PTR [rax],al
     26e:	00 00                	add    BYTE PTR [rax],al
     270:	71 5c                	jno    2ce <CSWTCH.194+0x2e>
     272:	6e                   	outs   dx,BYTE PTR ds:[rsi]
     273:	f0 25 67 e5 2e 0c    	lock and eax,0xc2ee567
	...
     281:	00 00                	add    BYTE PTR [rax],al
     283:	e1 b8                	loope  23d <radix_table+0x1fd>
     285:	1c c2                	sbb    al,0xc2
     287:	41 0c 00             	rex.B or al,0x0
	...

00000000000002a0 <CSWTCH.194>:
	...

0000000000000f80 <http_strerror_tab>:
	...

00000000000011a0 <normal_url_char>:
    11a0:	00 00                	add    BYTE PTR [rax],al
    11a2:	00 00                	add    BYTE PTR [rax],al
    11a4:	f6 ff                	idiv   bh
    11a6:	ff                   	(bad)  
    11a7:	7f ff                	jg     11a8 <normal_url_char+0x8>
    11a9:	ff                   	(bad)  
    11aa:	ff                   	(bad)  
    11ab:	ff                   	(bad)  
    11ac:	ff                   	(bad)  
    11ad:	ff                   	(bad)  
    11ae:	ff                   	(bad)  
    11af:	7f 00                	jg     11b1 <normal_url_char+0x11>
	...

00000000000011c0 <unhex>:
    11c0:	ff                   	(bad)  
    11c1:	ff                   	(bad)  
    11c2:	ff                   	(bad)  
    11c3:	ff                   	(bad)  
    11c4:	ff                   	(bad)  
    11c5:	ff                   	(bad)  
    11c6:	ff                   	(bad)  
    11c7:	ff                   	(bad)  
    11c8:	ff                   	(bad)  
    11c9:	ff                   	(bad)  
    11ca:	ff                   	(bad)  
    11cb:	ff                   	(bad)  
    11cc:	ff                   	(bad)  
    11cd:	ff                   	(bad)  
    11ce:	ff                   	(bad)  
    11cf:	ff                   	(bad)  
    11d0:	ff                   	(bad)  
    11d1:	ff                   	(bad)  
    11d2:	ff                   	(bad)  
    11d3:	ff                   	(bad)  
    11d4:	ff                   	(bad)  
    11d5:	ff                   	(bad)  
    11d6:	ff                   	(bad)  
    11d7:	ff                   	(bad)  
    11d8:	ff                   	(bad)  
    11d9:	ff                   	(bad)  
    11da:	ff                   	(bad)  
    11db:	ff                   	(bad)  
    11dc:	ff                   	(bad)  
    11dd:	ff                   	(bad)  
    11de:	ff                   	(bad)  
    11df:	ff                   	(bad)  
    11e0:	ff                   	(bad)  
    11e1:	ff                   	(bad)  
    11e2:	ff                   	(bad)  
    11e3:	ff                   	(bad)  
    11e4:	ff                   	(bad)  
    11e5:	ff                   	(bad)  
    11e6:	ff                   	(bad)  
    11e7:	ff                   	(bad)  
    11e8:	ff                   	(bad)  
    11e9:	ff                   	(bad)  
    11ea:	ff                   	(bad)  
    11eb:	ff                   	(bad)  
    11ec:	ff                   	(bad)  
    11ed:	ff                   	(bad)  
    11ee:	ff                   	(bad)  
    11ef:	ff 00                	inc    DWORD PTR [rax]
    11f1:	01 02                	add    DWORD PTR [rdx],eax
    11f3:	03 04 05 06 07 08 09 	add    eax,DWORD PTR [rax*1+0x9080706]
    11fa:	ff                   	(bad)  
    11fb:	ff                   	(bad)  
    11fc:	ff                   	(bad)  
    11fd:	ff                   	(bad)  
    11fe:	ff                   	(bad)  
    11ff:	ff                   	(bad)  
    1200:	ff 0a                	dec    DWORD PTR [rdx]
    1202:	0b 0c 0d 0e 0f ff ff 	or     ecx,DWORD PTR [rcx*1-0xf0f2]
    1209:	ff                   	(bad)  
    120a:	ff                   	(bad)  
    120b:	ff                   	(bad)  
    120c:	ff                   	(bad)  
    120d:	ff                   	(bad)  
    120e:	ff                   	(bad)  
    120f:	ff                   	(bad)  
    1210:	ff                   	(bad)  
    1211:	ff                   	(bad)  
    1212:	ff                   	(bad)  
    1213:	ff                   	(bad)  
    1214:	ff                   	(bad)  
    1215:	ff                   	(bad)  
    1216:	ff                   	(bad)  
    1217:	ff                   	(bad)  
    1218:	ff                   	(bad)  
    1219:	ff                   	(bad)  
    121a:	ff                   	(bad)  
    121b:	ff                   	(bad)  
    121c:	ff                   	(bad)  
    121d:	ff                   	(bad)  
    121e:	ff                   	(bad)  
    121f:	ff                   	(bad)  
    1220:	ff 0a                	dec    DWORD PTR [rdx]
    1222:	0b 0c 0d 0e 0f ff ff 	or     ecx,DWORD PTR [rcx*1-0xf0f2]
    1229:	ff                   	(bad)  
    122a:	ff                   	(bad)  
    122b:	ff                   	(bad)  
    122c:	ff                   	(bad)  
    122d:	ff                   	(bad)  
    122e:	ff                   	(bad)  
    122f:	ff                   	(bad)  
    1230:	ff                   	(bad)  
    1231:	ff                   	(bad)  
    1232:	ff                   	(bad)  
    1233:	ff                   	(bad)  
    1234:	ff                   	(bad)  
    1235:	ff                   	(bad)  
    1236:	ff                   	(bad)  
    1237:	ff                   	(bad)  
    1238:	ff                   	(bad)  
    1239:	ff                   	(bad)  
    123a:	ff                   	(bad)  
    123b:	ff                   	(bad)  
    123c:	ff                   	(bad)  
    123d:	ff                   	(bad)  
    123e:	ff                   	(bad)  
    123f:	ff 00                	inc    DWORD PTR [rax]
	...

00000000000012c0 <tokens>:
	...
    12e0:	20 21                	and    BYTE PTR [rcx],ah
    12e2:	00 23                	add    BYTE PTR [rbx],ah
    12e4:	24 25                	and    al,0x25
    12e6:	26 27                	es (bad) 
    12e8:	00 00                	add    BYTE PTR [rax],al
    12ea:	2a 2b                	sub    ch,BYTE PTR [rbx]
    12ec:	00 2d 2e 00 30 31    	add    BYTE PTR [rip+0x3130002e],ch        # 31301320 <http_server_daemon+0x312fa0a0>
    12f2:	32 33                	xor    dh,BYTE PTR [rbx]
    12f4:	34 35                	xor    al,0x35
    12f6:	36 37                	ss (bad) 
    12f8:	38 39                	cmp    BYTE PTR [rcx],bh
    12fa:	00 00                	add    BYTE PTR [rax],al
    12fc:	00 00                	add    BYTE PTR [rax],al
    12fe:	00 00                	add    BYTE PTR [rax],al
    1300:	00 61 62             	add    BYTE PTR [rcx+0x62],ah
    1303:	63 64 65 66          	movsxd esp,DWORD PTR [rbp+riz*2+0x66]
    1307:	67 68 69 6a 6b 6c    	addr32 push 0x6c6b6a69
    130d:	6d                   	ins    DWORD PTR es:[rdi],dx
    130e:	6e                   	outs   dx,BYTE PTR ds:[rsi]
    130f:	6f                   	outs   dx,DWORD PTR ds:[rsi]
    1310:	70 71                	jo     1383 <tokens+0xc3>
    1312:	72 73                	jb     1387 <tokens+0xc7>
    1314:	74 75                	je     138b <tokens+0xcb>
    1316:	76 77                	jbe    138f <tokens+0xcf>
    1318:	78 79                	js     1393 <tokens+0xd3>
    131a:	7a 00                	jp     131c <tokens+0x5c>
    131c:	00 00                	add    BYTE PTR [rax],al
    131e:	5e                   	pop    rsi
    131f:	5f                   	pop    rdi
    1320:	60                   	(bad)  
    1321:	61                   	(bad)  
    1322:	62 63 64 65 66       	(bad)  {k5}
    1327:	67 68 69 6a 6b 6c    	addr32 push 0x6c6b6a69
    132d:	6d                   	ins    DWORD PTR es:[rdi],dx
    132e:	6e                   	outs   dx,BYTE PTR ds:[rsi]
    132f:	6f                   	outs   dx,DWORD PTR ds:[rsi]
    1330:	70 71                	jo     13a3 <tokens+0xe3>
    1332:	72 73                	jb     13a7 <tokens+0xe7>
    1334:	74 75                	je     13ab <tokens+0xeb>
    1336:	76 77                	jbe    13af <tokens+0xef>
    1338:	78 79                	js     13b3 <tokens+0xf3>
    133a:	7a 00                	jp     133c <tokens+0x7c>
    133c:	7c 00                	jl     133e <tokens+0x7e>
    133e:	7e 00                	jle    1340 <tokens+0x80>
	...

00000000000013c0 <method_strings>:
	...

00000000000014d0 <__param_str_backlog>:
    14d0:	62 61                	(bad)  
    14d2:	63 6b 6c             	movsxd ebp,DWORD PTR [rbx+0x6c]
    14d5:	6f                   	outs   dx,DWORD PTR ds:[rsi]
    14d6:	67 00            	add    BYTE PTR [eax+0x6f],dh

00000000000014d8 <__param_str_port>:
    14d8:	70 6f                	jo     1549 <__param_str_port+0x71>
    14da:	72 74                	jb     1550 <__param_str_port+0x78>
	...

Disassembly of section __mcount_loc:

0000000000000000 <__mcount_loc>:
	...

Disassembly of section .rodata.str1.1:

0000000000000000 <.rodata.str1.1>:
   0:	75 70                	jne    72 <.rodata.str1.1+0x72>
   2:	67 72 61             	addr32 jb 66 <.rodata.str1.1+0x66>
   5:	64 65 00 63 68       	fs add BYTE PTR gs:[rbx+0x68],ah
   a:	75 6e                	jne    7a <.rodata.str1.1+0x7a>
   c:	6b 65 64 00          	imul   esp,DWORD PTR [rbp+0x64],0x0
  10:	63 6c 6f 73          	movsxd ebp,DWORD PTR [rdi+rbp*2+0x73]
  14:	65 00 6b 65          	add    BYTE PTR gs:[rbx+0x65],ch
  18:	65 70 2d             	gs jo  48 <.rodata.str1.1+0x48>
  1b:	61                   	(bad)  
  1c:	6c                   	ins    BYTE PTR es:[rdi],dx
  1d:	69 76 65 00 70 72 6f 	imul   esi,DWORD PTR [rsi+0x65],0x6f727000
  24:	78 79                	js     9f <.rodata.str1.1+0x9f>
  26:	2d 63 6f 6e 6e       	sub    eax,0x6e6e6f63
  2b:	65 63 74 69 6f       	movsxd esi,DWORD PTR gs:[rcx+rbp*2+0x6f]
  30:	6e                   	outs   dx,BYTE PTR ds:[rsi]
  31:	00 63 6f             	add    BYTE PTR [rbx+0x6f],ah
  34:	6e                   	outs   dx,BYTE PTR ds:[rsi]
  35:	6e                   	outs   dx,BYTE PTR ds:[rsi]
  36:	65 63 74 69 6f       	movsxd esi,DWORD PTR gs:[rcx+rbp*2+0x6f]
  3b:	6e                   	outs   dx,BYTE PTR ds:[rsi]
  3c:	00 63 6f             	add    BYTE PTR [rbx+0x6f],ah
  3f:	6e                   	outs   dx,BYTE PTR ds:[rsi]
  40:	74 65                	je     a7 <.rodata.str1.1+0xa7>
  42:	6e                   	outs   dx,BYTE PTR ds:[rsi]
  43:	74 2d                	je     72 <.rodata.str1.1+0x72>
  45:	6c                   	ins    BYTE PTR es:[rdi],dx
  46:	65 6e                	outs   dx,BYTE PTR gs:[rsi]
  48:	67 74 68             	addr32 je b3 <.rodata.str1.1+0xb3>
  4b:	00 74 72 61          	add    BYTE PTR [rdx+rsi*2+0x61],dh
  4f:	6e                   	outs   dx,BYTE PTR ds:[rsi]
  50:	73 66                	jae    b8 <.rodata.str1.1+0xb8>
  52:	65 72 2d             	gs jb  82 <.rodata.str1.1+0x82>
  55:	65 6e                	outs   dx,BYTE PTR gs:[rsi]
  57:	63 6f 64             	movsxd ebp,DWORD PTR [rdi+0x64]
  5a:	69 6e 67 00 3c 75 6e 	imul   ebp,DWORD PTR [rsi+0x67],0x6e753c00
  61:	6b 6e 6f 77          	imul   ebp,DWORD PTR [rsi+0x6f],0x77
  65:	6e                   	outs   dx,BYTE PTR ds:[rsi]
  66:	3e 00 43 6f          	add    BYTE PTR ds:[rbx+0x6f],al
  6a:	6e                   	outs   dx,BYTE PTR ds:[rsi]
  6b:	74 69                	je     d6 <.rodata.str1.1+0xd6>
  6d:	6e                   	outs   dx,BYTE PTR ds:[rsi]
  6e:	75 65                	jne    d5 <.rodata.str1.1+0xd5>
  70:	00 53 77             	add    BYTE PTR [rbx+0x77],dl
  73:	69 74 63 68 69 6e 67 	imul   esi,DWORD PTR [rbx+riz*2+0x68],0x20676e69
  7a:	20 
  7b:	50                   	push   rax
  7c:	72 6f                	jb     ed <.rodata.str1.1+0xed>
  7e:	74 6f                	je     ef <.rodata.str1.1+0xef>
  80:	63 6f 6c             	movsxd ebp,DWORD PTR [rdi+0x6c]
  83:	73 00                	jae    85 <.rodata.str1.1+0x85>
  85:	50                   	push   rax
  86:	72 6f                	jb     f7 <.rodata.str1.1+0xf7>
  88:	63 65 73             	movsxd esp,DWORD PTR [rbp+0x73]
  8b:	73 69                	jae    f6 <.rodata.str1.1+0xf6>
  8d:	6e                   	outs   dx,BYTE PTR ds:[rsi]
  8e:	67 00 4f 4b          	add    BYTE PTR [edi+0x4b],cl
  92:	00 43 72             	add    BYTE PTR [rbx+0x72],al
  95:	65 61                	gs (bad) 
  97:	74 65                	je     fe <.rodata.str1.1+0xfe>
  99:	64 00 41 63          	add    BYTE PTR fs:[rcx+0x63],al
  9d:	63 65 70             	movsxd esp,DWORD PTR [rbp+0x70]
  a0:	74 65                	je     107 <.rodata.str1.1+0x107>
  a2:	64 00 4e 6f          	add    BYTE PTR fs:[rsi+0x6f],cl
  a6:	6e                   	outs   dx,BYTE PTR ds:[rsi]
  a7:	2d 41 75 74 68       	sub    eax,0x68747541
  ac:	6f                   	outs   dx,DWORD PTR ds:[rsi]
  ad:	72 69                	jb     118 <.rodata.str1.1+0x118>
  af:	74 61                	je     112 <.rodata.str1.1+0x112>
  b1:	74 69                	je     11c <.rodata.str1.1+0x11c>
  b3:	76 65                	jbe    11a <.rodata.str1.1+0x11a>
  b5:	20 49 6e             	and    BYTE PTR [rcx+0x6e],cl
  b8:	66 6f                	outs   dx,WORD PTR ds:[rsi]
  ba:	72 6d                	jb     129 <.rodata.str1.1+0x129>
  bc:	61                   	(bad)  
  bd:	74 69                	je     128 <.rodata.str1.1+0x128>
  bf:	6f                   	outs   dx,DWORD PTR ds:[rsi]
  c0:	6e                   	outs   dx,BYTE PTR ds:[rsi]
  c1:	00 4e 6f             	add    BYTE PTR [rsi+0x6f],cl
  c4:	20 43 6f             	and    BYTE PTR [rbx+0x6f],al
  c7:	6e                   	outs   dx,BYTE PTR ds:[rsi]
  c8:	74 65                	je     12f <.rodata.str1.1+0x12f>
  ca:	6e                   	outs   dx,BYTE PTR ds:[rsi]
  cb:	74 00                	je     cd <.rodata.str1.1+0xcd>
  cd:	52                   	push   rdx
  ce:	65 73 65             	gs jae 136 <.rodata.str1.1+0x136>
  d1:	74 20                	je     f3 <.rodata.str1.1+0xf3>
  d3:	43 6f                	rex.XB outs dx,DWORD PTR ds:[rsi]
  d5:	6e                   	outs   dx,BYTE PTR ds:[rsi]
  d6:	74 65                	je     13d <.rodata.str1.1+0x13d>
  d8:	6e                   	outs   dx,BYTE PTR ds:[rsi]
  d9:	74 00                	je     db <.rodata.str1.1+0xdb>
  db:	50                   	push   rax
  dc:	61                   	(bad)  
  dd:	72 74                	jb     153 <.rodata.str1.1+0x153>
  df:	69 61 6c 20 43 6f 6e 	imul   esp,DWORD PTR [rcx+0x6c],0x6e6f4320
  e6:	74 65                	je     14d <.rodata.str1.1+0x14d>
  e8:	6e                   	outs   dx,BYTE PTR ds:[rsi]
  e9:	74 00                	je     eb <.rodata.str1.1+0xeb>
  eb:	4d 75 6c             	rex.WRB jne 15a <.rodata.str1.1+0x15a>
  ee:	74 69                	je     159 <.rodata.str1.1+0x159>
  f0:	2d 53 74 61 74       	sub    eax,0x74617453
  f5:	75 73                	jne    16a <.rodata.str1.1+0x16a>
  f7:	00 41 6c             	add    BYTE PTR [rcx+0x6c],al
  fa:	72 65                	jb     161 <.rodata.str1.1+0x161>
  fc:	61                   	(bad)  
  fd:	64 79 20             	fs jns 120 <.rodata.str1.1+0x120>
 100:	52                   	push   rdx
 101:	65 70 6f             	gs jo  173 <.rodata.str1.1+0x173>
 104:	72 74                	jb     17a <.rodata.str1.1+0x17a>
 106:	65 64 00 49 4d       	gs add BYTE PTR fs:[rcx+0x4d],cl
 10b:	20 55 73             	and    BYTE PTR [rbp+0x73],dl
 10e:	65 64 00 4d 75       	gs add BYTE PTR fs:[rbp+0x75],cl
 113:	6c                   	ins    BYTE PTR es:[rdi],dx
 114:	74 69                	je     17f <.rodata.str1.1+0x17f>
 116:	70 6c                	jo     184 <.rodata.str1.1+0x184>
 118:	65 20 43 68          	and    BYTE PTR gs:[rbx+0x68],al
 11c:	6f                   	outs   dx,DWORD PTR ds:[rsi]
 11d:	69 63 65 73 00 4d 6f 	imul   esp,DWORD PTR [rbx+0x65],0x6f4d0073
 124:	76 65                	jbe    18b <.rodata.str1.1+0x18b>
 126:	64 20 50 65          	and    BYTE PTR fs:[rax+0x65],dl
 12a:	72 6d                	jb     199 <.rodata.str1.1+0x199>
 12c:	61                   	(bad)  
 12d:	6e                   	outs   dx,BYTE PTR ds:[rsi]
 12e:	65 6e                	outs   dx,BYTE PTR gs:[rsi]
 130:	74 6c                	je     19e <.rodata.str1.1+0x19e>
 132:	79 00                	jns    134 <.rodata.str1.1+0x134>
 134:	46 6f                	rex.RX outs dx,DWORD PTR ds:[rsi]
 136:	75 6e                	jne    1a6 <.rodata.str1.1+0x1a6>
 138:	64 00 53 65          	add    BYTE PTR fs:[rbx+0x65],dl
 13c:	65 20 4f 74          	and    BYTE PTR gs:[rdi+0x74],cl
 140:	68 65 72 00 4e       	push   0x4e007265
 145:	6f                   	outs   dx,DWORD PTR ds:[rsi]
 146:	74 20                	je     168 <.rodata.str1.1+0x168>
 148:	4d 6f                	rex.WRB outs dx,DWORD PTR ds:[rsi]
 14a:	64 69 66 69 65 64 00 	imul   esp,DWORD PTR fs:[rsi+0x69],0x55006465
 151:	55 
 152:	73 65                	jae    1b9 <.rodata.str1.1+0x1b9>
 154:	20 50 72             	and    BYTE PTR [rax+0x72],dl
 157:	6f                   	outs   dx,DWORD PTR ds:[rsi]
 158:	78 79                	js     1d3 <.rodata.str1.1+0x1d3>
 15a:	00 54 65 6d          	add    BYTE PTR [rbp+riz*2+0x6d],dl
 15e:	70 6f                	jo     1cf <.rodata.str1.1+0x1cf>
 160:	72 61                	jb     1c3 <.rodata.str1.1+0x1c3>
 162:	72 79                	jb     1dd <.rodata.str1.1+0x1dd>
 164:	20 52 65             	and    BYTE PTR [rdx+0x65],dl
 167:	64 69 72 65 63 74 00 	imul   esi,DWORD PTR fs:[rdx+0x65],0x50007463
 16e:	50 
 16f:	65 72 6d             	gs jb  1df <.rodata.str1.1+0x1df>
 172:	61                   	(bad)  
 173:	6e                   	outs   dx,BYTE PTR ds:[rsi]
 174:	65 6e                	outs   dx,BYTE PTR gs:[rsi]
 176:	74 20                	je     198 <.rodata.str1.1+0x198>
 178:	52                   	push   rdx
 179:	65 64 69 72 65 63 74 	gs imul esi,DWORD PTR fs:[rdx+0x65],0x42007463
 180:	00 42 
 182:	61                   	(bad)  
 183:	64 20 52 65          	and    BYTE PTR fs:[rdx+0x65],dl
 187:	71 75                	jno    1fe <.rodata.str1.1+0x1fe>
 189:	65 73 74             	gs jae 200 <.rodata.str1.1+0x200>
 18c:	00 55 6e             	add    BYTE PTR [rbp+0x6e],dl
 18f:	61                   	(bad)  
 190:	75 74                	jne    206 <.rodata.str1.1+0x206>
 192:	68 6f 72 69 7a       	push   0x7a69726f
 197:	65 64 00 50 61       	gs add BYTE PTR fs:[rax+0x61],dl
 19c:	79 6d                	jns    20b <.rodata.str1.1+0x20b>
 19e:	65 6e                	outs   dx,BYTE PTR gs:[rsi]
 1a0:	74 20                	je     1c2 <.rodata.str1.1+0x1c2>
 1a2:	52                   	push   rdx
 1a3:	65 71 75             	gs jno 21b <.rodata.str1.1+0x21b>
 1a6:	69 72 65 64 00 46 6f 	imul   esi,DWORD PTR [rdx+0x65],0x6f460064
 1ad:	72 62                	jb     211 <.rodata.str1.1+0x211>
 1af:	69 64 64 65 6e 00 4e 	imul   esp,DWORD PTR [rsp+riz*2+0x65],0x6f4e006e
 1b6:	6f 
 1b7:	74 20                	je     1d9 <.rodata.str1.1+0x1d9>
 1b9:	46 6f                	rex.RX outs dx,DWORD PTR ds:[rsi]
 1bb:	75 6e                	jne    22b <.rodata.str1.1+0x22b>
 1bd:	64 00 4d 65          	add    BYTE PTR fs:[rbp+0x65],cl
 1c1:	74 68                	je     22b <.rodata.str1.1+0x22b>
 1c3:	6f                   	outs   dx,DWORD PTR ds:[rsi]
 1c4:	64 20 4e 6f          	and    BYTE PTR fs:[rsi+0x6f],cl
 1c8:	74 20                	je     1ea <.rodata.str1.1+0x1ea>
 1ca:	41 6c                	rex.B ins BYTE PTR es:[rdi],dx
 1cc:	6c                   	ins    BYTE PTR es:[rdi],dx
 1cd:	6f                   	outs   dx,DWORD PTR ds:[rsi]
 1ce:	77 65                	ja     235 <.rodata.str1.1+0x235>
 1d0:	64 00 4e 6f          	add    BYTE PTR fs:[rsi+0x6f],cl
 1d4:	74 20                	je     1f6 <.rodata.str1.1+0x1f6>
 1d6:	41 63 63 65          	movsxd esp,DWORD PTR [r11+0x65]
 1da:	70 74                	jo     250 <.rodata.str1.1+0x250>
 1dc:	61                   	(bad)  
 1dd:	62                   	(bad)  
 1de:	6c                   	ins    BYTE PTR es:[rdi],dx
 1df:	65 00 50 72          	add    BYTE PTR gs:[rax+0x72],dl
 1e3:	6f                   	outs   dx,DWORD PTR ds:[rsi]
 1e4:	78 79                	js     25f <.rodata.str1.1+0x25f>
 1e6:	20 41 75             	and    BYTE PTR [rcx+0x75],al
 1e9:	74 68                	je     253 <.rodata.str1.1+0x253>
 1eb:	65 6e                	outs   dx,BYTE PTR gs:[rsi]
 1ed:	74 69                	je     258 <.rodata.str1.1+0x258>
 1ef:	63 61 74             	movsxd esp,DWORD PTR [rcx+0x74]
 1f2:	69 6f 6e 20 52 65 71 	imul   ebp,DWORD PTR [rdi+0x6e],0x71655220
 1f9:	75 69                	jne    264 <.rodata.str1.1+0x264>
 1fb:	72 65                	jb     262 <.rodata.str1.1+0x262>
 1fd:	64 00 52 65          	add    BYTE PTR fs:[rdx+0x65],dl
 201:	71 75                	jno    278 <.rodata.str1.1+0x278>
 203:	65 73 74             	gs jae 27a <.rodata.str1.1+0x27a>
 206:	20 54 69 6d          	and    BYTE PTR [rcx+rbp*2+0x6d],dl
 20a:	65 6f                	outs   dx,DWORD PTR gs:[rsi]
 20c:	75 74                	jne    282 <.rodata.str1.1+0x282>
 20e:	00 43 6f             	add    BYTE PTR [rbx+0x6f],al
 211:	6e                   	outs   dx,BYTE PTR ds:[rsi]
 212:	66 6c                	data16 ins BYTE PTR es:[rdi],dx
 214:	69 63 74 00 47 6f 6e 	imul   esp,DWORD PTR [rbx+0x74],0x6e6f4700
 21b:	65 00 4c 65 6e       	add    BYTE PTR gs:[rbp+riz*2+0x6e],cl
 220:	67 74 68             	addr32 je 28b <.rodata.str1.1+0x28b>
 223:	20 52 65             	and    BYTE PTR [rdx+0x65],dl
 226:	71 75                	jno    29d <.rodata.str1.1+0x29d>
 228:	69 72 65 64 00 50 72 	imul   esi,DWORD PTR [rdx+0x65],0x72500064
 22f:	65 63 6f 6e          	movsxd ebp,DWORD PTR gs:[rdi+0x6e]
 233:	64 69 74 69 6f 6e 20 	imul   esi,DWORD PTR fs:[rcx+rbp*2+0x6f],0x6146206e
 23a:	46 61 
 23c:	69 6c 65 64 00 50 61 	imul   ebp,DWORD PTR [rbp+riz*2+0x64],0x79615000
 243:	79 
 244:	6c                   	ins    BYTE PTR es:[rdi],dx
 245:	6f                   	outs   dx,DWORD PTR ds:[rsi]
 246:	61                   	(bad)  
 247:	64 20 54 6f 6f       	and    BYTE PTR fs:[rdi+rbp*2+0x6f],dl
 24c:	20 4c 61 72          	and    BYTE PTR [rcx+riz*2+0x72],cl
 250:	67 65 00 55 52       	add    BYTE PTR gs:[ebp+0x52],dl
 255:	49 20 54 6f 6f       	rex.WB and BYTE PTR [r15+rbp*2+0x6f],dl
 25a:	20 4c 6f 6e          	and    BYTE PTR [rdi+rbp*2+0x6e],cl
 25e:	67 00 55 6e          	add    BYTE PTR [ebp+0x6e],dl
 262:	73 75                	jae    2d9 <.rodata.str1.1+0x2d9>
 264:	70 70                	jo     2d6 <.rodata.str1.1+0x2d6>
 266:	6f                   	outs   dx,DWORD PTR ds:[rsi]
 267:	72 74                	jb     2dd <.rodata.str1.1+0x2dd>
 269:	65 64 20 4d 65       	gs and BYTE PTR fs:[rbp+0x65],cl
 26e:	64 69 61 20 54 79 70 	imul   esp,DWORD PTR fs:[rcx+0x20],0x65707954
 275:	65 
 276:	00 52 61             	add    BYTE PTR [rdx+0x61],dl
 279:	6e                   	outs   dx,BYTE PTR ds:[rsi]
 27a:	67 65 20 4e 6f       	and    BYTE PTR gs:[esi+0x6f],cl
 27f:	74 20                	je     2a1 <.rodata.str1.1+0x2a1>
 281:	53                   	push   rbx
 282:	61                   	(bad)  
 283:	74 69                	je     2ee <.rodata.str1.1+0x2ee>
 285:	73 66                	jae    2ed <.rodata.str1.1+0x2ed>
 287:	69 61 62 6c 65 00 45 	imul   esp,DWORD PTR [rcx+0x62],0x4500656c
 28e:	78 70                	js     300 <.rodata.str1.1+0x300>
 290:	65 63 74 61 74       	movsxd esi,DWORD PTR gs:[rcx+riz*2+0x74]
 295:	69 6f 6e 20 46 61 69 	imul   ebp,DWORD PTR [rdi+0x6e],0x69614620
 29c:	6c                   	ins    BYTE PTR es:[rdi],dx
 29d:	65 64 00 4d 69       	gs add BYTE PTR fs:[rbp+0x69],cl
 2a2:	73 64                	jae    308 <.rodata.str1.1+0x308>
 2a4:	69 72 65 63 74 65 64 	imul   esi,DWORD PTR [rdx+0x65],0x64657463
 2ab:	20 52 65             	and    BYTE PTR [rdx+0x65],dl
 2ae:	71 75                	jno    325 <.rodata.str1.1+0x325>
 2b0:	65 73 74             	gs jae 327 <.rodata.str1.1+0x327>
 2b3:	00 55 6e             	add    BYTE PTR [rbp+0x6e],dl
 2b6:	70 72                	jo     32a <.rodata.str1.1+0x32a>
 2b8:	6f                   	outs   dx,DWORD PTR ds:[rsi]
 2b9:	63 65 73             	movsxd esp,DWORD PTR [rbp+0x73]
 2bc:	73 61                	jae    31f <.rodata.str1.1+0x31f>
 2be:	62                   	(bad)  
 2bf:	6c                   	ins    BYTE PTR es:[rdi],dx
 2c0:	65 20 45 6e          	and    BYTE PTR gs:[rbp+0x6e],al
 2c4:	74 69                	je     32f <.rodata.str1.1+0x32f>
 2c6:	74 79                	je     341 <.rodata.str1.1+0x341>
 2c8:	00 4c 6f 63          	add    BYTE PTR [rdi+rbp*2+0x63],cl
 2cc:	6b 65 64 00          	imul   esp,DWORD PTR [rbp+0x64],0x0
 2d0:	46 61                	rex.RX (bad) 
 2d2:	69 6c 65 64 20 44 65 	imul   ebp,DWORD PTR [rbp+riz*2+0x64],0x70654420
 2d9:	70 
 2da:	65 6e                	outs   dx,BYTE PTR gs:[rsi]
 2dc:	64 65 6e             	fs outs dx,BYTE PTR gs:[rsi]
 2df:	63 79 00             	movsxd edi,DWORD PTR [rcx+0x0]
 2e2:	55                   	push   rbp
 2e3:	70 67                	jo     34c <.rodata.str1.1+0x34c>
 2e5:	72 61                	jb     348 <.rodata.str1.1+0x348>
 2e7:	64 65 20 52 65       	fs and BYTE PTR gs:[rdx+0x65],dl
 2ec:	71 75                	jno    363 <.rodata.str1.1+0x363>
 2ee:	69 72 65 64 00 50 72 	imul   esi,DWORD PTR [rdx+0x65],0x72500064
 2f5:	65 63 6f 6e          	movsxd ebp,DWORD PTR gs:[rdi+0x6e]
 2f9:	64 69 74 69 6f 6e 20 	imul   esi,DWORD PTR fs:[rcx+rbp*2+0x6f],0x6552206e
 300:	52 65 
 302:	71 75                	jno    379 <.rodata.str1.1+0x379>
 304:	69 72 65 64 00 54 6f 	imul   esi,DWORD PTR [rdx+0x65],0x6f540064
 30b:	6f                   	outs   dx,DWORD PTR ds:[rsi]
 30c:	20 4d 61             	and    BYTE PTR [rbp+0x61],cl
 30f:	6e                   	outs   dx,BYTE PTR ds:[rsi]
 310:	79 20                	jns    332 <.rodata.str1.1+0x332>
 312:	52                   	push   rdx
 313:	65 71 75             	gs jno 38b <.rodata.str1.1+0x38b>
 316:	65 73 74             	gs jae 38d <.rodata.str1.1+0x38d>
 319:	73 00                	jae    31b <.rodata.str1.1+0x31b>
 31b:	55                   	push   rbp
 31c:	6e                   	outs   dx,BYTE PTR ds:[rsi]
 31d:	61                   	(bad)  
 31e:	76 61                	jbe    381 <.rodata.str1.1+0x381>
 320:	69 6c 61 62 6c 65 20 	imul   ebp,DWORD PTR [rcx+riz*2+0x62],0x4620656c
 327:	46 
 328:	6f                   	outs   dx,DWORD PTR ds:[rsi]
 329:	72 20                	jb     34b <.rodata.str1.1+0x34b>
 32b:	4c                   	rex.WR
 32c:	65 67 61             	gs addr32 (bad) 
 32f:	6c                   	ins    BYTE PTR es:[rdi],dx
 330:	20 52 65             	and    BYTE PTR [rdx+0x65],dl
 333:	61                   	(bad)  
 334:	73 6f                	jae    3a5 <.rodata.str1.1+0x3a5>
 336:	6e                   	outs   dx,BYTE PTR ds:[rsi]
 337:	73 00                	jae    339 <.rodata.str1.1+0x339>
 339:	49 6e                	rex.WB outs dx,BYTE PTR ds:[rsi]
 33b:	74 65                	je     3a2 <.rodata.str1.1+0x3a2>
 33d:	72 6e                	jb     3ad <.rodata.str1.1+0x3ad>
 33f:	61                   	(bad)  
 340:	6c                   	ins    BYTE PTR es:[rdi],dx
 341:	20 53 65             	and    BYTE PTR [rbx+0x65],dl
 344:	72 76                	jb     3bc <.rodata.str1.1+0x3bc>
 346:	65 72 20             	gs jb  369 <.rodata.str1.1+0x369>
 349:	45 72 72             	rex.RB jb 3be <.rodata.str1.1+0x3be>
 34c:	6f                   	outs   dx,DWORD PTR ds:[rsi]
 34d:	72 00                	jb     34f <.rodata.str1.1+0x34f>
 34f:	4e 6f                	rex.WRX outs dx,DWORD PTR ds:[rsi]
 351:	74 20                	je     373 <.rodata.str1.1+0x373>
 353:	49 6d                	rex.WB ins DWORD PTR es:[rdi],dx
 355:	70 6c                	jo     3c3 <.rodata.str1.1+0x3c3>
 357:	65 6d                	gs ins DWORD PTR es:[rdi],dx
 359:	65 6e                	outs   dx,BYTE PTR gs:[rsi]
 35b:	74 65                	je     3c2 <.rodata.str1.1+0x3c2>
 35d:	64 00 42 61          	add    BYTE PTR fs:[rdx+0x61],al
 361:	64 20 47 61          	and    BYTE PTR fs:[rdi+0x61],al
 365:	74 65                	je     3cc <.rodata.str1.1+0x3cc>
 367:	77 61                	ja     3ca <.rodata.str1.1+0x3ca>
 369:	79 00                	jns    36b <.rodata.str1.1+0x36b>
 36b:	53                   	push   rbx
 36c:	65 72 76             	gs jb  3e5 <.rodata.str1.1+0x3e5>
 36f:	69 63 65 20 55 6e 61 	imul   esp,DWORD PTR [rbx+0x65],0x616e5520
 376:	76 61                	jbe    3d9 <.rodata.str1.1+0x3d9>
 378:	69 6c 61 62 6c 65 00 	imul   ebp,DWORD PTR [rcx+riz*2+0x62],0x4700656c
 37f:	47 
 380:	61                   	(bad)  
 381:	74 65                	je     3e8 <.rodata.str1.1+0x3e8>
 383:	77 61                	ja     3e6 <.rodata.str1.1+0x3e6>
 385:	79 20                	jns    3a7 <.rodata.str1.1+0x3a7>
 387:	54                   	push   rsp
 388:	69 6d 65 6f 75 74 00 	imul   ebp,DWORD PTR [rbp+0x65],0x74756f
 38f:	48 54                	rex.W push rsp
 391:	54                   	push   rsp
 392:	50                   	push   rax
 393:	20 56 65             	and    BYTE PTR [rsi+0x65],dl
 396:	72 73                	jb     40b <.rodata.str1.1+0x40b>
 398:	69 6f 6e 20 4e 6f 74 	imul   ebp,DWORD PTR [rdi+0x6e],0x746f4e20
 39f:	20 53 75             	and    BYTE PTR [rbx+0x75],dl
 3a2:	70 70                	jo     414 <.rodata.str1.1+0x414>
 3a4:	6f                   	outs   dx,DWORD PTR ds:[rsi]
 3a5:	72 74                	jb     41b <.rodata.str1.1+0x41b>
 3a7:	65 64 00 56 61       	gs add BYTE PTR fs:[rsi+0x61],dl
 3ac:	72 69                	jb     417 <.rodata.str1.1+0x417>
 3ae:	61                   	(bad)  
 3af:	6e                   	outs   dx,BYTE PTR ds:[rsi]
 3b0:	74 20                	je     3d2 <.rodata.str1.1+0x3d2>
 3b2:	41 6c                	rex.B ins BYTE PTR es:[rdi],dx
 3b4:	73 6f                	jae    425 <.rodata.str1.1+0x425>
 3b6:	20 4e 65             	and    BYTE PTR [rsi+0x65],cl
 3b9:	67 6f                	outs   dx,DWORD PTR ds:[esi]
 3bb:	74 69                	je     426 <.rodata.str1.1+0x426>
 3bd:	61                   	(bad)  
 3be:	74 65                	je     425 <.rodata.str1.1+0x425>
 3c0:	73 00                	jae    3c2 <.rodata.str1.1+0x3c2>
 3c2:	49 6e                	rex.WB outs dx,BYTE PTR ds:[rsi]
 3c4:	73 75                	jae    43b <.rodata.str1.1+0x43b>
 3c6:	66 66 69 63 69 65 6e 	data16 imul sp,WORD PTR [rbx+0x69],0x6e65
 3cd:	74 20                	je     3ef <.rodata.str1.1+0x3ef>
 3cf:	53                   	push   rbx
 3d0:	74 6f                	je     441 <.rodata.str1.1+0x441>
 3d2:	72 61                	jb     435 <.rodata.str1.1+0x435>
 3d4:	67 65 00 4c 6f 6f    	add    BYTE PTR gs:[edi+ebp*2+0x6f],cl
 3da:	70 20                	jo     3fc <.rodata.str1.1+0x3fc>
 3dc:	44                   	rex.R
 3dd:	65 74 65             	gs je  445 <.rodata.str1.1+0x445>
 3e0:	63 74 65 64          	movsxd esi,DWORD PTR [rbp+riz*2+0x64]
 3e4:	00 4e 6f             	add    BYTE PTR [rsi+0x6f],cl
 3e7:	74 20                	je     409 <.rodata.str1.1+0x409>
 3e9:	45 78 74             	rex.RB js 460 <.rodata.str1.1+0x460>
 3ec:	65 6e                	outs   dx,BYTE PTR gs:[rsi]
 3ee:	64 65 64 00 48 50    	fs gs add BYTE PTR fs:[rax+0x50],cl
 3f4:	45 5f                	rex.RB pop r15
 3f6:	4f                   	rex.WRXB
 3f7:	4b 00 73 75          	rex.WXB add BYTE PTR [r11+0x75],sil
 3fb:	63 63 65             	movsxd esp,DWORD PTR [rbx+0x65]
 3fe:	73 73                	jae    473 <.rodata.str1.1+0x473>
 400:	00 48 50             	add    BYTE PTR [rax+0x50],cl
 403:	45 5f                	rex.RB pop r15
 405:	43                   	rex.XB
 406:	42 5f                	rex.X pop rdi
 408:	6d                   	ins    DWORD PTR es:[rdi],dx
 409:	65 73 73             	gs jae 47f <.rodata.str1.1+0x47f>
 40c:	61                   	(bad)  
 40d:	67 65 5f             	addr32 gs pop rdi
 410:	62                   	(bad)  
 411:	65 67 69 6e 00 48 50 	imul   ebp,DWORD PTR gs:[esi+0x0],0x5f455048
 418:	45 5f 
 41a:	43                   	rex.XB
 41b:	42 5f                	rex.X pop rdi
 41d:	75 72                	jne    491 <.rodata.str1.1+0x491>
 41f:	6c                   	ins    BYTE PTR es:[rdi],dx
 420:	00 74 68 65          	add    BYTE PTR [rax+rbp*2+0x65],dh
 424:	20 6f 6e             	and    BYTE PTR [rdi+0x6e],ch
 427:	5f                   	pop    rdi
 428:	75 72                	jne    49c <.rodata.str1.1+0x49c>
 42a:	6c                   	ins    BYTE PTR es:[rdi],dx
 42b:	20 63 61             	and    BYTE PTR [rbx+0x61],ah
 42e:	6c                   	ins    BYTE PTR es:[rdi],dx
 42f:	6c                   	ins    BYTE PTR es:[rdi],dx
 430:	62 61                	(bad)  
 432:	63 6b 20             	movsxd ebp,DWORD PTR [rbx+0x20]
 435:	66 61                	data16 (bad) 
 437:	69 6c 65 64 00 48 50 	imul   ebp,DWORD PTR [rbp+riz*2+0x64],0x45504800
 43e:	45 
 43f:	5f                   	pop    rdi
 440:	43                   	rex.XB
 441:	42 5f                	rex.X pop rdi
 443:	68 65 61 64 65       	push   0x65646165
 448:	72 5f                	jb     4a9 <.rodata.str1.1+0x4a9>
 44a:	66 69 65 6c 64 00    	imul   sp,WORD PTR [rbp+0x6c],0x64
 450:	48 50                	rex.W push rax
 452:	45 5f                	rex.RB pop r15
 454:	43                   	rex.XB
 455:	42 5f                	rex.X pop rdi
 457:	68 65 61 64 65       	push   0x65646165
 45c:	72 5f                	jb     4bd <.rodata.str1.1+0x4bd>
 45e:	76 61                	jbe    4c1 <.rodata.str1.1+0x4c1>
 460:	6c                   	ins    BYTE PTR es:[rdi],dx
 461:	75 65                	jne    4c8 <.rodata.str1.1+0x4c8>
 463:	00 48 50             	add    BYTE PTR [rax+0x50],cl
 466:	45 5f                	rex.RB pop r15
 468:	43                   	rex.XB
 469:	42 5f                	rex.X pop rdi
 46b:	68 65 61 64 65       	push   0x65646165
 470:	72 73                	jb     4e5 <.rodata.str1.1+0x4e5>
 472:	5f                   	pop    rdi
 473:	63 6f 6d             	movsxd ebp,DWORD PTR [rdi+0x6d]
 476:	70 6c                	jo     4e4 <.rodata.str1.1+0x4e4>
 478:	65 74 65             	gs je  4e0 <.rodata.str1.1+0x4e0>
 47b:	00 48 50             	add    BYTE PTR [rax+0x50],cl
 47e:	45 5f                	rex.RB pop r15
 480:	43                   	rex.XB
 481:	42 5f                	rex.X pop rdi
 483:	62                   	(bad)  
 484:	6f                   	outs   dx,DWORD PTR ds:[rsi]
 485:	64 79 00             	fs jns 488 <.rodata.str1.1+0x488>
 488:	74 68                	je     4f2 <.rodata.str1.1+0x4f2>
 48a:	65 20 6f 6e          	and    BYTE PTR gs:[rdi+0x6e],ch
 48e:	5f                   	pop    rdi
 48f:	62                   	(bad)  
 490:	6f                   	outs   dx,DWORD PTR ds:[rsi]
 491:	64 79 20             	fs jns 4b4 <.rodata.str1.1+0x4b4>
 494:	63 61 6c             	movsxd esp,DWORD PTR [rcx+0x6c]
 497:	6c                   	ins    BYTE PTR es:[rdi],dx
 498:	62 61                	(bad)  
 49a:	63 6b 20             	movsxd ebp,DWORD PTR [rbx+0x20]
 49d:	66 61                	data16 (bad) 
 49f:	69 6c 65 64 00 48 50 	imul   ebp,DWORD PTR [rbp+riz*2+0x64],0x45504800
 4a6:	45 
 4a7:	5f                   	pop    rdi
 4a8:	43                   	rex.XB
 4a9:	42 5f                	rex.X pop rdi
 4ab:	6d                   	ins    DWORD PTR es:[rdi],dx
 4ac:	65 73 73             	gs jae 522 <.rodata.str1.1+0x522>
 4af:	61                   	(bad)  
 4b0:	67 65 5f             	addr32 gs pop rdi
 4b3:	63 6f 6d             	movsxd ebp,DWORD PTR [rdi+0x6d]
 4b6:	70 6c                	jo     524 <.rodata.str1.1+0x524>
 4b8:	65 74 65             	gs je  520 <.rodata.str1.1+0x520>
 4bb:	00 48 50             	add    BYTE PTR [rax+0x50],cl
 4be:	45 5f                	rex.RB pop r15
 4c0:	43                   	rex.XB
 4c1:	42 5f                	rex.X pop rdi
 4c3:	73 74                	jae    539 <.rodata.str1.1+0x539>
 4c5:	61                   	(bad)  
 4c6:	74 75                	je     53d <.rodata.str1.1+0x53d>
 4c8:	73 00                	jae    4ca <.rodata.str1.1+0x4ca>
 4ca:	74 68                	je     534 <.rodata.str1.1+0x534>
 4cc:	65 20 6f 6e          	and    BYTE PTR gs:[rdi+0x6e],ch
 4d0:	5f                   	pop    rdi
 4d1:	73 74                	jae    547 <.rodata.str1.1+0x547>
 4d3:	61                   	(bad)  
 4d4:	74 75                	je     54b <.rodata.str1.1+0x54b>
 4d6:	73 20                	jae    4f8 <.rodata.str1.1+0x4f8>
 4d8:	63 61 6c             	movsxd esp,DWORD PTR [rcx+0x6c]
 4db:	6c                   	ins    BYTE PTR es:[rdi],dx
 4dc:	62 61                	(bad)  
 4de:	63 6b 20             	movsxd ebp,DWORD PTR [rbx+0x20]
 4e1:	66 61                	data16 (bad) 
 4e3:	69 6c 65 64 00 48 50 	imul   ebp,DWORD PTR [rbp+riz*2+0x64],0x45504800
 4ea:	45 
 4eb:	5f                   	pop    rdi
 4ec:	43                   	rex.XB
 4ed:	42 5f                	rex.X pop rdi
 4ef:	63 68 75             	movsxd ebp,DWORD PTR [rax+0x75]
 4f2:	6e                   	outs   dx,BYTE PTR ds:[rsi]
 4f3:	6b 5f 68 65          	imul   ebx,DWORD PTR [rdi+0x68],0x65
 4f7:	61                   	(bad)  
 4f8:	64 65 72 00          	fs gs jb 4fc <.rodata.str1.1+0x4fc>
 4fc:	48 50                	rex.W push rax
 4fe:	45 5f                	rex.RB pop r15
 500:	43                   	rex.XB
 501:	42 5f                	rex.X pop rdi
 503:	63 68 75             	movsxd ebp,DWORD PTR [rax+0x75]
 506:	6e                   	outs   dx,BYTE PTR ds:[rsi]
 507:	6b 5f 63 6f          	imul   ebx,DWORD PTR [rdi+0x63],0x6f
 50b:	6d                   	ins    DWORD PTR es:[rdi],dx
 50c:	70 6c                	jo     57a <.rodata.str1.1+0x57a>
 50e:	65 74 65             	gs je  576 <.rodata.str1.1+0x576>
 511:	00 48 50             	add    BYTE PTR [rax+0x50],cl
 514:	45 5f                	rex.RB pop r15
 516:	49                   	rex.WB
 517:	4e 56                	rex.WRX push rsi
 519:	41                   	rex.B
 51a:	4c                   	rex.WR
 51b:	49                   	rex.WB
 51c:	44 5f                	rex.R pop rdi
 51e:	45                   	rex.RB
 51f:	4f                   	rex.WRXB
 520:	46 5f                	rex.RX pop rdi
 522:	53                   	push   rbx
 523:	54                   	push   rsp
 524:	41 54                	push   r12
 526:	45 00 48 50          	add    BYTE PTR [r8+0x50],r9b
 52a:	45 5f                	rex.RB pop r15
 52c:	48                   	rex.W
 52d:	45                   	rex.RB
 52e:	41                   	rex.B
 52f:	44                   	rex.R
 530:	45 52                	rex.RB push r10
 532:	5f                   	pop    rdi
 533:	4f 56                	rex.WRXB push r14
 535:	45 52                	rex.RB push r10
 537:	46                   	rex.RX
 538:	4c                   	rex.WR
 539:	4f 57                	rex.WRXB push r15
 53b:	00 48 50             	add    BYTE PTR [rax+0x50],cl
 53e:	45 5f                	rex.RB pop r15
 540:	43                   	rex.XB
 541:	4c                   	rex.WR
 542:	4f 53                	rex.WRXB push r11
 544:	45                   	rex.RB
 545:	44 5f                	rex.R pop rdi
 547:	43                   	rex.XB
 548:	4f                   	rex.WRXB
 549:	4e                   	rex.WRX
 54a:	4e                   	rex.WRX
 54b:	45                   	rex.RB
 54c:	43 54                	rex.XB push r12
 54e:	49                   	rex.WB
 54f:	4f                   	rex.WRXB
 550:	4e 00 48 50          	rex.WRX add BYTE PTR [rax+0x50],r9b
 554:	45 5f                	rex.RB pop r15
 556:	49                   	rex.WB
 557:	4e 56                	rex.WRX push rsi
 559:	41                   	rex.B
 55a:	4c                   	rex.WR
 55b:	49                   	rex.WB
 55c:	44 5f                	rex.R pop rdi
 55e:	56                   	push   rsi
 55f:	45 52                	rex.RB push r10
 561:	53                   	push   rbx
 562:	49                   	rex.WB
 563:	4f                   	rex.WRXB
 564:	4e 00 69 6e          	rex.WRX add BYTE PTR [rcx+0x6e],r13b
 568:	76 61                	jbe    5cb <.rodata.str1.1+0x5cb>
 56a:	6c                   	ins    BYTE PTR es:[rdi],dx
 56b:	69 64 20 48 54 54 50 	imul   esp,DWORD PTR [rax+riz*1+0x48],0x20505454
 572:	20 
 573:	76 65                	jbe    5da <.rodata.str1.1+0x5da>
 575:	72 73                	jb     5ea <.rodata.str1.1+0x5ea>
 577:	69 6f 6e 00 48 50 45 	imul   ebp,DWORD PTR [rdi+0x6e],0x45504800
 57e:	5f                   	pop    rdi
 57f:	49                   	rex.WB
 580:	4e 56                	rex.WRX push rsi
 582:	41                   	rex.B
 583:	4c                   	rex.WR
 584:	49                   	rex.WB
 585:	44 5f                	rex.R pop rdi
 587:	53                   	push   rbx
 588:	54                   	push   rsp
 589:	41 54                	push   r12
 58b:	55                   	push   rbp
 58c:	53                   	push   rbx
 58d:	00 69 6e             	add    BYTE PTR [rcx+0x6e],ch
 590:	76 61                	jbe    5f3 <.rodata.str1.1+0x5f3>
 592:	6c                   	ins    BYTE PTR es:[rdi],dx
 593:	69 64 20 48 54 54 50 	imul   esp,DWORD PTR [rax+riz*1+0x48],0x20505454
 59a:	20 
 59b:	73 74                	jae    611 <.rodata.str1.1+0x611>
 59d:	61                   	(bad)  
 59e:	74 75                	je     615 <.rodata.str1.1+0x615>
 5a0:	73 20                	jae    5c2 <.rodata.str1.1+0x5c2>
 5a2:	63 6f 64             	movsxd ebp,DWORD PTR [rdi+0x64]
 5a5:	65 00 48 50          	add    BYTE PTR gs:[rax+0x50],cl
 5a9:	45 5f                	rex.RB pop r15
 5ab:	49                   	rex.WB
 5ac:	4e 56                	rex.WRX push rsi
 5ae:	41                   	rex.B
 5af:	4c                   	rex.WR
 5b0:	49                   	rex.WB
 5b1:	44 5f                	rex.R pop rdi
 5b3:	4d                   	rex.WRB
 5b4:	45 54                	rex.RB push r12
 5b6:	48                   	rex.W
 5b7:	4f                   	rex.WRXB
 5b8:	44 00 69 6e          	add    BYTE PTR [rcx+0x6e],r13b
 5bc:	76 61                	jbe    61f <.rodata.str1.1+0x61f>
 5be:	6c                   	ins    BYTE PTR es:[rdi],dx
 5bf:	69 64 20 48 54 54 50 	imul   esp,DWORD PTR [rax+riz*1+0x48],0x20505454
 5c6:	20 
 5c7:	6d                   	ins    DWORD PTR es:[rdi],dx
 5c8:	65 74 68             	gs je  633 <.rodata.str1.1+0x633>
 5cb:	6f                   	outs   dx,DWORD PTR ds:[rsi]
 5cc:	64 00 48 50          	add    BYTE PTR fs:[rax+0x50],cl
 5d0:	45 5f                	rex.RB pop r15
 5d2:	49                   	rex.WB
 5d3:	4e 56                	rex.WRX push rsi
 5d5:	41                   	rex.B
 5d6:	4c                   	rex.WR
 5d7:	49                   	rex.WB
 5d8:	44 5f                	rex.R pop rdi
 5da:	55                   	push   rbp
 5db:	52                   	push   rdx
 5dc:	4c 00 69 6e          	rex.WR add BYTE PTR [rcx+0x6e],r13b
 5e0:	76 61                	jbe    643 <.rodata.str1.1+0x643>
 5e2:	6c                   	ins    BYTE PTR es:[rdi],dx
 5e3:	69 64 20 55 52 4c 00 	imul   esp,DWORD PTR [rax+riz*1+0x55],0x48004c52
 5ea:	48 
 5eb:	50                   	push   rax
 5ec:	45 5f                	rex.RB pop r15
 5ee:	49                   	rex.WB
 5ef:	4e 56                	rex.WRX push rsi
 5f1:	41                   	rex.B
 5f2:	4c                   	rex.WR
 5f3:	49                   	rex.WB
 5f4:	44 5f                	rex.R pop rdi
 5f6:	48                   	rex.W
 5f7:	4f 53                	rex.WRXB push r11
 5f9:	54                   	push   rsp
 5fa:	00 69 6e             	add    BYTE PTR [rcx+0x6e],ch
 5fd:	76 61                	jbe    660 <.rodata.str1.1+0x660>
 5ff:	6c                   	ins    BYTE PTR es:[rdi],dx
 600:	69 64 20 68 6f 73 74 	imul   esp,DWORD PTR [rax+riz*1+0x68],0x74736f
 607:	00 
 608:	48 50                	rex.W push rax
 60a:	45 5f                	rex.RB pop r15
 60c:	49                   	rex.WB
 60d:	4e 56                	rex.WRX push rsi
 60f:	41                   	rex.B
 610:	4c                   	rex.WR
 611:	49                   	rex.WB
 612:	44 5f                	rex.R pop rdi
 614:	50                   	push   rax
 615:	4f 52                	rex.WRXB push r10
 617:	54                   	push   rsp
 618:	00 69 6e             	add    BYTE PTR [rcx+0x6e],ch
 61b:	76 61                	jbe    67e <.rodata.str1.1+0x67e>
 61d:	6c                   	ins    BYTE PTR es:[rdi],dx
 61e:	69 64 20 70 6f 72 74 	imul   esp,DWORD PTR [rax+riz*1+0x70],0x74726f
 625:	00 
 626:	48 50                	rex.W push rax
 628:	45 5f                	rex.RB pop r15
 62a:	49                   	rex.WB
 62b:	4e 56                	rex.WRX push rsi
 62d:	41                   	rex.B
 62e:	4c                   	rex.WR
 62f:	49                   	rex.WB
 630:	44 5f                	rex.R pop rdi
 632:	50                   	push   rax
 633:	41 54                	push   r12
 635:	48 00 69 6e          	rex.W add BYTE PTR [rcx+0x6e],bpl
 639:	76 61                	jbe    69c <.rodata.str1.1+0x69c>
 63b:	6c                   	ins    BYTE PTR es:[rdi],dx
 63c:	69 64 20 70 61 74 68 	imul   esp,DWORD PTR [rax+riz*1+0x70],0x687461
 643:	00 
 644:	48 50                	rex.W push rax
 646:	45 5f                	rex.RB pop r15
 648:	49                   	rex.WB
 649:	4e 56                	rex.WRX push rsi
 64b:	41                   	rex.B
 64c:	4c                   	rex.WR
 64d:	49                   	rex.WB
 64e:	44 5f                	rex.R pop rdi
 650:	51                   	push   rcx
 651:	55                   	push   rbp
 652:	45 52                	rex.RB push r10
 654:	59                   	pop    rcx
 655:	5f                   	pop    rdi
 656:	53                   	push   rbx
 657:	54                   	push   rsp
 658:	52                   	push   rdx
 659:	49                   	rex.WB
 65a:	4e                   	rex.WRX
 65b:	47 00 69 6e          	rex.RXB add BYTE PTR [r9+0x6e],r13b
 65f:	76 61                	jbe    6c2 <.rodata.str1.1+0x6c2>
 661:	6c                   	ins    BYTE PTR es:[rdi],dx
 662:	69 64 20 71 75 65 72 	imul   esp,DWORD PTR [rax+riz*1+0x71],0x79726575
 669:	79 
 66a:	20 73 74             	and    BYTE PTR [rbx+0x74],dh
 66d:	72 69                	jb     6d8 <.rodata.str1.1+0x6d8>
 66f:	6e                   	outs   dx,BYTE PTR ds:[rsi]
 670:	67 00 48 50          	add    BYTE PTR [eax+0x50],cl
 674:	45 5f                	rex.RB pop r15
 676:	49                   	rex.WB
 677:	4e 56                	rex.WRX push rsi
 679:	41                   	rex.B
 67a:	4c                   	rex.WR
 67b:	49                   	rex.WB
 67c:	44 5f                	rex.R pop rdi
 67e:	46 52                	rex.RX push rdx
 680:	41                   	rex.B
 681:	47                   	rex.RXB
 682:	4d                   	rex.WRB
 683:	45                   	rex.RB
 684:	4e 54                	rex.WRX push rsp
 686:	00 69 6e             	add    BYTE PTR [rcx+0x6e],ch
 689:	76 61                	jbe    6ec <.rodata.str1.1+0x6ec>
 68b:	6c                   	ins    BYTE PTR es:[rdi],dx
 68c:	69 64 20 66 72 61 67 	imul   esp,DWORD PTR [rax+riz*1+0x66],0x6d676172
 693:	6d 
 694:	65 6e                	outs   dx,BYTE PTR gs:[rsi]
 696:	74 00                	je     698 <.rodata.str1.1+0x698>
 698:	48 50                	rex.W push rax
 69a:	45 5f                	rex.RB pop r15
 69c:	4c                   	rex.WR
 69d:	46 5f                	rex.RX pop rdi
 69f:	45 58                	rex.RB pop r8
 6a1:	50                   	push   rax
 6a2:	45                   	rex.RB
 6a3:	43 54                	rex.XB push r12
 6a5:	45                   	rex.RB
 6a6:	44 00 4c 46 20       	add    BYTE PTR [rsi+rax*2+0x20],r9b
 6ab:	63 68 61             	movsxd ebp,DWORD PTR [rax+0x61]
 6ae:	72 61                	jb     711 <.rodata.str1.1+0x711>
 6b0:	63 74 65 72          	movsxd esi,DWORD PTR [rbp+riz*2+0x72]
 6b4:	20 65 78             	and    BYTE PTR [rbp+0x78],ah
 6b7:	70 65                	jo     71e <.rodata.str1.1+0x71e>
 6b9:	63 74 65 64          	movsxd esi,DWORD PTR [rbp+riz*2+0x64]
 6bd:	00 48 50             	add    BYTE PTR [rax+0x50],cl
 6c0:	45 5f                	rex.RB pop r15
 6c2:	49                   	rex.WB
 6c3:	4e 56                	rex.WRX push rsi
 6c5:	41                   	rex.B
 6c6:	4c                   	rex.WR
 6c7:	49                   	rex.WB
 6c8:	44 5f                	rex.R pop rdi
 6ca:	48                   	rex.W
 6cb:	45                   	rex.RB
 6cc:	41                   	rex.B
 6cd:	44                   	rex.R
 6ce:	45 52                	rex.RB push r10
 6d0:	5f                   	pop    rdi
 6d1:	54                   	push   rsp
 6d2:	4f                   	rex.WRXB
 6d3:	4b                   	rex.WXB
 6d4:	45                   	rex.RB
 6d5:	4e 00 69 6e          	rex.WRX add BYTE PTR [rcx+0x6e],r13b
 6d9:	76 61                	jbe    73c <.rodata.str1.1+0x73c>
 6db:	6c                   	ins    BYTE PTR es:[rdi],dx
 6dc:	69 64 20 63 68 61 72 	imul   esp,DWORD PTR [rax+riz*1+0x63],0x61726168
 6e3:	61 
 6e4:	63 74 65 72          	movsxd esi,DWORD PTR [rbp+riz*2+0x72]
 6e8:	20 69 6e             	and    BYTE PTR [rcx+0x6e],ch
 6eb:	20 68 65             	and    BYTE PTR [rax+0x65],ch
 6ee:	61                   	(bad)  
 6ef:	64 65 72 00          	fs gs jb 6f3 <.rodata.str1.1+0x6f3>
 6f3:	48 50                	rex.W push rax
 6f5:	45 5f                	rex.RB pop r15
 6f7:	49                   	rex.WB
 6f8:	4e 56                	rex.WRX push rsi
 6fa:	41                   	rex.B
 6fb:	4c                   	rex.WR
 6fc:	49                   	rex.WB
 6fd:	44 5f                	rex.R pop rdi
 6ff:	43                   	rex.XB
 700:	4f                   	rex.WRXB
 701:	4e 54                	rex.WRX push rsp
 703:	45                   	rex.RB
 704:	4e 54                	rex.WRX push rsp
 706:	5f                   	pop    rdi
 707:	4c                   	rex.WR
 708:	45                   	rex.RB
 709:	4e                   	rex.WRX
 70a:	47 54                	rex.RXB push r12
 70c:	48 00 48 50          	rex.W add BYTE PTR [rax+0x50],cl
 710:	45 5f                	rex.RB pop r15
 712:	55                   	push   rbp
 713:	4e                   	rex.WRX
 714:	45 58                	rex.RB pop r8
 716:	50                   	push   rax
 717:	45                   	rex.RB
 718:	43 54                	rex.XB push r12
 71a:	45                   	rex.RB
 71b:	44 5f                	rex.R pop rdi
 71d:	43                   	rex.XB
 71e:	4f                   	rex.WRXB
 71f:	4e 54                	rex.WRX push rsp
 721:	45                   	rex.RB
 722:	4e 54                	rex.WRX push rsp
 724:	5f                   	pop    rdi
 725:	4c                   	rex.WR
 726:	45                   	rex.RB
 727:	4e                   	rex.WRX
 728:	47 54                	rex.RXB push r12
 72a:	48 00 48 50          	rex.W add BYTE PTR [rax+0x50],cl
 72e:	45 5f                	rex.RB pop r15
 730:	49                   	rex.WB
 731:	4e 56                	rex.WRX push rsi
 733:	41                   	rex.B
 734:	4c                   	rex.WR
 735:	49                   	rex.WB
 736:	44 5f                	rex.R pop rdi
 738:	43                   	rex.XB
 739:	48 55                	rex.W push rbp
 73b:	4e                   	rex.WRX
 73c:	4b 5f                	rex.WXB pop r15
 73e:	53                   	push   rbx
 73f:	49 5a                	rex.WB pop r10
 741:	45 00 48 50          	add    BYTE PTR [r8+0x50],r9b
 745:	45 5f                	rex.RB pop r15
 747:	49                   	rex.WB
 748:	4e 56                	rex.WRX push rsi
 74a:	41                   	rex.B
 74b:	4c                   	rex.WR
 74c:	49                   	rex.WB
 74d:	44 5f                	rex.R pop rdi
 74f:	43                   	rex.XB
 750:	4f                   	rex.WRXB
 751:	4e 53                	rex.WRX push rbx
 753:	54                   	push   rsp
 754:	41                   	rex.B
 755:	4e 54                	rex.WRX push rsp
 757:	00 69 6e             	add    BYTE PTR [rcx+0x6e],ch
 75a:	76 61                	jbe    7bd <.rodata.str1.1+0x7bd>
 75c:	6c                   	ins    BYTE PTR es:[rdi],dx
 75d:	69 64 20 63 6f 6e 73 	imul   esp,DWORD PTR [rax+riz*1+0x63],0x74736e6f
 764:	74 
 765:	61                   	(bad)  
 766:	6e                   	outs   dx,BYTE PTR ds:[rsi]
 767:	74 20                	je     789 <.rodata.str1.1+0x789>
 769:	73 74                	jae    7df <.rodata.str1.1+0x7df>
 76b:	72 69                	jb     7d6 <.rodata.str1.1+0x7d6>
 76d:	6e                   	outs   dx,BYTE PTR ds:[rsi]
 76e:	67 00 48 50          	add    BYTE PTR [eax+0x50],cl
 772:	45 5f                	rex.RB pop r15
 774:	49                   	rex.WB
 775:	4e 56                	rex.WRX push rsi
 777:	41                   	rex.B
 778:	4c                   	rex.WR
 779:	49                   	rex.WB
 77a:	44 5f                	rex.R pop rdi
 77c:	49                   	rex.WB
 77d:	4e 54                	rex.WRX push rsp
 77f:	45 52                	rex.RB push r10
 781:	4e                   	rex.WRX
 782:	41                   	rex.B
 783:	4c 5f                	rex.WR pop rdi
 785:	53                   	push   rbx
 786:	54                   	push   rsp
 787:	41 54                	push   r12
 789:	45 00 48 50          	add    BYTE PTR [r8+0x50],r9b
 78d:	45 5f                	rex.RB pop r15
 78f:	53                   	push   rbx
 790:	54                   	push   rsp
 791:	52                   	push   rdx
 792:	49                   	rex.WB
 793:	43 54                	rex.XB push r12
 795:	00 73 74             	add    BYTE PTR [rbx+0x74],dh
 798:	72 69                	jb     803 <.rodata.str1.1+0x803>
 79a:	63 74 20 6d          	movsxd esi,DWORD PTR [rax+riz*1+0x6d]
 79e:	6f                   	outs   dx,DWORD PTR ds:[rsi]
 79f:	64 65 20 61 73       	fs and BYTE PTR gs:[rcx+0x73],ah
 7a4:	73 65                	jae    80b <.rodata.str1.1+0x80b>
 7a6:	72 74                	jb     81c <.rodata.str1.1+0x81c>
 7a8:	69 6f 6e 20 66 61 69 	imul   ebp,DWORD PTR [rdi+0x6e],0x69616620
 7af:	6c                   	ins    BYTE PTR es:[rdi],dx
 7b0:	65 64 00 48 50       	gs add BYTE PTR fs:[rax+0x50],cl
 7b5:	45 5f                	rex.RB pop r15
 7b7:	50                   	push   rax
 7b8:	41 55                	push   r13
 7ba:	53                   	push   rbx
 7bb:	45                   	rex.RB
 7bc:	44 00 70 61          	add    BYTE PTR [rax+0x61],r14b
 7c0:	72 73                	jb     835 <.rodata.str1.1+0x835>
 7c2:	65 72 20             	gs jb  7e5 <.rodata.str1.1+0x7e5>
 7c5:	69 73 20 70 61 75 73 	imul   esi,DWORD PTR [rbx+0x20],0x73756170
 7cc:	65 64 00 48 50       	gs add BYTE PTR fs:[rax+0x50],cl
 7d1:	45 5f                	rex.RB pop r15
 7d3:	55                   	push   rbp
 7d4:	4e                   	rex.WRX
 7d5:	4b                   	rex.WXB
 7d6:	4e                   	rex.WRX
 7d7:	4f 57                	rex.WRXB push r15
 7d9:	4e 00 61 6e          	rex.WRX add BYTE PTR [rcx+0x6e],r12b
 7dd:	20 75 6e             	and    BYTE PTR [rbp+0x6e],dh
 7e0:	6b 6e 6f 77          	imul   ebp,DWORD PTR [rsi+0x6f],0x77
 7e4:	6e                   	outs   dx,BYTE PTR ds:[rsi]
 7e5:	20 65 72             	and    BYTE PTR [rbp+0x72],ah
 7e8:	72 6f                	jb     859 <.rodata.str1.1+0x859>
 7ea:	72 20                	jb     80c <.rodata.str1.1+0x80c>
 7ec:	6f                   	outs   dx,DWORD PTR ds:[rsi]
 7ed:	63 63 75             	movsxd esp,DWORD PTR [rbx+0x75]
 7f0:	72 72                	jb     864 <.rodata.str1.1+0x864>
 7f2:	65 64 00 48 50       	gs add BYTE PTR fs:[rax+0x50],cl
 7f7:	45 5f                	rex.RB pop r15
 7f9:	49                   	rex.WB
 7fa:	4e 56                	rex.WRX push rsi
 7fc:	41                   	rex.B
 7fd:	4c                   	rex.WR
 7fe:	49                   	rex.WB
 7ff:	44 5f                	rex.R pop rdi
 801:	54                   	push   rsp
 802:	52                   	push   rdx
 803:	41                   	rex.B
 804:	4e 53                	rex.WRX push rbx
 806:	46                   	rex.RX
 807:	45 52                	rex.RB push r10
 809:	5f                   	pop    rdi
 80a:	45                   	rex.RB
 80b:	4e                   	rex.WRX
 80c:	43                   	rex.XB
 80d:	4f                   	rex.WRXB
 80e:	44                   	rex.R
 80f:	49                   	rex.WB
 810:	4e                   	rex.WRX
 811:	47 00 44 45 4c       	add    BYTE PTR [r13+r8*2+0x4c],r8b
 816:	45 54                	rex.RB push r12
 818:	45 00 47 45          	add    BYTE PTR [r15+0x45],r8b
 81c:	54                   	push   rsp
 81d:	00 48 45             	add    BYTE PTR [rax+0x45],cl
 820:	41                   	rex.B
 821:	44 00 50 4f          	add    BYTE PTR [rax+0x4f],r10b
 825:	53                   	push   rbx
 826:	54                   	push   rsp
 827:	00 50 55             	add    BYTE PTR [rax+0x55],dl
 82a:	54                   	push   rsp
 82b:	00 43 4f             	add    BYTE PTR [rbx+0x4f],al
 82e:	4e                   	rex.WRX
 82f:	4e                   	rex.WRX
 830:	45                   	rex.RB
 831:	43 54                	rex.XB push r12
 833:	00 4f 50             	add    BYTE PTR [rdi+0x50],cl
 836:	54                   	push   rsp
 837:	49                   	rex.WB
 838:	4f                   	rex.WRXB
 839:	4e 53                	rex.WRX push rbx
 83b:	00 54 52 41          	add    BYTE PTR [rdx+rdx*2+0x41],dl
 83f:	43                   	rex.XB
 840:	45 00 43 4f          	add    BYTE PTR [r11+0x4f],r8b
 844:	50                   	push   rax
 845:	59                   	pop    rcx
 846:	00 4c 4f 43          	add    BYTE PTR [rdi+rcx*2+0x43],cl
 84a:	4b 00 4d 4b          	rex.WXB add BYTE PTR [r13+0x4b],cl
 84e:	43                   	rex.XB
 84f:	4f                   	rex.WRXB
 850:	4c 00 4d 4f          	rex.WR add BYTE PTR [rbp+0x4f],r9b
 854:	56                   	push   rsi
 855:	45 00 50 52          	add    BYTE PTR [r8+0x52],r10b
 859:	4f 50                	rex.WRXB push r8
 85b:	46                   	rex.RX
 85c:	49                   	rex.WB
 85d:	4e                   	rex.WRX
 85e:	44 00 50 52          	add    BYTE PTR [rax+0x52],r10b
 862:	4f 50                	rex.WRXB push r8
 864:	50                   	push   rax
 865:	41 54                	push   r12
 867:	43                   	rex.XB
 868:	48 00 53 45          	rex.W add BYTE PTR [rbx+0x45],dl
 86c:	41 52                	push   r10
 86e:	43                   	rex.XB
 86f:	48 00 55 4e          	rex.W add BYTE PTR [rbp+0x4e],dl
 873:	4c                   	rex.WR
 874:	4f                   	rex.WRXB
 875:	43                   	rex.XB
 876:	4b 00 42 49          	rex.WXB add BYTE PTR [r10+0x49],al
 87a:	4e                   	rex.WRX
 87b:	44 00 52 45          	add    BYTE PTR [rdx+0x45],r10b
 87f:	42                   	rex.X
 880:	49                   	rex.WB
 881:	4e                   	rex.WRX
 882:	44 00 55 4e          	add    BYTE PTR [rbp+0x4e],r10b
 886:	42                   	rex.X
 887:	49                   	rex.WB
 888:	4e                   	rex.WRX
 889:	44 00 41 43          	add    BYTE PTR [rcx+0x43],r8b
 88d:	4c 00 52 45          	rex.WR add BYTE PTR [rdx+0x45],r10b
 891:	50                   	push   rax
 892:	4f 52                	rex.WRXB push r10
 894:	54                   	push   rsp
 895:	00 4d 4b             	add    BYTE PTR [rbp+0x4b],cl
 898:	41                   	rex.B
 899:	43 54                	rex.XB push r12
 89b:	49 56                	rex.WB push r14
 89d:	49 54                	rex.WB push r12
 89f:	59                   	pop    rcx
 8a0:	00 43 48             	add    BYTE PTR [rbx+0x48],al
 8a3:	45                   	rex.RB
 8a4:	43                   	rex.XB
 8a5:	4b                   	rex.WXB
 8a6:	4f 55                	rex.WRXB push r13
 8a8:	54                   	push   rsp
 8a9:	00 4d 45             	add    BYTE PTR [rbp+0x45],cl
 8ac:	52                   	push   rdx
 8ad:	47                   	rex.RXB
 8ae:	45 00 4d 2d          	add    BYTE PTR [r13+0x2d],r9b
 8b2:	53                   	push   rbx
 8b3:	45                   	rex.RB
 8b4:	41 52                	push   r10
 8b6:	43                   	rex.XB
 8b7:	48 00 4e 4f          	rex.W add BYTE PTR [rsi+0x4f],cl
 8bb:	54                   	push   rsp
 8bc:	49                   	rex.WB
 8bd:	46 59                	rex.RX pop rcx
 8bf:	00 53 55             	add    BYTE PTR [rbx+0x55],dl
 8c2:	42 53                	rex.X push rbx
 8c4:	43 52                	rex.XB push r10
 8c6:	49                   	rex.WB
 8c7:	42                   	rex.X
 8c8:	45 00 55 4e          	add    BYTE PTR [r13+0x4e],r10b
 8cc:	53                   	push   rbx
 8cd:	55                   	push   rbp
 8ce:	42 53                	rex.X push rbx
 8d0:	43 52                	rex.XB push r10
 8d2:	49                   	rex.WB
 8d3:	42                   	rex.X
 8d4:	45 00 50 41          	add    BYTE PTR [r8+0x41],r10b
 8d8:	54                   	push   rsp
 8d9:	43                   	rex.XB
 8da:	48 00 50 55          	rex.W add BYTE PTR [rax+0x55],dl
 8de:	52                   	push   rdx
 8df:	47                   	rex.RXB
 8e0:	45 00 4d 4b          	add    BYTE PTR [r13+0x4b],r9b
 8e4:	43                   	rex.XB
 8e5:	41                   	rex.B
 8e6:	4c                   	rex.WR
 8e7:	45                   	rex.RB
 8e8:	4e                   	rex.WRX
 8e9:	44                   	rex.R
 8ea:	41 52                	push   r10
 8ec:	00 4c 49 4e          	add    BYTE PTR [rcx+rcx*2+0x4e],cl
 8f0:	4b 00 55 4e          	rex.WXB add BYTE PTR [r13+0x4e],dl
 8f4:	4c                   	rex.WR
 8f5:	49                   	rex.WB
 8f6:	4e                   	rex.WRX
 8f7:	4b 00 53 4f          	rex.WXB add BYTE PTR [r11+0x4f],dl
 8fb:	55                   	push   rbp
 8fc:	52                   	push   rdx
 8fd:	43                   	rex.XB
 8fe:	45 00 01             	add    BYTE PTR [r9],r8b
 901:	33 6b 68             	xor    ebp,DWORD PTR [rbx+0x68]
 904:	74 74                	je     97a <.rodata.str1.1+0x97a>
 906:	70 64                	jo     96c <.rodata.str1.1+0x96c>
 908:	3a 20                	cmp    ah,BYTE PTR [rax]
 90a:	77 72                	ja     97e <bn_init+0x1e>
 90c:	69 74 65 20 65 72 72 	imul   esi,DWORD PTR [rbp+riz*2+0x20],0x6f727265
 913:	6f 
 914:	72 3a                	jb     950 <.rodata.str1.1+0x950>
 916:	20 25 64 0a 00 01    	and    BYTE PTR [rip+0x1000a64],ah        # 1001380 <http_server_daemon+0xffa100>
 91c:	33 6b 68             	xor    ebp,DWORD PTR [rbx+0x68]
 91f:	74 74                	je     995 <bn_init+0x35>
 921:	70 64                	jo     987 <bn_init+0x27>
 923:	3a 20                	cmp    ah,BYTE PTR [rax]
 925:	72 65                	jb     98c <bn_init+0x2c>
 927:	63 76 20             	movsxd esi,DWORD PTR [rsi+0x20]
 92a:	65 72 72             	gs jb  99f <bn_init+0x3f>
 92d:	6f                   	outs   dx,DWORD PTR ds:[rsi]
 92e:	72 3a                	jb     96a <.rodata.str1.1+0x96a>
 930:	20 25 64 0a 00 2f    	and    BYTE PTR [rip+0x2f000a64],ah        # 2f00139a <http_server_daemon+0x2effa11a>
 936:	00 66 69             	add    BYTE PTR [rsi+0x69],ah
 939:	62                   	(bad)  
 93a:	00 01                	add    BYTE PTR [rcx],al
 93c:	36 6b 68 74 74       	imul   ebp,DWORD PTR ss:[rax+0x74],0x74
 941:	70 64                	jo     9a7 <bn_init+0x47>
 943:	3a 20                	cmp    ah,BYTE PTR [rax]
 945:	6d                   	ins    DWORD PTR es:[rdi],dx
 946:	6f                   	outs   dx,DWORD PTR ds:[rsi]
 947:	64 75 6c             	fs jne 9b6 <bn_init_u32+0x6>
 94a:	65 20 69 6e          	and    BYTE PTR gs:[rcx+0x6e],ch
 94e:	69 74 0a 00 6b 68 74 	imul   esi,DWORD PTR [rdx+rcx*1+0x0],0x7474686b
 955:	74 
 956:	70 64                	jo     9bc <bn_init_u32+0xc>
 958:	5f                   	pop    rdi
 959:	77 71                	ja     9cc <bn_init_u32+0x1c>
 95b:	00 6b 68             	add    BYTE PTR [rbx+0x68],ch
 95e:	74 74                	je     9d4 <bn_init_u32+0x24>
 960:	70 64                	jo     9c6 <bn_init_u32+0x16>
 962:	00 01                	add    BYTE PTR [rcx],al
 964:	36 6b 68 74 74       	imul   ebp,DWORD PTR ss:[rax+0x74],0x74
 969:	70 64                	jo     9cf <bn_init_u32+0x1f>
 96b:	3a 20                	cmp    ah,BYTE PTR [rax]
 96d:	6d                   	ins    DWORD PTR es:[rdi],dx
 96e:	6f                   	outs   dx,DWORD PTR ds:[rsi]
 96f:	64 75 6c             	fs jne 9de <bn_init_u32+0x2e>
 972:	65 20 75 6e          	and    BYTE PTR gs:[rbp+0x6e],dh
 976:	6c                   	ins    BYTE PTR es:[rdi],dx
 977:	6f                   	outs   dx,DWORD PTR ds:[rsi]
 978:	61                   	(bad)  
 979:	64 65 64 0a 00       	fs gs or al,BYTE PTR fs:[rax]

Disassembly of section .rodata.str1.8:

0000000000000000 <.rodata.str1.8>:
   0:	52                   	push   rdx
   1:	65 71 75             	gs jno 79 <.rodata.str1.8+0x79>
   4:	65 73 74             	gs jae 7b <.rodata.str1.8+0x7b>
   7:	20 48 65             	and    BYTE PTR [rax+0x65],cl
   a:	61                   	(bad)  
   b:	64 65 72 20          	fs gs jb 2f <.rodata.str1.8+0x2f>
   f:	46 69 65 6c 64 73 20 	rex.RX imul r12d,DWORD PTR [rbp+0x6c],0x54207364
  16:	54 
  17:	6f                   	outs   dx,DWORD PTR ds:[rsi]
  18:	6f                   	outs   dx,DWORD PTR ds:[rsi]
  19:	20 4c 61 72          	and    BYTE PTR [rcx+riz*2+0x72],cl
  1d:	67 65 00 4e 65       	add    BYTE PTR gs:[esi+0x65],cl
  22:	74 77                	je     9b <.rodata.str1.8+0x9b>
  24:	6f                   	outs   dx,DWORD PTR ds:[rsi]
  25:	72 6b                	jb     92 <.rodata.str1.8+0x92>
  27:	20 41 75             	and    BYTE PTR [rcx+0x75],al
  2a:	74 68                	je     94 <.rodata.str1.8+0x94>
  2c:	65 6e                	outs   dx,BYTE PTR gs:[rsi]
  2e:	74 69                	je     99 <.rodata.str1.8+0x99>
  30:	63 61 74             	movsxd esp,DWORD PTR [rcx+0x74]
  33:	69 6f 6e 20 52 65 71 	imul   ebp,DWORD PTR [rdi+0x6e],0x71655220
  3a:	75 69                	jne    a5 <.rodata.str1.8+0xa5>
  3c:	72 65                	jb     a3 <.rodata.str1.8+0xa3>
  3e:	64 00 74 68 65       	add    BYTE PTR fs:[rax+rbp*2+0x65],dh
  43:	20 6f 6e             	and    BYTE PTR [rdi+0x6e],ch
  46:	5f                   	pop    rdi
  47:	6d                   	ins    DWORD PTR es:[rdi],dx
  48:	65 73 73             	gs jae be <.rodata.str1.8+0xbe>
  4b:	61                   	(bad)  
  4c:	67 65 5f             	addr32 gs pop rdi
  4f:	62                   	(bad)  
  50:	65 67 69 6e 20 63 61 	imul   ebp,DWORD PTR gs:[esi+0x20],0x6c6c6163
  57:	6c 6c 
  59:	62 61                	(bad)  
  5b:	63 6b 20             	movsxd ebp,DWORD PTR [rbx+0x20]
  5e:	66 61                	data16 (bad) 
  60:	69 6c 65 64 00 00 00 	imul   ebp,DWORD PTR [rbp+riz*2+0x64],0x0
  67:	00 
  68:	74 68                	je     d2 <.rodata.str1.8+0xd2>
  6a:	65 20 6f 6e          	and    BYTE PTR gs:[rdi+0x6e],ch
  6e:	5f                   	pop    rdi
  6f:	68 65 61 64 65       	push   0x65646165
  74:	72 5f                	jb     d5 <.rodata.str1.8+0xd5>
  76:	66 69 65 6c 64 20    	imul   sp,WORD PTR [rbp+0x6c],0x2064
  7c:	63 61 6c             	movsxd esp,DWORD PTR [rcx+0x6c]
  7f:	6c                   	ins    BYTE PTR es:[rdi],dx
  80:	62 61                	(bad)  
  82:	63 6b 20             	movsxd ebp,DWORD PTR [rbx+0x20]
  85:	66 61                	data16 (bad) 
  87:	69 6c 65 64 00 00 00 	imul   ebp,DWORD PTR [rbp+riz*2+0x64],0x0
  8e:	00 
  8f:	00 74 68 65          	add    BYTE PTR [rax+rbp*2+0x65],dh
  93:	20 6f 6e             	and    BYTE PTR [rdi+0x6e],ch
  96:	5f                   	pop    rdi
  97:	68 65 61 64 65       	push   0x65646165
  9c:	72 5f                	jb     fd <.rodata.str1.8+0xfd>
  9e:	76 61                	jbe    101 <.rodata.str1.8+0x101>
  a0:	6c                   	ins    BYTE PTR es:[rdi],dx
  a1:	75 65                	jne    108 <.rodata.str1.8+0x108>
  a3:	20 63 61             	and    BYTE PTR [rbx+0x61],ah
  a6:	6c                   	ins    BYTE PTR es:[rdi],dx
  a7:	6c                   	ins    BYTE PTR es:[rdi],dx
  a8:	62 61                	(bad)  
  aa:	63 6b 20             	movsxd ebp,DWORD PTR [rbx+0x20]
  ad:	66 61                	data16 (bad) 
  af:	69 6c 65 64 00 00 00 	imul   ebp,DWORD PTR [rbp+riz*2+0x64],0x0
  b6:	00 
  b7:	00 74 68 65          	add    BYTE PTR [rax+rbp*2+0x65],dh
  bb:	20 6f 6e             	and    BYTE PTR [rdi+0x6e],ch
  be:	5f                   	pop    rdi
  bf:	68 65 61 64 65       	push   0x65646165
  c4:	72 73                	jb     139 <.rodata.str1.8+0x139>
  c6:	5f                   	pop    rdi
  c7:	63 6f 6d             	movsxd ebp,DWORD PTR [rdi+0x6d]
  ca:	70 6c                	jo     138 <.rodata.str1.8+0x138>
  cc:	65 74 65             	gs je  134 <.rodata.str1.8+0x134>
  cf:	20 63 61             	and    BYTE PTR [rbx+0x61],ah
  d2:	6c                   	ins    BYTE PTR es:[rdi],dx
  d3:	6c                   	ins    BYTE PTR es:[rdi],dx
  d4:	62 61                	(bad)  
  d6:	63 6b 20             	movsxd ebp,DWORD PTR [rbx+0x20]
  d9:	66 61                	data16 (bad) 
  db:	69 6c 65 64 00 74 68 	imul   ebp,DWORD PTR [rbp+riz*2+0x64],0x65687400
  e2:	65 
  e3:	20 6f 6e             	and    BYTE PTR [rdi+0x6e],ch
  e6:	5f                   	pop    rdi
  e7:	6d                   	ins    DWORD PTR es:[rdi],dx
  e8:	65 73 73             	gs jae 15e <.rodata.str1.8+0x15e>
  eb:	61                   	(bad)  
  ec:	67 65 5f             	addr32 gs pop rdi
  ef:	63 6f 6d             	movsxd ebp,DWORD PTR [rdi+0x6d]
  f2:	70 6c                	jo     160 <.rodata.str1.8+0x160>
  f4:	65 74 65             	gs je  15c <.rodata.str1.8+0x15c>
  f7:	20 63 61             	and    BYTE PTR [rbx+0x61],ah
  fa:	6c                   	ins    BYTE PTR es:[rdi],dx
  fb:	6c                   	ins    BYTE PTR es:[rdi],dx
  fc:	62 61                	(bad)  
  fe:	63 6b 20             	movsxd ebp,DWORD PTR [rbx+0x20]
 101:	66 61                	data16 (bad) 
 103:	69 6c 65 64 00 74 68 	imul   ebp,DWORD PTR [rbp+riz*2+0x64],0x65687400
 10a:	65 
 10b:	20 6f 6e             	and    BYTE PTR [rdi+0x6e],ch
 10e:	5f                   	pop    rdi
 10f:	63 68 75             	movsxd ebp,DWORD PTR [rax+0x75]
 112:	6e                   	outs   dx,BYTE PTR ds:[rsi]
 113:	6b 5f 68 65          	imul   ebx,DWORD PTR [rdi+0x68],0x65
 117:	61                   	(bad)  
 118:	64 65 72 20          	fs gs jb 13c <.rodata.str1.8+0x13c>
 11c:	63 61 6c             	movsxd esp,DWORD PTR [rcx+0x6c]
 11f:	6c                   	ins    BYTE PTR es:[rdi],dx
 120:	62 61                	(bad)  
 122:	63 6b 20             	movsxd ebp,DWORD PTR [rbx+0x20]
 125:	66 61                	data16 (bad) 
 127:	69 6c 65 64 00 00 00 	imul   ebp,DWORD PTR [rbp+riz*2+0x64],0x0
 12e:	00 
 12f:	00 74 68 65          	add    BYTE PTR [rax+rbp*2+0x65],dh
 133:	20 6f 6e             	and    BYTE PTR [rdi+0x6e],ch
 136:	5f                   	pop    rdi
 137:	63 68 75             	movsxd ebp,DWORD PTR [rax+0x75]
 13a:	6e                   	outs   dx,BYTE PTR ds:[rsi]
 13b:	6b 5f 63 6f          	imul   ebx,DWORD PTR [rdi+0x63],0x6f
 13f:	6d                   	ins    DWORD PTR es:[rdi],dx
 140:	70 6c                	jo     1ae <.rodata.str1.8+0x1ae>
 142:	65 74 65             	gs je  1aa <.rodata.str1.8+0x1aa>
 145:	20 63 61             	and    BYTE PTR [rbx+0x61],ah
 148:	6c                   	ins    BYTE PTR es:[rdi],dx
 149:	6c                   	ins    BYTE PTR es:[rdi],dx
 14a:	62 61                	(bad)  
 14c:	63 6b 20             	movsxd ebp,DWORD PTR [rbx+0x20]
 14f:	66 61                	data16 (bad) 
 151:	69 6c 65 64 00 00 00 	imul   ebp,DWORD PTR [rbp+riz*2+0x64],0x73000000
 158:	73 
 159:	74 72                	je     1cd <.rodata.str1.8+0x1cd>
 15b:	65 61                	gs (bad) 
 15d:	6d                   	ins    DWORD PTR es:[rdi],dx
 15e:	20 65 6e             	and    BYTE PTR [rbp+0x6e],ah
 161:	64 65 64 20 61 74    	fs gs and BYTE PTR fs:[rcx+0x74],ah
 167:	20 61 6e             	and    BYTE PTR [rcx+0x6e],ah
 16a:	20 75 6e             	and    BYTE PTR [rbp+0x6e],dh
 16d:	65 78 70             	gs js  1e0 <.rodata.str1.8+0x1e0>
 170:	65 63 74 65 64       	movsxd esi,DWORD PTR gs:[rbp+riz*2+0x64]
 175:	20 74 69 6d          	and    BYTE PTR [rcx+rbp*2+0x6d],dh
 179:	65 00 00             	add    BYTE PTR gs:[rax],al
 17c:	00 00                	add    BYTE PTR [rax],al
 17e:	00 00                	add    BYTE PTR [rax],al
 180:	74 6f                	je     1f1 <.rodata.str1.8+0x1f1>
 182:	6f                   	outs   dx,DWORD PTR ds:[rsi]
 183:	20 6d 61             	and    BYTE PTR [rbp+0x61],ch
 186:	6e                   	outs   dx,BYTE PTR ds:[rsi]
 187:	79 20                	jns    1a9 <.rodata.str1.8+0x1a9>
 189:	68 65 61 64 65       	push   0x65646165
 18e:	72 20                	jb     1b0 <.rodata.str1.8+0x1b0>
 190:	62                   	(bad)  
 191:	79 74                	jns    207 <.rodata.str1.8+0x207>
 193:	65 73 20             	gs jae 1b6 <.rodata.str1.8+0x1b6>
 196:	73 65                	jae    1fd <.rodata.str1.8+0x1fd>
 198:	65 6e                	outs   dx,BYTE PTR gs:[rsi]
 19a:	3b 20                	cmp    esp,DWORD PTR [rax]
 19c:	6f                   	outs   dx,DWORD PTR ds:[rsi]
 19d:	76 65                	jbe    204 <.rodata.str1.8+0x204>
 19f:	72 66                	jb     207 <.rodata.str1.8+0x207>
 1a1:	6c                   	ins    BYTE PTR es:[rdi],dx
 1a2:	6f                   	outs   dx,DWORD PTR ds:[rsi]
 1a3:	77 20                	ja     1c5 <.rodata.str1.8+0x1c5>
 1a5:	64 65 74 65          	fs gs je 20e <.rodata.str1.8+0x20e>
 1a9:	63 74 65 64          	movsxd esi,DWORD PTR [rbp+riz*2+0x64]
 1ad:	00 00                	add    BYTE PTR [rax],al
 1af:	00 64 61 74          	add    BYTE PTR [rcx+riz*2+0x74],ah
 1b3:	61                   	(bad)  
 1b4:	20 72 65             	and    BYTE PTR [rdx+0x65],dh
 1b7:	63 65 69             	movsxd esp,DWORD PTR [rbp+0x69]
 1ba:	76 65                	jbe    221 <.rodata.str1.8+0x221>
 1bc:	64 20 61 66          	and    BYTE PTR fs:[rcx+0x66],ah
 1c0:	74 65                	je     227 <.rodata.str1.8+0x227>
 1c2:	72 20                	jb     1e4 <.rodata.str1.8+0x1e4>
 1c4:	63 6f 6d             	movsxd ebp,DWORD PTR [rdi+0x6d]
 1c7:	70 6c                	jo     235 <.rodata.str1.8+0x235>
 1c9:	65 74 65             	gs je  231 <.rodata.str1.8+0x231>
 1cc:	64 20 63 6f          	and    BYTE PTR fs:[rbx+0x6f],ah
 1d0:	6e                   	outs   dx,BYTE PTR ds:[rsi]
 1d1:	6e                   	outs   dx,BYTE PTR ds:[rsi]
 1d2:	65 63 74 69 6f       	movsxd esi,DWORD PTR gs:[rcx+rbp*2+0x6f]
 1d7:	6e                   	outs   dx,BYTE PTR ds:[rsi]
 1d8:	3a 20                	cmp    ah,BYTE PTR [rax]
 1da:	63 6c 6f 73          	movsxd ebp,DWORD PTR [rdi+rbp*2+0x73]
 1de:	65 20 6d 65          	and    BYTE PTR gs:[rbp+0x65],ch
 1e2:	73 73                	jae    257 <.rodata.str1.8+0x257>
 1e4:	61                   	(bad)  
 1e5:	67 65 00 69 6e       	add    BYTE PTR gs:[ecx+0x6e],ch
 1ea:	76 61                	jbe    24d <.rodata.str1.8+0x24d>
 1ec:	6c                   	ins    BYTE PTR es:[rdi],dx
 1ed:	69 64 20 63 68 61 72 	imul   esp,DWORD PTR [rax+riz*1+0x63],0x61726168
 1f4:	61 
 1f5:	63 74 65 72          	movsxd esi,DWORD PTR [rbp+riz*2+0x72]
 1f9:	20 69 6e             	and    BYTE PTR [rcx+0x6e],ch
 1fc:	20 63 6f             	and    BYTE PTR [rbx+0x6f],ah
 1ff:	6e                   	outs   dx,BYTE PTR ds:[rsi]
 200:	74 65                	je     267 <.rodata.str1.8+0x267>
 202:	6e                   	outs   dx,BYTE PTR ds:[rsi]
 203:	74 2d                	je     232 <.rodata.str1.8+0x232>
 205:	6c                   	ins    BYTE PTR es:[rdi],dx
 206:	65 6e                	outs   dx,BYTE PTR gs:[rsi]
 208:	67 74 68             	addr32 je 273 <.rodata.str1.8+0x273>
 20b:	20 68 65             	and    BYTE PTR [rax+0x65],ch
 20e:	61                   	(bad)  
 20f:	64 65 72 00          	fs gs jb 213 <.rodata.str1.8+0x213>
 213:	00 00                	add    BYTE PTR [rax],al
 215:	00 00                	add    BYTE PTR [rax],al
 217:	00 75 6e             	add    BYTE PTR [rbp+0x6e],dh
 21a:	65 78 70             	gs js  28d <.rodata.str1.8+0x28d>
 21d:	65 63 74 65 64       	movsxd esi,DWORD PTR gs:[rbp+riz*2+0x64]
 222:	20 63 6f             	and    BYTE PTR [rbx+0x6f],ah
 225:	6e                   	outs   dx,BYTE PTR ds:[rsi]
 226:	74 65                	je     28d <.rodata.str1.8+0x28d>
 228:	6e                   	outs   dx,BYTE PTR ds:[rsi]
 229:	74 2d                	je     258 <.rodata.str1.8+0x258>
 22b:	6c                   	ins    BYTE PTR es:[rdi],dx
 22c:	65 6e                	outs   dx,BYTE PTR gs:[rsi]
 22e:	67 74 68             	addr32 je 299 <.rodata.str1.8+0x299>
 231:	20 68 65             	and    BYTE PTR [rax+0x65],ch
 234:	61                   	(bad)  
 235:	64 65 72 00          	fs gs jb 239 <.rodata.str1.8+0x239>
 239:	00 00                	add    BYTE PTR [rax],al
 23b:	00 00                	add    BYTE PTR [rax],al
 23d:	00 00                	add    BYTE PTR [rax],al
 23f:	00 69 6e             	add    BYTE PTR [rcx+0x6e],ch
 242:	76 61                	jbe    2a5 <.rodata.str1.8+0x2a5>
 244:	6c                   	ins    BYTE PTR es:[rdi],dx
 245:	69 64 20 63 68 61 72 	imul   esp,DWORD PTR [rax+riz*1+0x63],0x61726168
 24c:	61 
 24d:	63 74 65 72          	movsxd esi,DWORD PTR [rbp+riz*2+0x72]
 251:	20 69 6e             	and    BYTE PTR [rcx+0x6e],ch
 254:	20 63 68             	and    BYTE PTR [rbx+0x68],ah
 257:	75 6e                	jne    2c7 <.rodata.str1.8+0x2c7>
 259:	6b 20 73             	imul   esp,DWORD PTR [rax],0x73
 25c:	69 7a 65 20 68 65 61 	imul   edi,DWORD PTR [rdx+0x65],0x61656820
 263:	64 65 72 00          	fs gs jb 267 <.rodata.str1.8+0x267>
 267:	00 65 6e             	add    BYTE PTR [rbp+0x6e],ah
 26a:	63 6f 75             	movsxd ebp,DWORD PTR [rdi+0x75]
 26d:	6e                   	outs   dx,BYTE PTR ds:[rsi]
 26e:	74 65                	je     2d5 <.rodata.str1.8+0x2d5>
 270:	72 65                	jb     2d7 <.rodata.str1.8+0x2d7>
 272:	64 20 75 6e          	and    BYTE PTR fs:[rbp+0x6e],dh
 276:	65 78 70             	gs js  2e9 <.rodata.str1.8+0x2e9>
 279:	65 63 74 65 64       	movsxd esi,DWORD PTR gs:[rbp+riz*2+0x64]
 27e:	20 69 6e             	and    BYTE PTR [rcx+0x6e],ch
 281:	74 65                	je     2e8 <.rodata.str1.8+0x2e8>
 283:	72 6e                	jb     2f3 <.rodata.str1.8+0x2f3>
 285:	61                   	(bad)  
 286:	6c                   	ins    BYTE PTR es:[rdi],dx
 287:	20 73 74             	and    BYTE PTR [rbx+0x74],dh
 28a:	61                   	(bad)  
 28b:	74 65                	je     2f2 <.rodata.str1.8+0x2f2>
 28d:	00 00                	add    BYTE PTR [rax],al
 28f:	00 72 65             	add    BYTE PTR [rdx+0x65],dh
 292:	71 75                	jno    309 <.rodata.str1.8+0x309>
 294:	65 73 74             	gs jae 30b <.rodata.str1.8+0x30b>
 297:	20 68 61             	and    BYTE PTR [rax+0x61],ch
 29a:	73 20                	jae    2bc <.rodata.str1.8+0x2bc>
 29c:	69 6e 76 61 6c 69 64 	imul   ebp,DWORD PTR [rsi+0x76],0x64696c61
 2a3:	20 74 72 61          	and    BYTE PTR [rdx+rsi*2+0x61],dh
 2a7:	6e                   	outs   dx,BYTE PTR ds:[rsi]
 2a8:	73 66                	jae    310 <.rodata.str1.8+0x310>
 2aa:	65 72 2d             	gs jb  2da <.rodata.str1.8+0x2da>
 2ad:	65 6e                	outs   dx,BYTE PTR gs:[rsi]
 2af:	63 6f 64             	movsxd ebp,DWORD PTR [rdi+0x64]
 2b2:	69 6e 67 00 00 00 01 	imul   ebp,DWORD PTR [rsi+0x67],0x1000000
 2b9:	33 6b 68             	xor    ebp,DWORD PTR [rbx+0x68]
 2bc:	74 74                	je     332 <.rodata.str1.8+0x332>
 2be:	70 64                	jo     324 <.rodata.str1.8+0x324>
 2c0:	3a 20                	cmp    ah,BYTE PTR [rax]
 2c2:	63 61 6e             	movsxd esp,DWORD PTR [rcx+0x6e]
 2c5:	27                   	(bad)  
 2c6:	74 20                	je     2e8 <.rodata.str1.8+0x2e8>
 2c8:	61                   	(bad)  
 2c9:	6c                   	ins    BYTE PTR es:[rdi],dx
 2ca:	6c                   	ins    BYTE PTR es:[rdi],dx
 2cb:	6f                   	outs   dx,DWORD PTR ds:[rsi]
 2cc:	63 61 74             	movsxd esp,DWORD PTR [rcx+0x74]
 2cf:	65 20 6d 65          	and    BYTE PTR gs:[rbp+0x65],ch
 2d3:	6d                   	ins    DWORD PTR es:[rdi],dx
 2d4:	6f                   	outs   dx,DWORD PTR ds:[rsi]
 2d5:	72 79                	jb     350 <.rodata.str1.8+0x350>
 2d7:	21 0a                	and    DWORD PTR [rdx],ecx
 2d9:	00 00                	add    BYTE PTR [rax],al
 2db:	00 00                	add    BYTE PTR [rax],al
 2dd:	00 00                	add    BYTE PTR [rax],al
 2df:	00 48 54             	add    BYTE PTR [rax+0x54],cl
 2e2:	54                   	push   rsp
 2e3:	50                   	push   rax
 2e4:	2f                   	(bad)  
 2e5:	31 2e                	xor    DWORD PTR [rsi],ebp
 2e7:	31 20                	xor    DWORD PTR [rax],esp
 2e9:	32 30                	xor    dh,BYTE PTR [rax]
 2eb:	30 20                	xor    BYTE PTR [rax],ah
 2ed:	4f                   	rex.WRXB
 2ee:	4b 0d 0a 53 65 72    	rex.WXB or rax,0x7265530a
 2f4:	76 65                	jbe    35b <.rodata.str1.8+0x35b>
 2f6:	72 3a                	jb     332 <.rodata.str1.8+0x332>
 2f8:	20 6b 68             	and    BYTE PTR [rbx+0x68],ch
 2fb:	74 74                	je     371 <.rodata.str1.8+0x371>
 2fd:	70 64                	jo     363 <.rodata.str1.8+0x363>
 2ff:	0d 0a 43 6f 6e       	or     eax,0x6e6f430a
 304:	74 65                	je     36b <.rodata.str1.8+0x36b>
 306:	6e                   	outs   dx,BYTE PTR ds:[rsi]
 307:	74 2d                	je     336 <.rodata.str1.8+0x336>
 309:	54                   	push   rsp
 30a:	79 70                	jns    37c <.rodata.str1.8+0x37c>
 30c:	65 3a 20             	cmp    ah,BYTE PTR gs:[rax]
 30f:	74 65                	je     376 <.rodata.str1.8+0x376>
 311:	78 74                	js     387 <.rodata.str1.8+0x387>
 313:	2f                   	(bad)  
 314:	70 6c                	jo     382 <.rodata.str1.8+0x382>
 316:	61                   	(bad)  
 317:	69 6e 0d 0a 43 6f 6e 	imul   ebp,DWORD PTR [rsi+0xd],0x6e6f430a
 31e:	74 65                	je     385 <.rodata.str1.8+0x385>
 320:	6e                   	outs   dx,BYTE PTR ds:[rsi]
 321:	74 2d                	je     350 <.rodata.str1.8+0x350>
 323:	4c                   	rex.WR
 324:	65 6e                	outs   dx,BYTE PTR gs:[rsi]
 326:	67 74 68             	addr32 je 391 <.rodata.str1.8+0x391>
 329:	3a 20                	cmp    ah,BYTE PTR [rax]
 32b:	25 6c 75 0d 0a       	and    eax,0xa0d756c
 330:	43 6f                	rex.XB outs dx,DWORD PTR ds:[rsi]
 332:	6e                   	outs   dx,BYTE PTR ds:[rsi]
 333:	6e                   	outs   dx,BYTE PTR ds:[rsi]
 334:	65 63 74 69 6f       	movsxd esi,DWORD PTR gs:[rcx+rbp*2+0x6f]
 339:	6e                   	outs   dx,BYTE PTR ds:[rsi]
 33a:	3a 20                	cmp    ah,BYTE PTR [rax]
 33c:	43 6c                	rex.XB ins BYTE PTR es:[rdi],dx
 33e:	6f                   	outs   dx,DWORD PTR ds:[rsi]
 33f:	73 65                	jae    3a6 <.rodata.str1.8+0x3a6>
 341:	0d 0a 0d 0a 25       	or     eax,0x250a0d0a
 346:	73 0d                	jae    355 <.rodata.str1.8+0x355>
 348:	0a 00                	or     al,BYTE PTR [rax]
 34a:	00 00                	add    BYTE PTR [rax],al
 34c:	00 00                	add    BYTE PTR [rax],al
 34e:	00 00                	add    BYTE PTR [rax],al
 350:	01 33                	add    DWORD PTR [rbx],esi
 352:	6b 68 74 74          	imul   ebp,DWORD PTR [rax+0x74],0x74
 356:	70 64                	jo     3bc <.rodata.str1.8+0x3bc>
 358:	3a 20                	cmp    ah,BYTE PTR [rax]
 35a:	6b 65 72 6e          	imul   esp,DWORD PTR [rbp+0x72],0x6e
 35e:	65 6c                	gs ins BYTE PTR es:[rdi],dx
 360:	5f                   	pop    rdi
 361:	61                   	(bad)  
 362:	63 63 65             	movsxd esp,DWORD PTR [rbx+0x65]
 365:	70 74                	jo     3db <.rodata.str1.8+0x3db>
 367:	28 29                	sub    BYTE PTR [rcx],ch
 369:	20 65 72             	and    BYTE PTR [rbp+0x72],ah
 36c:	72 6f                	jb     3dd <.rodata.str1.8+0x3dd>
 36e:	72 3a                	jb     3aa <.rodata.str1.8+0x3aa>
 370:	20 25 64 0a 00 00    	and    BYTE PTR [rip+0xa64],ah        # dda <bn_add+0x26a>
 376:	00 00                	add    BYTE PTR [rax],al
 378:	01 33                	add    DWORD PTR [rbx],esi
 37a:	6b 68 74 74          	imul   ebp,DWORD PTR [rax+0x74],0x74
 37e:	70 64                	jo     3e4 <.rodata.str1.8+0x3e4>
 380:	3a 20                	cmp    ah,BYTE PTR [rax]
 382:	63 61 6e             	movsxd esp,DWORD PTR [rcx+0x6e]
 385:	27                   	(bad)  
 386:	74 20                	je     3a8 <.rodata.str1.8+0x3a8>
 388:	63 72 65             	movsxd esi,DWORD PTR [rdx+0x65]
 38b:	61                   	(bad)  
 38c:	74 65                	je     3f3 <.rodata.str1.8+0x3f3>
 38e:	20 6d 6f             	and    BYTE PTR [rbp+0x6f],ch
 391:	72 65                	jb     3f8 <.rodata.str1.8+0x3f8>
 393:	20 77 6f             	and    BYTE PTR [rdi+0x6f],dh
 396:	72 6b                	jb     403 <.rodata.str1.8+0x403>
 398:	65 72 0a             	gs jb  3a5 <.rodata.str1.8+0x3a5>
 39b:	00 00                	add    BYTE PTR [rax],al
 39d:	00 00                	add    BYTE PTR [rax],al
 39f:	00 01                	add    BYTE PTR [rcx],al
 3a1:	33 6b 68             	xor    ebp,DWORD PTR [rbx+0x68]
 3a4:	74 74                	je     41a <.rodata.str1.8+0x41a>
 3a6:	70 64                	jo     40c <.rodata.str1.8+0x40c>
 3a8:	3a 20                	cmp    ah,BYTE PTR [rax]
 3aa:	73 6f                	jae    41b <.rodata.str1.8+0x41b>
 3ac:	63 6b 5f             	movsxd ebp,DWORD PTR [rbx+0x5f]
 3af:	63 72 65             	movsxd esi,DWORD PTR [rdx+0x65]
 3b2:	61                   	(bad)  
 3b3:	74 65                	je     41a <.rodata.str1.8+0x41a>
 3b5:	28 29                	sub    BYTE PTR [rcx],ch
 3b7:	20 66 61             	and    BYTE PTR [rsi+0x61],ah
 3ba:	69 6c 75 72 65 2c 20 	imul   ebp,DWORD PTR [rbp+rsi*2+0x72],0x65202c65
 3c1:	65 
 3c2:	72 72                	jb     436 <.rodata.str1.8+0x436>
 3c4:	3d 25 64 0a 00       	cmp    eax,0xa6425
 3c9:	00 00                	add    BYTE PTR [rax],al
 3cb:	00 00                	add    BYTE PTR [rax],al
 3cd:	00 00                	add    BYTE PTR [rax],al
 3cf:	00 01                	add    BYTE PTR [rcx],al
 3d1:	33 6b 68             	xor    ebp,DWORD PTR [rbx+0x68]
 3d4:	74 74                	je     44a <.rodata.str1.8+0x44a>
 3d6:	70 64                	jo     43c <.rodata.str1.8+0x43c>
 3d8:	3a 20                	cmp    ah,BYTE PTR [rax]
 3da:	6b 65 72 6e          	imul   esp,DWORD PTR [rbp+0x72],0x6e
 3de:	65 6c                	gs ins BYTE PTR es:[rdi],dx
 3e0:	5f                   	pop    rdi
 3e1:	62                   	(bad)  
 3e2:	69 6e 64 28 29 20 66 	imul   ebp,DWORD PTR [rsi+0x64],0x66202928
 3e9:	61                   	(bad)  
 3ea:	69 6c 75 72 65 2c 20 	imul   ebp,DWORD PTR [rbp+rsi*2+0x72],0x65202c65
 3f1:	65 
 3f2:	72 72                	jb     466 <.rodata.str1.8+0x466>
 3f4:	3d 25 64 0a 00       	cmp    eax,0xa6425
 3f9:	00 00                	add    BYTE PTR [rax],al
 3fb:	00 00                	add    BYTE PTR [rax],al
 3fd:	00 00                	add    BYTE PTR [rax],al
 3ff:	00 01                	add    BYTE PTR [rcx],al
 401:	33 6b 68             	xor    ebp,DWORD PTR [rbx+0x68]
 404:	74 74                	je     47a <.rodata.str1.8+0x47a>
 406:	70 64                	jo     46c <.rodata.str1.8+0x46c>
 408:	3a 20                	cmp    ah,BYTE PTR [rax]
 40a:	6b 65 72 6e          	imul   esp,DWORD PTR [rbp+0x72],0x6e
 40e:	65 6c                	gs ins BYTE PTR es:[rdi],dx
 410:	5f                   	pop    rdi
 411:	6c                   	ins    BYTE PTR es:[rdi],dx
 412:	69 73 74 65 6e 28 29 	imul   esi,DWORD PTR [rbx+0x74],0x29286e65
 419:	20 66 61             	and    BYTE PTR [rsi+0x61],ah
 41c:	69 6c 75 72 65 2c 20 	imul   ebp,DWORD PTR [rbp+rsi*2+0x72],0x65202c65
 423:	65 
 424:	72 72                	jb     498 <.rodata.str1.8+0x498>
 426:	3d 25 64 0a 00       	cmp    eax,0xa6425
 42b:	00 00                	add    BYTE PTR [rax],al
 42d:	00 00                	add    BYTE PTR [rax],al
 42f:	00 01                	add    BYTE PTR [rcx],al
 431:	33 6b 68             	xor    ebp,DWORD PTR [rbx+0x68]
 434:	74 74                	je     4aa <.rodata.str1.8+0x4aa>
 436:	70 64                	jo     49c <.rodata.str1.8+0x49c>
 438:	3a 20                	cmp    ah,BYTE PTR [rax]
 43a:	6b 65 72 6e          	imul   esp,DWORD PTR [rbp+0x72],0x6e
 43e:	65 6c                	gs ins BYTE PTR es:[rdi],dx
 440:	5f                   	pop    rdi
 441:	73 65                	jae    4a8 <.rodata.str1.8+0x4a8>
 443:	74 73                	je     4b8 <apm_subi+0x38>
 445:	6f                   	outs   dx,DWORD PTR ds:[rsi]
 446:	63 6b 6f             	movsxd ebp,DWORD PTR [rbx+0x6f]
 449:	70 74                	jo     4bf <apm_subi+0x3f>
 44b:	28 29                	sub    BYTE PTR [rcx],ch
 44d:	20 66 61             	and    BYTE PTR [rsi+0x61],ah
 450:	69 6c 75 72 65 2c 20 	imul   ebp,DWORD PTR [rbp+rsi*2+0x72],0x65202c65
 457:	65 
 458:	72 72                	jb     4cc <apm_subi+0x4c>
 45a:	3d 25 64 0a 00       	cmp    eax,0xa6425
 45f:	00 01                	add    BYTE PTR [rcx],al
 461:	33 6b 68             	xor    ebp,DWORD PTR [rbx+0x68]
 464:	74 74                	je     4da <apm_subi+0x5a>
 466:	70 64                	jo     4cc <apm_subi+0x4c>
 468:	3a 20                	cmp    ah,BYTE PTR [rax]
 46a:	63 61 6e             	movsxd esp,DWORD PTR [rcx+0x6e]
 46d:	27                   	(bad)  
 46e:	74 20                	je     490 <.rodata.str1.8+0x490>
 470:	73 74                	jae    4e6 <apm_subi+0x66>
 472:	61                   	(bad)  
 473:	72 74                	jb     4e9 <apm_subi+0x69>
 475:	20 68 74             	and    BYTE PTR [rax+0x74],ch
 478:	74 70                	je     4ea <apm_subi+0x6a>
 47a:	20 73 65             	and    BYTE PTR [rbx+0x65],dh
 47d:	72 76                	jb     4f5 <apm_subi+0x75>
 47f:	65 72 20             	gs jb  4a2 <.rodata.str1.8+0x4a2>
 482:	64 61                	fs (bad) 
 484:	65 6d                	gs ins DWORD PTR es:[rdi],dx
 486:	6f                   	outs   dx,DWORD PTR ds:[rsi]
 487:	6e                   	outs   dx,BYTE PTR ds:[rsi]
 488:	0a 00                	or     al,BYTE PTR [rax]
 48a:	00 00                	add    BYTE PTR [rax],al
 48c:	00 00                	add    BYTE PTR [rax],al
 48e:	00 00                	add    BYTE PTR [rax],al
 490:	01 33                	add    DWORD PTR [rbx],esi
 492:	6b 68 74 74          	imul   ebp,DWORD PTR [rax+0x74],0x74
 496:	70 64                	jo     4fc <apm_subi+0x7c>
 498:	3a 20                	cmp    ah,BYTE PTR [rax]
 49a:	63 61 6e             	movsxd esp,DWORD PTR [rcx+0x6e]
 49d:	27                   	(bad)  
 49e:	74 20                	je     4c0 <apm_subi+0x40>
 4a0:	6f                   	outs   dx,DWORD PTR ds:[rsi]
 4a1:	70 65                	jo     508 <apm_subi+0x88>
 4a3:	6e                   	outs   dx,BYTE PTR ds:[rsi]
 4a4:	20 6c 69 73          	and    BYTE PTR [rcx+rbp*2+0x73],ch
 4a8:	74 65                	je     50f <apm_subi+0x8f>
 4aa:	6e                   	outs   dx,BYTE PTR ds:[rsi]
 4ab:	20 73 6f             	and    BYTE PTR [rbx+0x6f],dh
 4ae:	63 6b 65             	movsxd ebp,DWORD PTR [rbx+0x65]
 4b1:	74 0a                	je     4bd <apm_subi+0x3d>
	...

Disassembly of section .modinfo:

0000000000000000 <__UNIQUE_ID_version183>:
   0:	76 65                	jbe    67 <__UNIQUE_ID_license180+0xb>
   2:	72 73                	jb     77 <__UNIQUE_ID_backlogtype179+0x6>
   4:	69 6f 6e 3d 30 2e 31 	imul   ebp,DWORD PTR [rdi+0x6e],0x312e303d
	...

000000000000000c <__UNIQUE_ID_description182>:
   c:	64 65 73 63          	fs gs jae 73 <__UNIQUE_ID_backlogtype179+0x2>
  10:	72 69                	jb     7b <__UNIQUE_ID_backlogtype179+0xa>
  12:	70 74                	jo     88 <__UNIQUE_ID_backlogtype179+0x17>
  14:	69 6f 6e 3d 69 6e 2d 	imul   ebp,DWORD PTR [rdi+0x6e],0x2d6e693d
  1b:	6b 65 72 6e          	imul   esp,DWORD PTR [rbp+0x72],0x6e
  1f:	65 6c                	gs ins BYTE PTR es:[rdi],dx
  21:	20 48 54             	and    BYTE PTR [rax+0x54],cl
  24:	54                   	push   rsp
  25:	50                   	push   rax
  26:	20 64 61 65          	and    BYTE PTR [rcx+riz*2+0x65],ah
  2a:	6d                   	ins    DWORD PTR es:[rdi],dx
  2b:	6f                   	outs   dx,DWORD PTR ds:[rsi]
  2c:	6e                   	outs   dx,BYTE PTR ds:[rsi]
	...

000000000000002e <__UNIQUE_ID_author181>:
  2e:	61                   	(bad)  
  2f:	75 74                	jne    a5 <__UNIQUE_ID_srcversion24+0x5>
  31:	68 6f 72 3d 4e       	push   0x4e3d726f
  36:	61                   	(bad)  
  37:	74 69                	je     a2 <__UNIQUE_ID_srcversion24+0x2>
  39:	6f                   	outs   dx,DWORD PTR ds:[rsi]
  3a:	6e                   	outs   dx,BYTE PTR ds:[rsi]
  3b:	61                   	(bad)  
  3c:	6c                   	ins    BYTE PTR es:[rdi],dx
  3d:	20 43 68             	and    BYTE PTR [rbx+0x68],al
  40:	65 6e                	outs   dx,BYTE PTR gs:[rsi]
  42:	67 20 4b 75          	and    BYTE PTR [ebx+0x75],cl
  46:	6e                   	outs   dx,BYTE PTR ds:[rsi]
  47:	67 20 55 6e          	and    BYTE PTR [ebp+0x6e],dl
  4b:	69 76 65 72 73 69 74 	imul   esi,DWORD PTR [rsi+0x65],0x74697372
  52:	79 2c                	jns    80 <__UNIQUE_ID_backlogtype179+0xf>
  54:	20 54 61 69          	and    BYTE PTR [rcx+riz*2+0x69],dl
  58:	77 61                	ja     bb <__UNIQUE_ID_srcversion24+0x1b>
  5a:	6e                   	outs   dx,BYTE PTR ds:[rsi]
	...

000000000000005c <__UNIQUE_ID_license180>:
  5c:	6c                   	ins    BYTE PTR es:[rdi],dx
  5d:	69 63 65 6e 73 65 3d 	imul   esp,DWORD PTR [rbx+0x65],0x3d65736e
  64:	44 75 61             	rex.R jne c8 <__module_depends>
  67:	6c                   	ins    BYTE PTR es:[rdi],dx
  68:	20 4d 49             	and    BYTE PTR [rbp+0x49],cl
  6b:	54                   	push   rsp
  6c:	2f                   	(bad)  
  6d:	47 50                	rex.RXB push r8
  6f:	4c 00            	rex.WR add BYTE PTR [rax+0x61],r14b

0000000000000071 <__UNIQUE_ID_backlogtype179>:
  71:	70 61                	jo     d4 <__UNIQUE_ID_retpoline23+0x3>
  73:	72 6d                	jb     e2 <__UNIQUE_ID_name22+0x5>
  75:	74 79                	je     f0 <__UNIQUE_ID_vermagic21+0x7>
  77:	70 65                	jo     de <__UNIQUE_ID_name22+0x1>
  79:	3d 62 61 63 6b       	cmp    eax,0x6b636162
  7e:	6c                   	ins    BYTE PTR es:[rdi],dx
  7f:	6f                   	outs   dx,DWORD PTR ds:[rsi]
  80:	67 3a 75 73          	cmp    dh,BYTE PTR [ebp+0x73]
  84:	68 6f 72 74 00       	push   0x74726f

0000000000000089 <__UNIQUE_ID_porttype178>:
  89:	70 61                	jo     ec <__UNIQUE_ID_vermagic21+0x3>
  8b:	72 6d                	jb     fa <__UNIQUE_ID_vermagic21+0x11>
  8d:	74 79                	je     108 <__UNIQUE_ID_vermagic21+0x1f>
  8f:	70 65                	jo     f6 <__UNIQUE_ID_vermagic21+0xd>
  91:	3d 70 6f 72 74       	cmp    eax,0x74726f70
  96:	3a 75 73             	cmp    dh,BYTE PTR [rbp+0x73]
  99:	68 6f 72 74 00       	push   0x74726f
	...

00000000000000a0 <__UNIQUE_ID_srcversion24>:
  a0:	73 72                	jae    114 <__UNIQUE_ID_vermagic21+0x2b>
  a2:	63 76 65             	movsxd esi,DWORD PTR [rsi+0x65]
  a5:	72 73                	jb     11a <__UNIQUE_ID_vermagic21+0x31>
  a7:	69 6f 6e 3d 33 30 45 	imul   ebp,DWORD PTR [rdi+0x6e],0x4530333d
  ae:	39 30                	cmp    DWORD PTR [rax],esi
  b0:	32 34 34             	xor    dh,BYTE PTR [rsp+rsi*1]
  b3:	34 31                	xor    al,0x31
  b5:	45                   	rex.RB
  b6:	41 34 46             	rex.B xor al,0x46
  b9:	31 41 36             	xor    DWORD PTR [rcx+0x36],eax
  bc:	44 30 46 39          	xor    BYTE PTR [rsi+0x39],r8b
  c0:	41                   	rex.B
  c1:	36 00 00             	add    BYTE PTR ss:[rax],al
  c4:	00 00                	add    BYTE PTR [rax],al
	...

00000000000000c8 <__module_depends>:
  c8:	64 65 70 65          	fs gs jo 131 <__UNIQUE_ID_vermagic21+0x48>
  cc:	6e                   	outs   dx,BYTE PTR ds:[rsi]
  cd:	64 73 3d             	fs jae 10d <__UNIQUE_ID_vermagic21+0x24>
	...

00000000000000d1 <__UNIQUE_ID_retpoline23>:
  d1:	72 65                	jb     138 <__UNIQUE_ID_vermagic21+0x4f>
  d3:	74 70                	je     145 <__UNIQUE_ID_vermagic21+0x5c>
  d5:	6f                   	outs   dx,DWORD PTR ds:[rsi]
  d6:	6c                   	ins    BYTE PTR es:[rdi],dx
  d7:	69 6e 65 3d 59 00  	imul   ebp,DWORD PTR [rsi+0x65],0x6e00593d

00000000000000dd <__UNIQUE_ID_name22>:
  dd:	6e                   	outs   dx,BYTE PTR ds:[rsi]
  de:	61                   	(bad)  
  df:	6d                   	ins    DWORD PTR es:[rdi],dx
  e0:	65 3d 6b 68 74 74    	gs cmp eax,0x7474686b
  e6:	70 64                	jo     14c <__UNIQUE_ID_vermagic21+0x63>
	...

00000000000000e9 <__UNIQUE_ID_vermagic21>:
  e9:	76 65                	jbe    150 <__UNIQUE_ID_vermagic21+0x67>
  eb:	72 6d                	jb     15a <__UNIQUE_ID_vermagic21+0x71>
  ed:	61                   	(bad)  
  ee:	67 69 63 3d 35 2e 33 	imul   esp,DWORD PTR [ebx+0x3d],0x2e332e35
  f5:	2e 
  f6:	30 2d 35 31 2d 67    	xor    BYTE PTR [rip+0x672d3135],ch        # 672d3231 <http_server_daemon+0x672cbfb1>
  fc:	65 6e                	outs   dx,BYTE PTR gs:[rsi]
  fe:	65 72 69             	gs jb  16a <__UNIQUE_ID_vermagic21+0x81>
 101:	63 20                	movsxd esp,DWORD PTR [rax]
 103:	53                   	push   rbx
 104:	4d 50                	rex.WRB push r8
 106:	20 6d 6f             	and    BYTE PTR [rbp+0x6f],ch
 109:	64 5f                	fs pop rdi
 10b:	75 6e                	jne    17b <__UNIQUE_ID_vermagic21+0x92>
 10d:	6c                   	ins    BYTE PTR es:[rdi],dx
 10e:	6f                   	outs   dx,DWORD PTR ds:[rsi]
 10f:	61                   	(bad)  
 110:	64 20 00             	and    BYTE PTR fs:[rax],al

Disassembly of section __param:

0000000000000000 <__param_backlog>:
	...
  18:	24 01                	and    al,0x1
  1a:	ff 00                	inc    DWORD PTR [rax]
	...

0000000000000028 <__param_port>:
	...
  40:	24 01                	and    al,0x1
  42:	ff 00                	inc    DWORD PTR [rax]
	...

Disassembly of section .note.Linux:

0000000000000000 <_note_6>:
   0:	06                   	(bad)  
   1:	00 00                	add    BYTE PTR [rax],al
   3:	00 01                	add    BYTE PTR [rcx],al
   5:	00 00                	add    BYTE PTR [rax],al
   7:	00 00                	add    BYTE PTR [rax],al
   9:	01 00                	add    DWORD PTR [rax],eax
   b:	00 4c 69 6e          	add    BYTE PTR [rcx+rbp*2+0x6e],cl
   f:	75 78                	jne    89 <__UNIQUE_ID_porttype178>
  11:	00 00                	add    BYTE PTR [rax],al
  13:	00 00                	add    BYTE PTR [rax],al
  15:	00 00                	add    BYTE PTR [rax],al
	...

Disassembly of section .data:

0000000000000000 <max_header_size>:
   0:	00 40 01             	add    BYTE PTR [rax+0x1],al
	...

0000000000000004 <backlog>:
   4:	64                   	fs
	...

0000000000000006 <port>:
   6:	91                   	xchg   ecx,eax
   7:	1f                   	(bad)  

Disassembly of section .gnu.linkonce.this_module:

0000000000000000 <__this_module>:
	...
  18:	6b 68 74 74          	imul   ebp,DWORD PTR [rax+0x74],0x74
  1c:	70 64                	jo     82 <__this_module+0x82>
	...

Disassembly of section .bss:

0000000000000000 <daemon>:
	...

0000000000000018 <khttpd_wq>:
	...

0000000000000020 <http_server>:
	...

0000000000000028 <param>:
	...

0000000000000030 <listen_socket>:
	...

Disassembly of section .comment:

0000000000000000 <.comment>:
   0:	00 47 43             	add    BYTE PTR [rdi+0x43],al
   3:	43 3a 20             	rex.XB cmp spl,BYTE PTR [r8]
   6:	28 55 62             	sub    BYTE PTR [rbp+0x62],dl
   9:	75 6e                	jne    79 <.comment+0x79>
   b:	74 75                	je     82 <.comment+0x82>
   d:	20 37                	and    BYTE PTR [rdi],dh
   f:	2e 35 2e 30 2d 33    	cs xor eax,0x332d302e
  15:	75 62                	jne    79 <.comment+0x79>
  17:	75 6e                	jne    87 <.comment+0x87>
  19:	74 75                	je     90 <.comment+0x90>
  1b:	31 7e 31             	xor    DWORD PTR [rsi+0x31],edi
  1e:	38 2e                	cmp    BYTE PTR [rsi],ch
  20:	30 34 29             	xor    BYTE PTR [rcx+rbp*1],dh
  23:	20 37                	and    BYTE PTR [rdi],dh
  25:	2e 35 2e 30 00 00    	cs xor eax,0x302e
  2b:	47                   	rex.RXB
  2c:	43                   	rex.XB
  2d:	43 3a 20             	rex.XB cmp spl,BYTE PTR [r8]
  30:	28 55 62             	sub    BYTE PTR [rbp+0x62],dl
  33:	75 6e                	jne    a3 <.comment+0xa3>
  35:	74 75                	je     ac <.comment+0xac>
  37:	20 37                	and    BYTE PTR [rdi],dh
  39:	2e 35 2e 30 2d 33    	cs xor eax,0x332d302e
  3f:	75 62                	jne    a3 <.comment+0xa3>
  41:	75 6e                	jne    b1 <.comment+0xb1>
  43:	74 75                	je     ba <.comment+0xba>
  45:	31 7e 31             	xor    DWORD PTR [rsi+0x31],edi
  48:	38 2e                	cmp    BYTE PTR [rsi],ch
  4a:	30 34 29             	xor    BYTE PTR [rcx+rbp*1],dh
  4d:	20 37                	and    BYTE PTR [rdi],dh
  4f:	2e 35 2e 30 00 00    	cs xor eax,0x302e
  55:	47                   	rex.RXB
  56:	43                   	rex.XB
  57:	43 3a 20             	rex.XB cmp spl,BYTE PTR [r8]
  5a:	28 55 62             	sub    BYTE PTR [rbp+0x62],dl
  5d:	75 6e                	jne    cd <.comment+0xcd>
  5f:	74 75                	je     d6 <.comment+0xd6>
  61:	20 37                	and    BYTE PTR [rdi],dh
  63:	2e 35 2e 30 2d 33    	cs xor eax,0x332d302e
  69:	75 62                	jne    cd <.comment+0xcd>
  6b:	75 6e                	jne    db <.comment+0xdb>
  6d:	74 75                	je     e4 <.comment+0xe4>
  6f:	31 7e 31             	xor    DWORD PTR [rsi+0x31],edi
  72:	38 2e                	cmp    BYTE PTR [rsi],ch
  74:	30 34 29             	xor    BYTE PTR [rcx+rbp*1],dh
  77:	20 37                	and    BYTE PTR [rdi],dh
  79:	2e 35 2e 30 00 00    	cs xor eax,0x302e
  7f:	47                   	rex.RXB
  80:	43                   	rex.XB
  81:	43 3a 20             	rex.XB cmp spl,BYTE PTR [r8]
  84:	28 55 62             	sub    BYTE PTR [rbp+0x62],dl
  87:	75 6e                	jne    f7 <.comment+0xf7>
  89:	74 75                	je     100 <.comment+0x100>
  8b:	20 37                	and    BYTE PTR [rdi],dh
  8d:	2e 35 2e 30 2d 33    	cs xor eax,0x332d302e
  93:	75 62                	jne    f7 <.comment+0xf7>
  95:	75 6e                	jne    105 <.comment+0x105>
  97:	74 75                	je     10e <.comment+0x10e>
  99:	31 7e 31             	xor    DWORD PTR [rsi+0x31],edi
  9c:	38 2e                	cmp    BYTE PTR [rsi],ch
  9e:	30 34 29             	xor    BYTE PTR [rcx+rbp*1],dh
  a1:	20 37                	and    BYTE PTR [rdi],dh
  a3:	2e 35 2e 30 00 00    	cs xor eax,0x302e
  a9:	47                   	rex.RXB
  aa:	43                   	rex.XB
  ab:	43 3a 20             	rex.XB cmp spl,BYTE PTR [r8]
  ae:	28 55 62             	sub    BYTE PTR [rbp+0x62],dl
  b1:	75 6e                	jne    121 <.comment+0x121>
  b3:	74 75                	je     12a <.comment+0x12a>
  b5:	20 37                	and    BYTE PTR [rdi],dh
  b7:	2e 35 2e 30 2d 33    	cs xor eax,0x332d302e
  bd:	75 62                	jne    121 <.comment+0x121>
  bf:	75 6e                	jne    12f <.comment+0x12f>
  c1:	74 75                	je     138 <.comment+0x138>
  c3:	31 7e 31             	xor    DWORD PTR [rsi+0x31],edi
  c6:	38 2e                	cmp    BYTE PTR [rsi],ch
  c8:	30 34 29             	xor    BYTE PTR [rcx+rbp*1],dh
  cb:	20 37                	and    BYTE PTR [rdi],dh
  cd:	2e 35 2e 30 00 00    	cs xor eax,0x302e
  d3:	47                   	rex.RXB
  d4:	43                   	rex.XB
  d5:	43 3a 20             	rex.XB cmp spl,BYTE PTR [r8]
  d8:	28 55 62             	sub    BYTE PTR [rbp+0x62],dl
  db:	75 6e                	jne    14b <.comment+0x14b>
  dd:	74 75                	je     154 <.comment+0x154>
  df:	20 37                	and    BYTE PTR [rdi],dh
  e1:	2e 35 2e 30 2d 33    	cs xor eax,0x332d302e
  e7:	75 62                	jne    14b <.comment+0x14b>
  e9:	75 6e                	jne    159 <.comment+0x159>
  eb:	74 75                	je     162 <.comment+0x162>
  ed:	31 7e 31             	xor    DWORD PTR [rsi+0x31],edi
  f0:	38 2e                	cmp    BYTE PTR [rsi],ch
  f2:	30 34 29             	xor    BYTE PTR [rcx+rbp*1],dh
  f5:	20 37                	and    BYTE PTR [rdi],dh
  f7:	2e 35 2e 30 00 00    	cs xor eax,0x302e
  fd:	47                   	rex.RXB
  fe:	43                   	rex.XB
  ff:	43 3a 20             	rex.XB cmp spl,BYTE PTR [r8]
 102:	28 55 62             	sub    BYTE PTR [rbp+0x62],dl
 105:	75 6e                	jne    175 <.comment+0x175>
 107:	74 75                	je     17e <__UNIQUE_ID_vermagic21+0x95>
 109:	20 37                	and    BYTE PTR [rdi],dh
 10b:	2e 35 2e 30 2d 33    	cs xor eax,0x332d302e
 111:	75 62                	jne    175 <.comment+0x175>
 113:	75 6e                	jne    183 <__UNIQUE_ID_vermagic21+0x9a>
 115:	74 75                	je     18c <__UNIQUE_ID_vermagic21+0xa3>
 117:	31 7e 31             	xor    DWORD PTR [rsi+0x31],edi
 11a:	38 2e                	cmp    BYTE PTR [rsi],ch
 11c:	30 34 29             	xor    BYTE PTR [rcx+rbp*1],dh
 11f:	20 37                	and    BYTE PTR [rdi],dh
 121:	2e 35 2e 30 00 00    	cs xor eax,0x302e
 127:	47                   	rex.RXB
 128:	43                   	rex.XB
 129:	43 3a 20             	rex.XB cmp spl,BYTE PTR [r8]
 12c:	28 55 62             	sub    BYTE PTR [rbp+0x62],dl
 12f:	75 6e                	jne    19f <__UNIQUE_ID_vermagic21+0xb6>
 131:	74 75                	je     1a8 <__UNIQUE_ID_vermagic21+0xbf>
 133:	20 37                	and    BYTE PTR [rdi],dh
 135:	2e 35 2e 30 2d 33    	cs xor eax,0x332d302e
 13b:	75 62                	jne    19f <__UNIQUE_ID_vermagic21+0xb6>
 13d:	75 6e                	jne    1ad <__UNIQUE_ID_vermagic21+0xc4>
 13f:	74 75                	je     1b6 <__UNIQUE_ID_vermagic21+0xcd>
 141:	31 7e 31             	xor    DWORD PTR [rsi+0x31],edi
 144:	38 2e                	cmp    BYTE PTR [rsi],ch
 146:	30 34 29             	xor    BYTE PTR [rcx+rbp*1],dh
 149:	20 37                	and    BYTE PTR [rdi],dh
 14b:	2e 35 2e 30 00 00    	cs xor eax,0x302e
 151:	47                   	rex.RXB
 152:	43                   	rex.XB
 153:	43 3a 20             	rex.XB cmp spl,BYTE PTR [r8]
 156:	28 55 62             	sub    BYTE PTR [rbp+0x62],dl
 159:	75 6e                	jne    1c9 <__UNIQUE_ID_vermagic21+0xe0>
 15b:	74 75                	je     1d2 <__UNIQUE_ID_vermagic21+0xe9>
 15d:	20 37                	and    BYTE PTR [rdi],dh
 15f:	2e 35 2e 30 2d 33    	cs xor eax,0x332d302e
 165:	75 62                	jne    1c9 <__UNIQUE_ID_vermagic21+0xe0>
 167:	75 6e                	jne    1d7 <__UNIQUE_ID_vermagic21+0xee>
 169:	74 75                	je     1e0 <__UNIQUE_ID_vermagic21+0xf7>
 16b:	31 7e 31             	xor    DWORD PTR [rsi+0x31],edi
 16e:	38 2e                	cmp    BYTE PTR [rsi],ch
 170:	30 34 29             	xor    BYTE PTR [rcx+rbp*1],dh
 173:	20 37                	and    BYTE PTR [rdi],dh
 175:	2e                   	cs
 176:	35                   	.byte 0x35
 177:	2e 30 00             	xor    BYTE PTR cs:[rax],al
